
/data/sam/proj_aiot/wanmosi/rls_sdk/sophpi-duo/sophpi-duo/cvi_mmf_sdk/freertos/cvitek/install/bin/cvirtos.elf:     file format elf64-littleriscv


Disassembly of section .text:

0000000083f40000 <_start>:
    83f40000:	f1402573          	csrr	a0,mhartid
    83f40004:	4581                	li	a1,0
    83f40006:	0eb51a63          	bne	a0,a1,83f400fa <secondary>
    83f4000a:	4081                	li	ra,0
    83f4000c:	4101                	li	sp,0
    83f4000e:	4181                	li	gp,0
    83f40010:	4201                	li	tp,0
    83f40012:	4281                	li	t0,0
    83f40014:	4301                	li	t1,0
    83f40016:	4381                	li	t2,0
    83f40018:	4401                	li	s0,0
    83f4001a:	4481                	li	s1,0
    83f4001c:	4501                	li	a0,0
    83f4001e:	4581                	li	a1,0
    83f40020:	4601                	li	a2,0
    83f40022:	4681                	li	a3,0
    83f40024:	4701                	li	a4,0
    83f40026:	4781                	li	a5,0
    83f40028:	4801                	li	a6,0
    83f4002a:	4881                	li	a7,0
    83f4002c:	4901                	li	s2,0
    83f4002e:	4981                	li	s3,0
    83f40030:	4a01                	li	s4,0
    83f40032:	4a81                	li	s5,0
    83f40034:	4b01                	li	s6,0
    83f40036:	4b81                	li	s7,0
    83f40038:	4c01                	li	s8,0
    83f4003a:	4c81                	li	s9,0
    83f4003c:	4d01                	li	s10,0
    83f4003e:	4d81                	li	s11,0
    83f40040:	4e01                	li	t3,0
    83f40042:	4e81                	li	t4,0
    83f40044:	4f01                	li	t5,0
    83f40046:	4f81                	li	t6,0
    83f40048:	000011b7          	lui	gp,0x1
    83f4004c:	8801819b          	addiw	gp,gp,-1920
    83f40050:	30419073          	csrw	mie,gp
    83f40054:	000301b7          	lui	gp,0x30
    83f40058:	0131819b          	addiw	gp,gp,19
    83f4005c:	7c21a073          	csrs	mcor,gp
    83f40060:	07f00193          	li	gp,127
    83f40064:	7c11a073          	csrs	mhcr,gp
    83f40068:	000061b7          	lui	gp,0x6
    83f4006c:	10c1819b          	addiw	gp,gp,268
    83f40070:	7c51a073          	csrs	mhint,gp
    83f40074:	6189                	lui	gp,0x2
    83f40076:	3001a073          	csrs	mstatus,gp
    83f4007a:	000c0117          	auipc	sp,0xc0
    83f4007e:	cc610113          	addi	sp,sp,-826 # 83fffd40 <_end>
    83f40082:	00012517          	auipc	a0,0x12
    83f40086:	6fe50513          	addi	a0,a0,1790 # 83f52780 <_data_lma>
    83f4008a:	00012597          	auipc	a1,0x12
    83f4008e:	6f658593          	addi	a1,a1,1782 # 83f52780 <_data_lma>
    83f40092:	00013617          	auipc	a2,0x13
    83f40096:	14e60613          	addi	a2,a2,334 # 83f531e0 <_edata>
    83f4009a:	00c5fa63          	bgeu	a1,a2,83f400ae <_start+0xae>
    83f4009e:	00053283          	ld	t0,0(a0)
    83f400a2:	0055b023          	sd	t0,0(a1)
    83f400a6:	0521                	addi	a0,a0,8
    83f400a8:	05a1                	addi	a1,a1,8
    83f400aa:	fec5eae3          	bltu	a1,a2,83f4009e <_start+0x9e>
    83f400ae:	00013517          	auipc	a0,0x13
    83f400b2:	15250513          	addi	a0,a0,338 # 83f53200 <__data1_end>
    83f400b6:	00020597          	auipc	a1,0x20
    83f400ba:	c8a58593          	addi	a1,a1,-886 # 83f5fd40 <_ebss>
    83f400be:	02b57663          	bgeu	a0,a1,83f400ea <_start+0xea>
    83f400c2:	00053023          	sd	zero,0(a0)
    83f400c6:	00053423          	sd	zero,8(a0)
    83f400ca:	00053823          	sd	zero,16(a0)
    83f400ce:	00053c23          	sd	zero,24(a0)
    83f400d2:	02053023          	sd	zero,32(a0)
    83f400d6:	02053423          	sd	zero,40(a0)
    83f400da:	02053823          	sd	zero,48(a0)
    83f400de:	02053c23          	sd	zero,56(a0)
    83f400e2:	04050513          	addi	a0,a0,64
    83f400e6:	fcb56ee3          	bltu	a0,a1,83f400c2 <_start+0xc2>
    83f400ea:	4501                	li	a0,0
    83f400ec:	4581                	li	a1,0
    83f400ee:	4601                	li	a2,0
    83f400f0:	531020ef          	jal	ra,83f42e20 <main>
    83f400f4:	10500073          	wfi
    83f400f8:	bff5                	j	83f400f4 <_start+0xf4>

0000000083f400fa <secondary>:
    83f400fa:	10500073          	wfi
    83f400fe:	bff5                	j	83f400fa <secondary>

0000000083f40100 <memcpy>:
    83f40100:	8faa                	mv	t6,a0
    83f40102:	08063693          	sltiu	a3,a2,128
    83f40106:	eedd                	bnez	a3,83f401c4 <memcpy+0xc4>
    83f40108:	007ff693          	andi	a3,t6,7
    83f4010c:	0075f713          	andi	a4,a1,7
    83f40110:	0ae69a63          	bne	a3,a4,83f401c4 <memcpy+0xc4>
    83f40114:	ce99                	beqz	a3,83f40132 <memcpy+0x32>
    83f40116:	ff85f693          	andi	a3,a1,-8
    83f4011a:	06a1                	addi	a3,a3,8
    83f4011c:	40b68733          	sub	a4,a3,a1
    83f40120:	00058783          	lb	a5,0(a1)
    83f40124:	0585                	addi	a1,a1,1
    83f40126:	00ff8023          	sb	a5,0(t6)
    83f4012a:	0f85                	addi	t6,t6,1
    83f4012c:	fed5eae3          	bltu	a1,a3,83f40120 <memcpy+0x20>
    83f40130:	8e19                	sub	a2,a2,a4
    83f40132:	f8067713          	andi	a4,a2,-128
    83f40136:	c759                	beqz	a4,83f401c4 <memcpy+0xc4>
    83f40138:	00e586b3          	add	a3,a1,a4
    83f4013c:	6198                	ld	a4,0(a1)
    83f4013e:	659c                	ld	a5,8(a1)
    83f40140:	0105b803          	ld	a6,16(a1)
    83f40144:	0185b883          	ld	a7,24(a1)
    83f40148:	0205b283          	ld	t0,32(a1)
    83f4014c:	0285b303          	ld	t1,40(a1)
    83f40150:	0305b383          	ld	t2,48(a1)
    83f40154:	0385be03          	ld	t3,56(a1)
    83f40158:	0405be83          	ld	t4,64(a1)
    83f4015c:	0485bf03          	ld	t5,72(a1)
    83f40160:	00efb023          	sd	a4,0(t6)
    83f40164:	00ffb423          	sd	a5,8(t6)
    83f40168:	010fb823          	sd	a6,16(t6)
    83f4016c:	011fbc23          	sd	a7,24(t6)
    83f40170:	025fb023          	sd	t0,32(t6)
    83f40174:	026fb423          	sd	t1,40(t6)
    83f40178:	027fb823          	sd	t2,48(t6)
    83f4017c:	03cfbc23          	sd	t3,56(t6)
    83f40180:	05dfb023          	sd	t4,64(t6)
    83f40184:	05efb423          	sd	t5,72(t6)
    83f40188:	69b8                	ld	a4,80(a1)
    83f4018a:	6dbc                	ld	a5,88(a1)
    83f4018c:	0605b803          	ld	a6,96(a1)
    83f40190:	0685b883          	ld	a7,104(a1)
    83f40194:	0705b283          	ld	t0,112(a1)
    83f40198:	0785b303          	ld	t1,120(a1)
    83f4019c:	08058593          	addi	a1,a1,128
    83f401a0:	04efb823          	sd	a4,80(t6)
    83f401a4:	04ffbc23          	sd	a5,88(t6)
    83f401a8:	070fb023          	sd	a6,96(t6)
    83f401ac:	071fb423          	sd	a7,104(t6)
    83f401b0:	065fb823          	sd	t0,112(t6)
    83f401b4:	066fbc23          	sd	t1,120(t6)
    83f401b8:	080f8f93          	addi	t6,t6,128
    83f401bc:	f8d5e0e3          	bltu	a1,a3,83f4013c <memcpy+0x3c>
    83f401c0:	07f67613          	andi	a2,a2,127
    83f401c4:	ca05                	beqz	a2,83f401f4 <memcpy+0xf4>
    83f401c6:	00c586b3          	add	a3,a1,a2
    83f401ca:	01f5e7b3          	or	a5,a1,t6
    83f401ce:	8fd5                	or	a5,a5,a3
    83f401d0:	8b8d                	andi	a5,a5,3
    83f401d2:	eb89                	bnez	a5,83f401e4 <memcpy+0xe4>
    83f401d4:	4198                	lw	a4,0(a1)
    83f401d6:	0591                	addi	a1,a1,4
    83f401d8:	00efa023          	sw	a4,0(t6)
    83f401dc:	0f91                	addi	t6,t6,4
    83f401de:	fed5ebe3          	bltu	a1,a3,83f401d4 <memcpy+0xd4>
    83f401e2:	8082                	ret
    83f401e4:	00058703          	lb	a4,0(a1)
    83f401e8:	0585                	addi	a1,a1,1
    83f401ea:	00ef8023          	sb	a4,0(t6)
    83f401ee:	0f85                	addi	t6,t6,1
    83f401f0:	fed5eae3          	bltu	a1,a3,83f401e4 <memcpy+0xe4>
    83f401f4:	8082                	ret
	...

0000000083f40200 <freertos_risc_v_trap_handler>:
    83f40200:	7151                	addi	sp,sp,-240
    83f40202:	e406                	sd	ra,8(sp)
    83f40204:	e816                	sd	t0,16(sp)
    83f40206:	ec1a                	sd	t1,24(sp)
    83f40208:	f01e                	sd	t2,32(sp)
    83f4020a:	f422                	sd	s0,40(sp)
    83f4020c:	f826                	sd	s1,48(sp)
    83f4020e:	fc2a                	sd	a0,56(sp)
    83f40210:	e0ae                	sd	a1,64(sp)
    83f40212:	e4b2                	sd	a2,72(sp)
    83f40214:	e8b6                	sd	a3,80(sp)
    83f40216:	ecba                	sd	a4,88(sp)
    83f40218:	f0be                	sd	a5,96(sp)
    83f4021a:	f4c2                	sd	a6,104(sp)
    83f4021c:	f8c6                	sd	a7,112(sp)
    83f4021e:	fcca                	sd	s2,120(sp)
    83f40220:	e14e                	sd	s3,128(sp)
    83f40222:	e552                	sd	s4,136(sp)
    83f40224:	e956                	sd	s5,144(sp)
    83f40226:	ed5a                	sd	s6,152(sp)
    83f40228:	f15e                	sd	s7,160(sp)
    83f4022a:	f562                	sd	s8,168(sp)
    83f4022c:	f966                	sd	s9,176(sp)
    83f4022e:	fd6a                	sd	s10,184(sp)
    83f40230:	e1ee                	sd	s11,192(sp)
    83f40232:	e5f2                	sd	t3,200(sp)
    83f40234:	e9f6                	sd	t4,208(sp)
    83f40236:	edfa                	sd	t5,216(sp)
    83f40238:	f1fe                	sd	t6,224(sp)
    83f4023a:	300022f3          	csrr	t0,mstatus
    83f4023e:	f596                	sd	t0,232(sp)
    83f40240:	716d                	addi	sp,sp,-272
    83f40242:	a402                	fsd	ft0,8(sp)
    83f40244:	a806                	fsd	ft1,16(sp)
    83f40246:	ac0a                	fsd	ft2,24(sp)
    83f40248:	b00e                	fsd	ft3,32(sp)
    83f4024a:	b412                	fsd	ft4,40(sp)
    83f4024c:	b816                	fsd	ft5,48(sp)
    83f4024e:	bc1a                	fsd	ft6,56(sp)
    83f40250:	a09e                	fsd	ft7,64(sp)
    83f40252:	a4a2                	fsd	fs0,72(sp)
    83f40254:	a8a6                	fsd	fs1,80(sp)
    83f40256:	acaa                	fsd	fa0,88(sp)
    83f40258:	b0ae                	fsd	fa1,96(sp)
    83f4025a:	b4b2                	fsd	fa2,104(sp)
    83f4025c:	b8b6                	fsd	fa3,112(sp)
    83f4025e:	bcba                	fsd	fa4,120(sp)
    83f40260:	a13e                	fsd	fa5,128(sp)
    83f40262:	a542                	fsd	fa6,136(sp)
    83f40264:	a946                	fsd	fa7,144(sp)
    83f40266:	ad4a                	fsd	fs2,152(sp)
    83f40268:	b14e                	fsd	fs3,160(sp)
    83f4026a:	b552                	fsd	fs4,168(sp)
    83f4026c:	b956                	fsd	fs5,176(sp)
    83f4026e:	bd5a                	fsd	fs6,184(sp)
    83f40270:	a1de                	fsd	fs7,192(sp)
    83f40272:	a5e2                	fsd	fs8,200(sp)
    83f40274:	a9e6                	fsd	fs9,208(sp)
    83f40276:	adea                	fsd	fs10,216(sp)
    83f40278:	b1ee                	fsd	fs11,224(sp)
    83f4027a:	b5f2                	fsd	ft8,232(sp)
    83f4027c:	b9f6                	fsd	ft9,240(sp)
    83f4027e:	bdfa                	fsd	ft10,248(sp)
    83f40280:	a27e                	fsd	ft11,256(sp)
    83f40282:	003022f3          	frsr	t0
    83f40286:	e616                	sd	t0,264(sp)
    83f40288:	00020297          	auipc	t0,0x20
    83f4028c:	a002b283          	ld	t0,-1536(t0) # 83f5fc88 <pxCurrentTCB>
    83f40290:	0022b023          	sd	sp,0(t0)
    83f40294:	34202573          	csrr	a0,mcause
    83f40298:	341025f3          	csrr	a1,mepc

0000000083f4029c <test_if_asynchronous>:
    83f4029c:	03f55613          	srli	a2,a0,0x3f
    83f402a0:	c62d                	beqz	a2,83f4030a <handle_synchronous>
    83f402a2:	e02e                	sd	a1,0(sp)

0000000083f402a4 <handle_asynchronous>:
    83f402a4:	00100293          	li	t0,1
    83f402a8:	12fe                	slli	t0,t0,0x3f
    83f402aa:	00728313          	addi	t1,t0,7
    83f402ae:	04651463          	bne	a0,t1,83f402f6 <test_if_external_interrupt>
    83f402b2:	00020297          	auipc	t0,0x20
    83f402b6:	a762b283          	ld	t0,-1418(t0) # 83f5fd28 <pulMachineTimerCompareRegisterL>
    83f402ba:	00013317          	auipc	t1,0x13
    83f402be:	f1e33303          	ld	t1,-226(t1) # 83f531d8 <pullNextTime>
    83f402c2:	00033383          	ld	t2,0(t1)
    83f402c6:	0072a023          	sw	t2,0(t0)
    83f402ca:	0203de13          	srli	t3,t2,0x20
    83f402ce:	01c2a223          	sw	t3,4(t0)
    83f402d2:	00012297          	auipc	t0,0x12
    83f402d6:	1b62b283          	ld	t0,438(t0) # 83f52488 <uxTimerIncrementsForOneTick>
    83f402da:	00728eb3          	add	t4,t0,t2
    83f402de:	01d33023          	sd	t4,0(t1)
    83f402e2:	00012117          	auipc	sp,0x12
    83f402e6:	1ae13103          	ld	sp,430(sp) # 83f52490 <xISRStackTop>
    83f402ea:	1660f0ef          	jal	ra,83f4f450 <xTaskIncrementTick>
    83f402ee:	c521                	beqz	a0,83f40336 <processed_source>
    83f402f0:	18c0f0ef          	jal	ra,83f4f47c <vTaskSwitchContext>
    83f402f4:	a089                	j	83f40336 <processed_source>

0000000083f402f6 <test_if_external_interrupt>:
    83f402f6:	0311                	addi	t1,t1,4
    83f402f8:	02651c63          	bne	a0,t1,83f40330 <as_yet_unhandled>
    83f402fc:	00012117          	auipc	sp,0x12
    83f40300:	19413103          	ld	sp,404(sp) # 83f52490 <xISRStackTop>
    83f40304:	2240c0ef          	jal	ra,83f4c528 <do_irq>
    83f40308:	a03d                	j	83f40336 <processed_source>

0000000083f4030a <handle_synchronous>:
    83f4030a:	0591                	addi	a1,a1,4
    83f4030c:	e02e                	sd	a1,0(sp)

0000000083f4030e <test_if_environment_call>:
    83f4030e:	42ad                	li	t0,11
    83f40310:	00551963          	bne	a0,t0,83f40322 <is_exception>
    83f40314:	00012117          	auipc	sp,0x12
    83f40318:	17c13103          	ld	sp,380(sp) # 83f52490 <xISRStackTop>
    83f4031c:	1600f0ef          	jal	ra,83f4f47c <vTaskSwitchContext>
    83f40320:	a819                	j	83f40336 <processed_source>

0000000083f40322 <is_exception>:
    83f40322:	342022f3          	csrr	t0,mcause
    83f40326:	34102373          	csrr	t1,mepc
    83f4032a:	300023f3          	csrr	t2,mstatus
    83f4032e:	bfd5                	j	83f40322 <is_exception>

0000000083f40330 <as_yet_unhandled>:
    83f40330:	342022f3          	csrr	t0,mcause
    83f40334:	bff5                	j	83f40330 <as_yet_unhandled>

0000000083f40336 <processed_source>:
    83f40336:	00020317          	auipc	t1,0x20
    83f4033a:	95233303          	ld	t1,-1710(t1) # 83f5fc88 <pxCurrentTCB>
    83f4033e:	00033103          	ld	sp,0(t1)
    83f40342:	6282                	ld	t0,0(sp)
    83f40344:	34129073          	csrw	mepc,t0
    83f40348:	2022                	fld	ft0,8(sp)
    83f4034a:	20c2                	fld	ft1,16(sp)
    83f4034c:	2162                	fld	ft2,24(sp)
    83f4034e:	3182                	fld	ft3,32(sp)
    83f40350:	3222                	fld	ft4,40(sp)
    83f40352:	32c2                	fld	ft5,48(sp)
    83f40354:	3362                	fld	ft6,56(sp)
    83f40356:	2386                	fld	ft7,64(sp)
    83f40358:	2426                	fld	fs0,72(sp)
    83f4035a:	24c6                	fld	fs1,80(sp)
    83f4035c:	2566                	fld	fa0,88(sp)
    83f4035e:	3586                	fld	fa1,96(sp)
    83f40360:	3626                	fld	fa2,104(sp)
    83f40362:	36c6                	fld	fa3,112(sp)
    83f40364:	3766                	fld	fa4,120(sp)
    83f40366:	278a                	fld	fa5,128(sp)
    83f40368:	282a                	fld	fa6,136(sp)
    83f4036a:	28ca                	fld	fa7,144(sp)
    83f4036c:	296a                	fld	fs2,152(sp)
    83f4036e:	398a                	fld	fs3,160(sp)
    83f40370:	3a2a                	fld	fs4,168(sp)
    83f40372:	3aca                	fld	fs5,176(sp)
    83f40374:	3b6a                	fld	fs6,184(sp)
    83f40376:	2b8e                	fld	fs7,192(sp)
    83f40378:	2c2e                	fld	fs8,200(sp)
    83f4037a:	2cce                	fld	fs9,208(sp)
    83f4037c:	2d6e                	fld	fs10,216(sp)
    83f4037e:	3d8e                	fld	fs11,224(sp)
    83f40380:	3e2e                	fld	ft8,232(sp)
    83f40382:	3ece                	fld	ft9,240(sp)
    83f40384:	3f6e                	fld	ft10,248(sp)
    83f40386:	2f92                	fld	ft11,256(sp)
    83f40388:	62b2                	ld	t0,264(sp)
    83f4038a:	00329073          	fssr	t0
    83f4038e:	6151                	addi	sp,sp,272
    83f40390:	72ae                	ld	t0,232(sp)
    83f40392:	30029073          	csrw	mstatus,t0
    83f40396:	60a2                	ld	ra,8(sp)
    83f40398:	62c2                	ld	t0,16(sp)
    83f4039a:	6362                	ld	t1,24(sp)
    83f4039c:	7382                	ld	t2,32(sp)
    83f4039e:	7422                	ld	s0,40(sp)
    83f403a0:	74c2                	ld	s1,48(sp)
    83f403a2:	7562                	ld	a0,56(sp)
    83f403a4:	6586                	ld	a1,64(sp)
    83f403a6:	6626                	ld	a2,72(sp)
    83f403a8:	66c6                	ld	a3,80(sp)
    83f403aa:	6766                	ld	a4,88(sp)
    83f403ac:	7786                	ld	a5,96(sp)
    83f403ae:	7826                	ld	a6,104(sp)
    83f403b0:	78c6                	ld	a7,112(sp)
    83f403b2:	7966                	ld	s2,120(sp)
    83f403b4:	698a                	ld	s3,128(sp)
    83f403b6:	6a2a                	ld	s4,136(sp)
    83f403b8:	6aca                	ld	s5,144(sp)
    83f403ba:	6b6a                	ld	s6,152(sp)
    83f403bc:	7b8a                	ld	s7,160(sp)
    83f403be:	7c2a                	ld	s8,168(sp)
    83f403c0:	7cca                	ld	s9,176(sp)
    83f403c2:	7d6a                	ld	s10,184(sp)
    83f403c4:	6d8e                	ld	s11,192(sp)
    83f403c6:	6e2e                	ld	t3,200(sp)
    83f403c8:	6ece                	ld	t4,208(sp)
    83f403ca:	6f6e                	ld	t5,216(sp)
    83f403cc:	7f8e                	ld	t6,224(sp)
    83f403ce:	616d                	addi	sp,sp,240
    83f403d0:	30200073          	mret
    83f403d4:	00000013          	nop
    83f403d8:	00000013          	nop
    83f403dc:	00000013          	nop
    83f403e0:	00000013          	nop
    83f403e4:	00000013          	nop
    83f403e8:	00000013          	nop
    83f403ec:	00000013          	nop
    83f403f0:	00000013          	nop
    83f403f4:	00000013          	nop
    83f403f8:	00000013          	nop
    83f403fc:	00000013          	nop

0000000083f40400 <xPortStartFirstTask>:
    83f40400:	00000297          	auipc	t0,0x0
    83f40404:	e0028293          	addi	t0,t0,-512 # 83f40200 <freertos_risc_v_trap_handler>
    83f40408:	30529073          	csrw	mtvec,t0
    83f4040c:	00020117          	auipc	sp,0x20
    83f40410:	87c13103          	ld	sp,-1924(sp) # 83f5fc88 <pxCurrentTCB>
    83f40414:	6102                	ld	sp,0(sp)
    83f40416:	6082                	ld	ra,0(sp)
    83f40418:	2022                	fld	ft0,8(sp)
    83f4041a:	20c2                	fld	ft1,16(sp)
    83f4041c:	2162                	fld	ft2,24(sp)
    83f4041e:	3182                	fld	ft3,32(sp)
    83f40420:	3222                	fld	ft4,40(sp)
    83f40422:	32c2                	fld	ft5,48(sp)
    83f40424:	3362                	fld	ft6,56(sp)
    83f40426:	2386                	fld	ft7,64(sp)
    83f40428:	2426                	fld	fs0,72(sp)
    83f4042a:	24c6                	fld	fs1,80(sp)
    83f4042c:	2566                	fld	fa0,88(sp)
    83f4042e:	3586                	fld	fa1,96(sp)
    83f40430:	3626                	fld	fa2,104(sp)
    83f40432:	36c6                	fld	fa3,112(sp)
    83f40434:	3766                	fld	fa4,120(sp)
    83f40436:	278a                	fld	fa5,128(sp)
    83f40438:	282a                	fld	fa6,136(sp)
    83f4043a:	28ca                	fld	fa7,144(sp)
    83f4043c:	296a                	fld	fs2,152(sp)
    83f4043e:	398a                	fld	fs3,160(sp)
    83f40440:	3a2a                	fld	fs4,168(sp)
    83f40442:	3aca                	fld	fs5,176(sp)
    83f40444:	3b6a                	fld	fs6,184(sp)
    83f40446:	2b8e                	fld	fs7,192(sp)
    83f40448:	2c2e                	fld	fs8,200(sp)
    83f4044a:	2cce                	fld	fs9,208(sp)
    83f4044c:	2d6e                	fld	fs10,216(sp)
    83f4044e:	3d8e                	fld	fs11,224(sp)
    83f40450:	3e2e                	fld	ft8,232(sp)
    83f40452:	3ece                	fld	ft9,240(sp)
    83f40454:	3f6e                	fld	ft10,248(sp)
    83f40456:	2f92                	fld	ft11,256(sp)
    83f40458:	62b2                	ld	t0,264(sp)
    83f4045a:	00329073          	fssr	t0
    83f4045e:	6151                	addi	sp,sp,272
    83f40460:	6362                	ld	t1,24(sp)
    83f40462:	7382                	ld	t2,32(sp)
    83f40464:	7422                	ld	s0,40(sp)
    83f40466:	74c2                	ld	s1,48(sp)
    83f40468:	7562                	ld	a0,56(sp)
    83f4046a:	6586                	ld	a1,64(sp)
    83f4046c:	6626                	ld	a2,72(sp)
    83f4046e:	66c6                	ld	a3,80(sp)
    83f40470:	6766                	ld	a4,88(sp)
    83f40472:	7786                	ld	a5,96(sp)
    83f40474:	7826                	ld	a6,104(sp)
    83f40476:	78c6                	ld	a7,112(sp)
    83f40478:	7966                	ld	s2,120(sp)
    83f4047a:	698a                	ld	s3,128(sp)
    83f4047c:	6a2a                	ld	s4,136(sp)
    83f4047e:	6aca                	ld	s5,144(sp)
    83f40480:	6b6a                	ld	s6,152(sp)
    83f40482:	7b8a                	ld	s7,160(sp)
    83f40484:	7c2a                	ld	s8,168(sp)
    83f40486:	7cca                	ld	s9,176(sp)
    83f40488:	7d6a                	ld	s10,184(sp)
    83f4048a:	6d8e                	ld	s11,192(sp)
    83f4048c:	6e2e                	ld	t3,200(sp)
    83f4048e:	6ece                	ld	t4,208(sp)
    83f40490:	6f6e                	ld	t5,216(sp)
    83f40492:	7f8e                	ld	t6,224(sp)
    83f40494:	72ae                	ld	t0,232(sp)
    83f40496:	02a1                	addi	t0,t0,8
    83f40498:	30029073          	csrw	mstatus,t0
    83f4049c:	62c2                	ld	t0,16(sp)
    83f4049e:	616d                	addi	sp,sp,240
    83f404a0:	8082                	ret
    83f404a2:	00000013          	nop
    83f404a6:	00000013          	nop
    83f404aa:	00000013          	nop
    83f404ae:	00000013          	nop
    83f404b2:	00000013          	nop
    83f404b6:	00000013          	nop
    83f404ba:	00000013          	nop
    83f404be:	00000013          	nop
    83f404c2:	00000013          	nop
    83f404c6:	00000013          	nop
    83f404ca:	00000013          	nop
    83f404ce:	00000013          	nop
    83f404d2:	00000013          	nop
    83f404d6:	00000013          	nop
    83f404da:	00000013          	nop
    83f404de:	00000013          	nop
    83f404e2:	00000013          	nop
    83f404e6:	00000013          	nop
    83f404ea:	00000013          	nop
    83f404ee:	00000013          	nop
    83f404f2:	00000013          	nop
    83f404f6:	00000013          	nop
    83f404fa:	00000013          	nop
    83f404fe:	0001                	nop

0000000083f40500 <pxPortInitialiseStack>:
    83f40500:	300022f3          	csrr	t0,mstatus
    83f40504:	ff72f293          	andi	t0,t0,-9
    83f40508:	18800313          	li	t1,392
    83f4050c:	0312                	slli	t1,t1,0x4
    83f4050e:	0062e2b3          	or	t0,t0,t1
    83f40512:	1561                	addi	a0,a0,-8
    83f40514:	00553023          	sd	t0,0(a0)
    83f40518:	f5050513          	addi	a0,a0,-176
    83f4051c:	e110                	sd	a2,0(a0)
    83f4051e:	fd050513          	addi	a0,a0,-48
    83f40522:	00053023          	sd	zero,0(a0)
    83f40526:	02200293          	li	t0,34

0000000083f4052a <chip_specific_stack_frame>:
    83f4052a:	00028763          	beqz	t0,83f40538 <chip_specific_stack_frame+0xe>
    83f4052e:	1561                	addi	a0,a0,-8
    83f40530:	00053023          	sd	zero,0(a0)
    83f40534:	12fd                	addi	t0,t0,-1
    83f40536:	bfd5                	j	83f4052a <chip_specific_stack_frame>
    83f40538:	1561                	addi	a0,a0,-8
    83f4053a:	e10c                	sd	a1,0(a0)
    83f4053c:	8082                	ret
	...

0000000083f40590 <atan>:
    83f40590:	e20507d3          	fmv.x.d	a5,fa0
    83f40594:	1101                	addi	sp,sp,-32
    83f40596:	e426                	sd	s1,8(sp)
    83f40598:	4207d493          	srai	s1,a5,0x20
    83f4059c:	e822                	sd	s0,16(sp)
    83f4059e:	02149413          	slli	s0,s1,0x21
    83f405a2:	ec06                	sd	ra,24(sp)
    83f405a4:	44100737          	lui	a4,0x44100
    83f405a8:	9005                	srli	s0,s0,0x21
    83f405aa:	02e44f63          	blt	s0,a4,83f405e8 <atan+0x58>
    83f405ae:	7ff00737          	lui	a4,0x7ff00
    83f405b2:	02874263          	blt	a4,s0,83f405d6 <atan+0x46>
    83f405b6:	00e40d63          	beq	s0,a4,83f405d0 <atan+0x40>
    83f405ba:	12905663          	blez	s1,83f406e6 <atan+0x156>
    83f405be:	60e2                	ld	ra,24(sp)
    83f405c0:	6442                	ld	s0,16(sp)
    83f405c2:	64a2                	ld	s1,8(sp)
    83f405c4:	00012797          	auipc	a5,0x12
    83f405c8:	e447b507          	fld	fa0,-444(a5) # 83f52408 <__func__.1+0x210>
    83f405cc:	6105                	addi	sp,sp,32
    83f405ce:	8082                	ret
    83f405d0:	0007869b          	sext.w	a3,a5
    83f405d4:	d2fd                	beqz	a3,83f405ba <atan+0x2a>
    83f405d6:	f20787d3          	fmv.d.x	fa5,a5
    83f405da:	02f7f553          	fadd.d	fa0,fa5,fa5
    83f405de:	60e2                	ld	ra,24(sp)
    83f405e0:	6442                	ld	s0,16(sp)
    83f405e2:	64a2                	ld	s1,8(sp)
    83f405e4:	6105                	addi	sp,sp,32
    83f405e6:	8082                	ret
    83f405e8:	3fdc0737          	lui	a4,0x3fdc0
    83f405ec:	10e45663          	bge	s0,a4,83f406f8 <atan+0x168>
    83f405f0:	3e200737          	lui	a4,0x3e200
    83f405f4:	0ce44b63          	blt	s0,a4,83f406ca <atan+0x13a>
    83f405f8:	577d                	li	a4,-1
    83f405fa:	f20786d3          	fmv.d.x	fa3,a5
    83f405fe:	00012697          	auipc	a3,0x12
    83f40602:	ec26b787          	fld	fa5,-318(a3) # 83f524c0 <xISRStackTop+0x30>
    83f40606:	00012697          	auipc	a3,0x12
    83f4060a:	ec26b507          	fld	fa0,-318(a3) # 83f524c8 <xISRStackTop+0x38>
    83f4060e:	12d6f653          	fmul.d	fa2,fa3,fa3
    83f40612:	00012697          	auipc	a3,0x12
    83f40616:	ede6b707          	fld	fa4,-290(a3) # 83f524f0 <xISRStackTop+0x60>
    83f4061a:	00012697          	auipc	a3,0x12
    83f4061e:	ede6b307          	fld	ft6,-290(a3) # 83f524f8 <xISRStackTop+0x68>
    83f40622:	00012697          	auipc	a3,0x12
    83f40626:	eae6b287          	fld	ft5,-338(a3) # 83f524d0 <xISRStackTop+0x40>
    83f4062a:	00012697          	auipc	a3,0x12
    83f4062e:	ed66b207          	fld	ft4,-298(a3) # 83f52500 <xISRStackTop+0x70>
    83f40632:	00012697          	auipc	a3,0x12
    83f40636:	ea66b187          	fld	ft3,-346(a3) # 83f524d8 <xISRStackTop+0x48>
    83f4063a:	00012697          	auipc	a3,0x12
    83f4063e:	ece6b107          	fld	ft2,-306(a3) # 83f52508 <xISRStackTop+0x78>
    83f40642:	12c676d3          	fmul.d	fa3,fa2,fa2
    83f40646:	00012697          	auipc	a3,0x12
    83f4064a:	e9a6b087          	fld	ft1,-358(a3) # 83f524e0 <xISRStackTop+0x50>
    83f4064e:	00012697          	auipc	a3,0x12
    83f40652:	ec26b007          	fld	ft0,-318(a3) # 83f52510 <xISRStackTop+0x80>
    83f40656:	00012697          	auipc	a3,0x12
    83f4065a:	e926b587          	fld	fa1,-366(a3) # 83f524e8 <xISRStackTop+0x58>
    83f4065e:	56fd                	li	a3,-1
    83f40660:	52f6f543          	fmadd.d	fa0,fa3,fa5,fa0
    83f40664:	32e6f7c3          	fmadd.d	fa5,fa3,fa4,ft6
    83f40668:	2ad57543          	fmadd.d	fa0,fa0,fa3,ft5
    83f4066c:	22d7f7c3          	fmadd.d	fa5,fa5,fa3,ft4
    83f40670:	1ad57543          	fmadd.d	fa0,fa0,fa3,ft3
    83f40674:	12d7f7c3          	fmadd.d	fa5,fa5,fa3,ft2
    83f40678:	0ad57543          	fmadd.d	fa0,fa0,fa3,ft1
    83f4067c:	02d7f7c3          	fmadd.d	fa5,fa5,fa3,ft0
    83f40680:	5ad57543          	fmadd.d	fa0,fa0,fa3,fa1
    83f40684:	12d7f7d3          	fmul.d	fa5,fa5,fa3
    83f40688:	7ac57543          	fmadd.d	fa0,fa0,fa2,fa5
    83f4068c:	f20787d3          	fmv.d.x	fa5,a5
    83f40690:	12a7f553          	fmul.d	fa0,fa5,fa0
    83f40694:	08d70e63          	beq	a4,a3,83f40730 <atan+0x1a0>
    83f40698:	070e                	slli	a4,a4,0x3
    83f4069a:	00010697          	auipc	a3,0x10
    83f4069e:	33e68693          	addi	a3,a3,830 # 83f509d8 <atanhi>
    83f406a2:	9736                	add	a4,a4,a3
    83f406a4:	3318                	fld	fa4,32(a4)
    83f406a6:	231c                	fld	fa5,0(a4)
    83f406a8:	0ae57553          	fsub.d	fa0,fa0,fa4
    83f406ac:	f2078753          	fmv.d.x	fa4,a5
    83f406b0:	0ae57553          	fsub.d	fa0,fa0,fa4
    83f406b4:	0aa7f553          	fsub.d	fa0,fa5,fa0
    83f406b8:	f204d3e3          	bgez	s1,83f405de <atan+0x4e>
    83f406bc:	60e2                	ld	ra,24(sp)
    83f406be:	6442                	ld	s0,16(sp)
    83f406c0:	64a2                	ld	s1,8(sp)
    83f406c2:	22a51553          	fneg.d	fa0,fa0
    83f406c6:	6105                	addi	sp,sp,32
    83f406c8:	8082                	ret
    83f406ca:	00012717          	auipc	a4,0x12
    83f406ce:	dd673787          	fld	fa5,-554(a4) # 83f524a0 <xISRStackTop+0x10>
    83f406d2:	02f577d3          	fadd.d	fa5,fa0,fa5
    83f406d6:	00012717          	auipc	a4,0x12
    83f406da:	c3a73707          	fld	fa4,-966(a4) # 83f52310 <__func__.1+0x118>
    83f406de:	a2f71753          	flt.d	a4,fa4,fa5
    83f406e2:	db19                	beqz	a4,83f405f8 <atan+0x68>
    83f406e4:	bded                	j	83f405de <atan+0x4e>
    83f406e6:	60e2                	ld	ra,24(sp)
    83f406e8:	6442                	ld	s0,16(sp)
    83f406ea:	64a2                	ld	s1,8(sp)
    83f406ec:	00012797          	auipc	a5,0x12
    83f406f0:	dac7b507          	fld	fa0,-596(a5) # 83f52498 <xISRStackTop+0x8>
    83f406f4:	6105                	addi	sp,sp,32
    83f406f6:	8082                	ret
    83f406f8:	250000ef          	jal	ra,83f40948 <fabs>
    83f406fc:	3ff307b7          	lui	a5,0x3ff30
    83f40700:	02f45f63          	bge	s0,a5,83f4073e <atan+0x1ae>
    83f40704:	3fe607b7          	lui	a5,0x3fe60
    83f40708:	06f45b63          	bge	s0,a5,83f4077e <atan+0x1ee>
    83f4070c:	00012797          	auipc	a5,0x12
    83f40710:	d9c7b707          	fld	fa4,-612(a5) # 83f524a8 <xISRStackTop+0x18>
    83f40714:	00012797          	auipc	a5,0x12
    83f40718:	d9c7b787          	fld	fa5,-612(a5) # 83f524b0 <xISRStackTop+0x20>
    83f4071c:	7ae577c3          	fmadd.d	fa5,fa0,fa4,fa5
    83f40720:	02e57553          	fadd.d	fa0,fa0,fa4
    83f40724:	4701                	li	a4,0
    83f40726:	1aa7f7d3          	fdiv.d	fa5,fa5,fa0
    83f4072a:	e20787d3          	fmv.x.d	a5,fa5
    83f4072e:	b5f1                	j	83f405fa <atan+0x6a>
    83f40730:	60e2                	ld	ra,24(sp)
    83f40732:	6442                	ld	s0,16(sp)
    83f40734:	64a2                	ld	s1,8(sp)
    83f40736:	0aa7f553          	fsub.d	fa0,fa5,fa0
    83f4073a:	6105                	addi	sp,sp,32
    83f4073c:	8082                	ret
    83f4073e:	400387b7          	lui	a5,0x40038
    83f40742:	02f45463          	bge	s0,a5,83f4076a <atan+0x1da>
    83f40746:	00012797          	auipc	a5,0x12
    83f4074a:	d727b787          	fld	fa5,-654(a5) # 83f524b8 <xISRStackTop+0x28>
    83f4074e:	00012797          	auipc	a5,0x12
    83f40752:	bc27b687          	fld	fa3,-1086(a5) # 83f52310 <__func__.1+0x118>
    83f40756:	0af57753          	fsub.d	fa4,fa0,fa5
    83f4075a:	6af57543          	fmadd.d	fa0,fa0,fa5,fa3
    83f4075e:	4709                	li	a4,2
    83f40760:	1aa777d3          	fdiv.d	fa5,fa4,fa0
    83f40764:	e20787d3          	fmv.x.d	a5,fa5
    83f40768:	bd49                	j	83f405fa <atan+0x6a>
    83f4076a:	00012797          	auipc	a5,0x12
    83f4076e:	d467b787          	fld	fa5,-698(a5) # 83f524b0 <xISRStackTop+0x20>
    83f40772:	1aa7f7d3          	fdiv.d	fa5,fa5,fa0
    83f40776:	470d                	li	a4,3
    83f40778:	e20787d3          	fmv.x.d	a5,fa5
    83f4077c:	bdbd                	j	83f405fa <atan+0x6a>
    83f4077e:	00012797          	auipc	a5,0x12
    83f40782:	b927b787          	fld	fa5,-1134(a5) # 83f52310 <__func__.1+0x118>
    83f40786:	0af57753          	fsub.d	fa4,fa0,fa5
    83f4078a:	02f57553          	fadd.d	fa0,fa0,fa5
    83f4078e:	4705                	li	a4,1
    83f40790:	1aa777d3          	fdiv.d	fa5,fa4,fa0
    83f40794:	e20787d3          	fmv.x.d	a5,fa5
    83f40798:	b58d                	j	83f405fa <atan+0x6a>

0000000083f4079a <ceil>:
    83f4079a:	e20507d3          	fmv.x.d	a5,fa0
    83f4079e:	464d                	li	a2,19
    83f407a0:	4347d713          	srai	a4,a5,0x34
    83f407a4:	7ff77713          	andi	a4,a4,2047
    83f407a8:	c017081b          	addiw	a6,a4,-1023
    83f407ac:	4207d893          	srai	a7,a5,0x20
    83f407b0:	0007851b          	sext.w	a0,a5
    83f407b4:	09064863          	blt	a2,a6,83f40844 <ceil+0xaa>
    83f407b8:	06084163          	bltz	a6,83f4081a <ceil+0x80>
    83f407bc:	00100737          	lui	a4,0x100
    83f407c0:	fff7059b          	addiw	a1,a4,-1
    83f407c4:	4105d5bb          	sraw	a1,a1,a6
    83f407c8:	00b8f6b3          	and	a3,a7,a1
    83f407cc:	8ec9                	or	a3,a3,a0
    83f407ce:	2681                	sext.w	a3,a3
    83f407d0:	e2050653          	fmv.x.d	a2,fa0
    83f407d4:	c2a1                	beqz	a3,83f40814 <ceil+0x7a>
    83f407d6:	00012697          	auipc	a3,0x12
    83f407da:	cca6b787          	fld	fa5,-822(a3) # 83f524a0 <xISRStackTop+0x10>
    83f407de:	02f577d3          	fadd.d	fa5,fa0,fa5
    83f407e2:	f2000753          	fmv.d.x	fa4,zero
    83f407e6:	a2f717d3          	flt.d	a5,fa4,fa5
    83f407ea:	cf91                	beqz	a5,83f40806 <ceil+0x6c>
    83f407ec:	01105663          	blez	a7,83f407f8 <ceil+0x5e>
    83f407f0:	4107573b          	sraw	a4,a4,a6
    83f407f4:	011708bb          	addw	a7,a4,a7
    83f407f8:	fff5c713          	not	a4,a1
    83f407fc:	01177733          	and	a4,a4,a7
    83f40800:	0007089b          	sext.w	a7,a4
    83f40804:	4501                	li	a0,0
    83f40806:	02051793          	slli	a5,a0,0x20
    83f4080a:	9381                	srli	a5,a5,0x20
    83f4080c:	02089713          	slli	a4,a7,0x20
    83f40810:	00f76633          	or	a2,a4,a5
    83f40814:	f2060553          	fmv.d.x	fa0,a2
    83f40818:	8082                	ret
    83f4081a:	00012717          	auipc	a4,0x12
    83f4081e:	c8673787          	fld	fa5,-890(a4) # 83f524a0 <xISRStackTop+0x10>
    83f40822:	02f577d3          	fadd.d	fa5,fa0,fa5
    83f40826:	f2000753          	fmv.d.x	fa4,zero
    83f4082a:	a2f717d3          	flt.d	a5,fa4,fa5
    83f4082e:	dfe1                	beqz	a5,83f40806 <ceil+0x6c>
    83f40830:	0808cb63          	bltz	a7,83f408c6 <ceil+0x12c>
    83f40834:	00a8e6b3          	or	a3,a7,a0
    83f40838:	4501                	li	a0,0
    83f4083a:	3ff008b7          	lui	a7,0x3ff00
    83f4083e:	f6e1                	bnez	a3,83f40806 <ceil+0x6c>
    83f40840:	4881                	li	a7,0
    83f40842:	b7d1                	j	83f40806 <ceil+0x6c>
    83f40844:	03300613          	li	a2,51
    83f40848:	01065d63          	bge	a2,a6,83f40862 <ceil+0xc8>
    83f4084c:	40000713          	li	a4,1024
    83f40850:	e2050653          	fmv.x.d	a2,fa0
    83f40854:	fce810e3          	bne	a6,a4,83f40814 <ceil+0x7a>
    83f40858:	02a577d3          	fadd.d	fa5,fa0,fa0
    83f4085c:	e2078653          	fmv.x.d	a2,fa5
    83f40860:	bf55                	j	83f40814 <ceil+0x7a>
    83f40862:	567d                	li	a2,-1
    83f40864:	bed7071b          	addiw	a4,a4,-1043
    83f40868:	00e6573b          	srlw	a4,a2,a4
    83f4086c:	00e57e33          	and	t3,a0,a4
    83f40870:	2e01                	sext.w	t3,t3
    83f40872:	e2050653          	fmv.x.d	a2,fa0
    83f40876:	f80e0fe3          	beqz	t3,83f40814 <ceil+0x7a>
    83f4087a:	00012617          	auipc	a2,0x12
    83f4087e:	c2663787          	fld	fa5,-986(a2) # 83f524a0 <xISRStackTop+0x10>
    83f40882:	02f577d3          	fadd.d	fa5,fa0,fa5
    83f40886:	f2000753          	fmv.d.x	fa4,zero
    83f4088a:	a2f717d3          	flt.d	a5,fa4,fa5
    83f4088e:	dfa5                	beqz	a5,83f40806 <ceil+0x6c>
    83f40890:	03105263          	blez	a7,83f408b4 <ceil+0x11a>
    83f40894:	47d1                	li	a5,20
    83f40896:	02f80663          	beq	a6,a5,83f408c2 <ceil+0x128>
    83f4089a:	03400793          	li	a5,52
    83f4089e:	410787bb          	subw	a5,a5,a6
    83f408a2:	4585                	li	a1,1
    83f408a4:	00f595bb          	sllw	a1,a1,a5
    83f408a8:	00a586bb          	addw	a3,a1,a0
    83f408ac:	02a6f163          	bgeu	a3,a0,83f408ce <ceil+0x134>
    83f408b0:	2885                	addiw	a7,a7,1
    83f408b2:	8536                	mv	a0,a3
    83f408b4:	fff74713          	not	a4,a4
    83f408b8:	00a777b3          	and	a5,a4,a0
    83f408bc:	0007851b          	sext.w	a0,a5
    83f408c0:	b799                	j	83f40806 <ceil+0x6c>
    83f408c2:	2885                	addiw	a7,a7,1
    83f408c4:	bfc5                	j	83f408b4 <ceil+0x11a>
    83f408c6:	4501                	li	a0,0
    83f408c8:	800008b7          	lui	a7,0x80000
    83f408cc:	bf2d                	j	83f40806 <ceil+0x6c>
    83f408ce:	8536                	mv	a0,a3
    83f408d0:	b7d5                	j	83f408b4 <ceil+0x11a>

0000000083f408d2 <cos>:
    83f408d2:	e20507d3          	fmv.x.d	a5,fa0
    83f408d6:	3fe926b7          	lui	a3,0x3fe92
    83f408da:	1fb68693          	addi	a3,a3,507 # 3fe921fb <CVIMMAP_DRAM_SIZE+0x3be921fb>
    83f408de:	00179713          	slli	a4,a5,0x1
    83f408e2:	9305                	srli	a4,a4,0x21
    83f408e4:	02e6de63          	bge	a3,a4,83f40920 <cos+0x4e>
    83f408e8:	7ff006b7          	lui	a3,0x7ff00
    83f408ec:	00d74563          	blt	a4,a3,83f408f6 <cos+0x24>
    83f408f0:	0aa57553          	fsub.d	fa0,fa0,fa0
    83f408f4:	8082                	ret
    83f408f6:	1101                	addi	sp,sp,-32
    83f408f8:	850a                	mv	a0,sp
    83f408fa:	ec06                	sd	ra,24(sp)
    83f408fc:	372010ef          	jal	ra,83f41c6e <__ieee754_rem_pio2>
    83f40900:	890d                	andi	a0,a0,3
    83f40902:	4785                	li	a5,1
    83f40904:	02f50263          	beq	a0,a5,83f40928 <cos+0x56>
    83f40908:	4789                	li	a5,2
    83f4090a:	25a2                	fld	fa1,8(sp)
    83f4090c:	2502                	fld	fa0,0(sp)
    83f4090e:	02f50863          	beq	a0,a5,83f4093e <cos+0x6c>
    83f40912:	c11d                	beqz	a0,83f40938 <cos+0x66>
    83f40914:	4505                	li	a0,1
    83f40916:	09a020ef          	jal	ra,83f429b0 <__kernel_sin>
    83f4091a:	60e2                	ld	ra,24(sp)
    83f4091c:	6105                	addi	sp,sp,32
    83f4091e:	8082                	ret
    83f40920:	f20005d3          	fmv.d.x	fa1,zero
    83f40924:	7ec0106f          	j	83f42110 <__kernel_cos>
    83f40928:	25a2                	fld	fa1,8(sp)
    83f4092a:	2502                	fld	fa0,0(sp)
    83f4092c:	4505                	li	a0,1
    83f4092e:	082020ef          	jal	ra,83f429b0 <__kernel_sin>
    83f40932:	22a51553          	fneg.d	fa0,fa0
    83f40936:	b7d5                	j	83f4091a <cos+0x48>
    83f40938:	7d8010ef          	jal	ra,83f42110 <__kernel_cos>
    83f4093c:	bff9                	j	83f4091a <cos+0x48>
    83f4093e:	7d2010ef          	jal	ra,83f42110 <__kernel_cos>
    83f40942:	22a51553          	fneg.d	fa0,fa0
    83f40946:	bfd1                	j	83f4091a <cos+0x48>

0000000083f40948 <fabs>:
    83f40948:	e20506d3          	fmv.x.d	a3,fa0
    83f4094c:	57fd                	li	a5,-1
    83f4094e:	9381                	srli	a5,a5,0x20
    83f40950:	00169713          	slli	a4,a3,0x1
    83f40954:	9305                	srli	a4,a4,0x21
    83f40956:	1702                	slli	a4,a4,0x20
    83f40958:	8ff5                	and	a5,a5,a3
    83f4095a:	8fd9                	or	a5,a5,a4
    83f4095c:	f2078553          	fmv.d.x	fa0,a5
    83f40960:	8082                	ret

0000000083f40962 <floor>:
    83f40962:	e20507d3          	fmv.x.d	a5,fa0
    83f40966:	464d                	li	a2,19
    83f40968:	4347d713          	srai	a4,a5,0x34
    83f4096c:	7ff77713          	andi	a4,a4,2047
    83f40970:	c017081b          	addiw	a6,a4,-1023
    83f40974:	4207d893          	srai	a7,a5,0x20
    83f40978:	0007851b          	sext.w	a0,a5
    83f4097c:	09064363          	blt	a2,a6,83f40a02 <floor+0xa0>
    83f40980:	06084163          	bltz	a6,83f409e2 <floor+0x80>
    83f40984:	001005b7          	lui	a1,0x100
    83f40988:	fff5869b          	addiw	a3,a1,-1
    83f4098c:	4106d6bb          	sraw	a3,a3,a6
    83f40990:	00d8f733          	and	a4,a7,a3
    83f40994:	8f49                	or	a4,a4,a0
    83f40996:	2701                	sext.w	a4,a4
    83f40998:	e2050653          	fmv.x.d	a2,fa0
    83f4099c:	c321                	beqz	a4,83f409dc <floor+0x7a>
    83f4099e:	00012717          	auipc	a4,0x12
    83f409a2:	b0273787          	fld	fa5,-1278(a4) # 83f524a0 <xISRStackTop+0x10>
    83f409a6:	02f577d3          	fadd.d	fa5,fa0,fa5
    83f409aa:	f2000753          	fmv.d.x	fa4,zero
    83f409ae:	a2f717d3          	flt.d	a5,fa4,fa5
    83f409b2:	cf91                	beqz	a5,83f409ce <floor+0x6c>
    83f409b4:	0008d663          	bgez	a7,83f409c0 <floor+0x5e>
    83f409b8:	4105d73b          	sraw	a4,a1,a6
    83f409bc:	011708bb          	addw	a7,a4,a7
    83f409c0:	fff6c713          	not	a4,a3
    83f409c4:	01177733          	and	a4,a4,a7
    83f409c8:	0007089b          	sext.w	a7,a4
    83f409cc:	4501                	li	a0,0
    83f409ce:	02051793          	slli	a5,a0,0x20
    83f409d2:	9381                	srli	a5,a5,0x20
    83f409d4:	02089713          	slli	a4,a7,0x20
    83f409d8:	00f76633          	or	a2,a4,a5
    83f409dc:	f2060553          	fmv.d.x	fa0,a2
    83f409e0:	8082                	ret
    83f409e2:	00012717          	auipc	a4,0x12
    83f409e6:	abe73787          	fld	fa5,-1346(a4) # 83f524a0 <xISRStackTop+0x10>
    83f409ea:	02f577d3          	fadd.d	fa5,fa0,fa5
    83f409ee:	f2000753          	fmv.d.x	fa4,zero
    83f409f2:	a2f717d3          	flt.d	a5,fa4,fa5
    83f409f6:	dfe1                	beqz	a5,83f409ce <floor+0x6c>
    83f409f8:	0608c463          	bltz	a7,83f40a60 <floor+0xfe>
    83f409fc:	4501                	li	a0,0
    83f409fe:	4881                	li	a7,0
    83f40a00:	b7f9                	j	83f409ce <floor+0x6c>
    83f40a02:	03300613          	li	a2,51
    83f40a06:	01065d63          	bge	a2,a6,83f40a20 <floor+0xbe>
    83f40a0a:	40000713          	li	a4,1024
    83f40a0e:	e2050653          	fmv.x.d	a2,fa0
    83f40a12:	fce815e3          	bne	a6,a4,83f409dc <floor+0x7a>
    83f40a16:	02a577d3          	fadd.d	fa5,fa0,fa0
    83f40a1a:	e2078653          	fmv.x.d	a2,fa5
    83f40a1e:	bf7d                	j	83f409dc <floor+0x7a>
    83f40a20:	567d                	li	a2,-1
    83f40a22:	bed7071b          	addiw	a4,a4,-1043
    83f40a26:	00e6573b          	srlw	a4,a2,a4
    83f40a2a:	00e57e33          	and	t3,a0,a4
    83f40a2e:	2e01                	sext.w	t3,t3
    83f40a30:	e2050653          	fmv.x.d	a2,fa0
    83f40a34:	fa0e04e3          	beqz	t3,83f409dc <floor+0x7a>
    83f40a38:	00012617          	auipc	a2,0x12
    83f40a3c:	a6863787          	fld	fa5,-1432(a2) # 83f524a0 <xISRStackTop+0x10>
    83f40a40:	02f577d3          	fadd.d	fa5,fa0,fa5
    83f40a44:	f2000753          	fmv.d.x	fa4,zero
    83f40a48:	a2f717d3          	flt.d	a5,fa4,fa5
    83f40a4c:	d3c9                	beqz	a5,83f409ce <floor+0x6c>
    83f40a4e:	0208c463          	bltz	a7,83f40a76 <floor+0x114>
    83f40a52:	fff74713          	not	a4,a4
    83f40a56:	00a777b3          	and	a5,a4,a0
    83f40a5a:	0007851b          	sext.w	a0,a5
    83f40a5e:	bf85                	j	83f409ce <floor+0x6c>
    83f40a60:	02189313          	slli	t1,a7,0x21
    83f40a64:	02135313          	srli	t1,t1,0x21
    83f40a68:	006566b3          	or	a3,a0,t1
    83f40a6c:	4501                	li	a0,0
    83f40a6e:	d2a5                	beqz	a3,83f409ce <floor+0x6c>
    83f40a70:	bff008b7          	lui	a7,0xbff00
    83f40a74:	bfa9                	j	83f409ce <floor+0x6c>
    83f40a76:	47d1                	li	a5,20
    83f40a78:	02f80063          	beq	a6,a5,83f40a98 <floor+0x136>
    83f40a7c:	03400793          	li	a5,52
    83f40a80:	410787bb          	subw	a5,a5,a6
    83f40a84:	4585                	li	a1,1
    83f40a86:	00f595bb          	sllw	a1,a1,a5
    83f40a8a:	00a586bb          	addw	a3,a1,a0
    83f40a8e:	00a6f763          	bgeu	a3,a0,83f40a9c <floor+0x13a>
    83f40a92:	2885                	addiw	a7,a7,1
    83f40a94:	8536                	mv	a0,a3
    83f40a96:	bf75                	j	83f40a52 <floor+0xf0>
    83f40a98:	2885                	addiw	a7,a7,1
    83f40a9a:	bf65                	j	83f40a52 <floor+0xf0>
    83f40a9c:	8536                	mv	a0,a3
    83f40a9e:	bf55                	j	83f40a52 <floor+0xf0>

0000000083f40aa0 <round>:
    83f40aa0:	e20507d3          	fmv.x.d	a5,fa0
    83f40aa4:	484d                	li	a6,19
    83f40aa6:	4347d693          	srai	a3,a5,0x34
    83f40aaa:	7ff6f693          	andi	a3,a3,2047
    83f40aae:	c016861b          	addiw	a2,a3,-1023
    83f40ab2:	4207d713          	srai	a4,a5,0x20
    83f40ab6:	8532                	mv	a0,a2
    83f40ab8:	88ba                	mv	a7,a4
    83f40aba:	0007859b          	sext.w	a1,a5
    83f40abe:	04c84c63          	blt	a6,a2,83f40b16 <round+0x76>
    83f40ac2:	02064e63          	bltz	a2,83f40afe <round+0x5e>
    83f40ac6:	001006b7          	lui	a3,0x100
    83f40aca:	36fd                	addiw	a3,a3,-1
    83f40acc:	40c6d6bb          	sraw	a3,a3,a2
    83f40ad0:	8f75                	and	a4,a4,a3
    83f40ad2:	8dd9                	or	a1,a1,a4
    83f40ad4:	2581                	sext.w	a1,a1
    83f40ad6:	c18d                	beqz	a1,83f40af8 <round+0x58>
    83f40ad8:	00080737          	lui	a4,0x80
    83f40adc:	40c7573b          	sraw	a4,a4,a2
    83f40ae0:	011708bb          	addw	a7,a4,a7
    83f40ae4:	fff6c713          	not	a4,a3
    83f40ae8:	01177733          	and	a4,a4,a7
    83f40aec:	2701                	sext.w	a4,a4
    83f40aee:	4781                	li	a5,0
    83f40af0:	1782                	slli	a5,a5,0x20
    83f40af2:	9381                	srli	a5,a5,0x20
    83f40af4:	1702                	slli	a4,a4,0x20
    83f40af6:	8fd9                	or	a5,a5,a4
    83f40af8:	f2078553          	fmv.d.x	fa0,a5
    83f40afc:	8082                	ret
    83f40afe:	80000737          	lui	a4,0x80000
    83f40b02:	57fd                	li	a5,-1
    83f40b04:	00e8f733          	and	a4,a7,a4
    83f40b08:	fef612e3          	bne	a2,a5,83f40aec <round+0x4c>
    83f40b0c:	3ff007b7          	lui	a5,0x3ff00
    83f40b10:	8f5d                	or	a4,a4,a5
    83f40b12:	4781                	li	a5,0
    83f40b14:	bff1                	j	83f40af0 <round+0x50>
    83f40b16:	03300813          	li	a6,51
    83f40b1a:	00c85b63          	bge	a6,a2,83f40b30 <round+0x90>
    83f40b1e:	40000713          	li	a4,1024
    83f40b22:	fce61be3          	bne	a2,a4,83f40af8 <round+0x58>
    83f40b26:	02a577d3          	fadd.d	fa5,fa0,fa0
    83f40b2a:	e20787d3          	fmv.x.d	a5,fa5
    83f40b2e:	b7e9                	j	83f40af8 <round+0x58>
    83f40b30:	567d                	li	a2,-1
    83f40b32:	bed6869b          	addiw	a3,a3,-1043
    83f40b36:	00d656bb          	srlw	a3,a2,a3
    83f40b3a:	00d5f633          	and	a2,a1,a3
    83f40b3e:	2601                	sext.w	a2,a2
    83f40b40:	de45                	beqz	a2,83f40af8 <round+0x58>
    83f40b42:	03300793          	li	a5,51
    83f40b46:	40a7853b          	subw	a0,a5,a0
    83f40b4a:	4785                	li	a5,1
    83f40b4c:	00a797bb          	sllw	a5,a5,a0
    83f40b50:	9fad                	addw	a5,a5,a1
    83f40b52:	0007861b          	sext.w	a2,a5
    83f40b56:	00b67363          	bgeu	a2,a1,83f40b5c <round+0xbc>
    83f40b5a:	2705                	addiw	a4,a4,1
    83f40b5c:	fff6c693          	not	a3,a3
    83f40b60:	8ff5                	and	a5,a5,a3
    83f40b62:	2781                	sext.w	a5,a5
    83f40b64:	b771                	j	83f40af0 <round+0x50>

0000000083f40b66 <sin>:
    83f40b66:	e20507d3          	fmv.x.d	a5,fa0
    83f40b6a:	3fe926b7          	lui	a3,0x3fe92
    83f40b6e:	1fb68693          	addi	a3,a3,507 # 3fe921fb <CVIMMAP_DRAM_SIZE+0x3be921fb>
    83f40b72:	00179713          	slli	a4,a5,0x1
    83f40b76:	9305                	srli	a4,a4,0x21
    83f40b78:	02e6df63          	bge	a3,a4,83f40bb6 <sin+0x50>
    83f40b7c:	7ff006b7          	lui	a3,0x7ff00
    83f40b80:	00d74563          	blt	a4,a3,83f40b8a <sin+0x24>
    83f40b84:	0aa57553          	fsub.d	fa0,fa0,fa0
    83f40b88:	8082                	ret
    83f40b8a:	1101                	addi	sp,sp,-32
    83f40b8c:	850a                	mv	a0,sp
    83f40b8e:	ec06                	sd	ra,24(sp)
    83f40b90:	0de010ef          	jal	ra,83f41c6e <__ieee754_rem_pio2>
    83f40b94:	890d                	andi	a0,a0,3
    83f40b96:	4785                	li	a5,1
    83f40b98:	02f50463          	beq	a0,a5,83f40bc0 <sin+0x5a>
    83f40b9c:	4789                	li	a5,2
    83f40b9e:	25a2                	fld	fa1,8(sp)
    83f40ba0:	2502                	fld	fa0,0(sp)
    83f40ba2:	02f50863          	beq	a0,a5,83f40bd2 <sin+0x6c>
    83f40ba6:	c115                	beqz	a0,83f40bca <sin+0x64>
    83f40ba8:	568010ef          	jal	ra,83f42110 <__kernel_cos>
    83f40bac:	22a51553          	fneg.d	fa0,fa0
    83f40bb0:	60e2                	ld	ra,24(sp)
    83f40bb2:	6105                	addi	sp,sp,32
    83f40bb4:	8082                	ret
    83f40bb6:	f20005d3          	fmv.d.x	fa1,zero
    83f40bba:	4501                	li	a0,0
    83f40bbc:	5f50106f          	j	83f429b0 <__kernel_sin>
    83f40bc0:	25a2                	fld	fa1,8(sp)
    83f40bc2:	2502                	fld	fa0,0(sp)
    83f40bc4:	54c010ef          	jal	ra,83f42110 <__kernel_cos>
    83f40bc8:	b7e5                	j	83f40bb0 <sin+0x4a>
    83f40bca:	4505                	li	a0,1
    83f40bcc:	5e5010ef          	jal	ra,83f429b0 <__kernel_sin>
    83f40bd0:	b7c5                	j	83f40bb0 <sin+0x4a>
    83f40bd2:	4505                	li	a0,1
    83f40bd4:	5dd010ef          	jal	ra,83f429b0 <__kernel_sin>
    83f40bd8:	22a51553          	fneg.d	fa0,fa0
    83f40bdc:	bfd1                	j	83f40bb0 <sin+0x4a>

0000000083f40bde <atan2>:
    83f40bde:	a495                	j	83f40e42 <__ieee754_atan2>

0000000083f40be0 <exp>:
    83f40be0:	1101                	addi	sp,sp,-32
    83f40be2:	a422                	fsd	fs0,8(sp)
    83f40be4:	a026                	fsd	fs1,0(sp)
    83f40be6:	22a50453          	fmv.d	fs0,fa0
    83f40bea:	ec06                	sd	ra,24(sp)
    83f40bec:	440000ef          	jal	ra,83f4102c <__ieee754_exp>
    83f40bf0:	0001f717          	auipc	a4,0x1f
    83f40bf4:	fb072703          	lw	a4,-80(a4) # 83f5fba0 <__fdlib_version>
    83f40bf8:	57fd                	li	a5,-1
    83f40bfa:	22a504d3          	fmv.d	fs1,fa0
    83f40bfe:	02f70563          	beq	a4,a5,83f40c28 <exp+0x48>
    83f40c02:	22840553          	fmv.d	fa0,fs0
    83f40c06:	64f010ef          	jal	ra,83f42a54 <finite>
    83f40c0a:	cd19                	beqz	a0,83f40c28 <exp+0x48>
    83f40c0c:	00012797          	auipc	a5,0x12
    83f40c10:	9147b787          	fld	fa5,-1772(a5) # 83f52520 <xISRStackTop+0x90>
    83f40c14:	a28797d3          	flt.d	a5,fa5,fs0
    83f40c18:	e79d                	bnez	a5,83f40c46 <exp+0x66>
    83f40c1a:	00012797          	auipc	a5,0x12
    83f40c1e:	90e7b787          	fld	fa5,-1778(a5) # 83f52528 <xISRStackTop+0x98>
    83f40c22:	a2f417d3          	flt.d	a5,fs0,fa5
    83f40c26:	eb81                	bnez	a5,83f40c36 <exp+0x56>
    83f40c28:	60e2                	ld	ra,24(sp)
    83f40c2a:	22948553          	fmv.d	fa0,fs1
    83f40c2e:	2422                	fld	fs0,8(sp)
    83f40c30:	2482                	fld	fs1,0(sp)
    83f40c32:	6105                	addi	sp,sp,32
    83f40c34:	8082                	ret
    83f40c36:	0da020ef          	jal	ra,83f42d10 <__errno>
    83f40c3a:	02200793          	li	a5,34
    83f40c3e:	f20004d3          	fmv.d.x	fs1,zero
    83f40c42:	c11c                	sw	a5,0(a0)
    83f40c44:	b7d5                	j	83f40c28 <exp+0x48>
    83f40c46:	0ca020ef          	jal	ra,83f42d10 <__errno>
    83f40c4a:	02200793          	li	a5,34
    83f40c4e:	c11c                	sw	a5,0(a0)
    83f40c50:	00012797          	auipc	a5,0x12
    83f40c54:	8c87b487          	fld	fs1,-1848(a5) # 83f52518 <xISRStackTop+0x88>
    83f40c58:	bfc1                	j	83f40c28 <exp+0x48>

0000000083f40c5a <log>:
    83f40c5a:	1101                	addi	sp,sp,-32
    83f40c5c:	a422                	fsd	fs0,8(sp)
    83f40c5e:	ec06                	sd	ra,24(sp)
    83f40c60:	22a50453          	fmv.d	fs0,fa0
    83f40c64:	646000ef          	jal	ra,83f412aa <__ieee754_log>
    83f40c68:	0001f717          	auipc	a4,0x1f
    83f40c6c:	f3872703          	lw	a4,-200(a4) # 83f5fba0 <__fdlib_version>
    83f40c70:	57fd                	li	a5,-1
    83f40c72:	02f70663          	beq	a4,a5,83f40c9e <log+0x44>
    83f40c76:	a28427d3          	feq.d	a5,fs0,fs0
    83f40c7a:	c395                	beqz	a5,83f40c9e <log+0x44>
    83f40c7c:	f20007d3          	fmv.d.x	fa5,zero
    83f40c80:	a28797d3          	flt.d	a5,fa5,fs0
    83f40c84:	ef89                	bnez	a5,83f40c9e <log+0x44>
    83f40c86:	a2f427d3          	feq.d	a5,fs0,fa5
    83f40c8a:	cf91                	beqz	a5,83f40ca6 <log+0x4c>
    83f40c8c:	084020ef          	jal	ra,83f42d10 <__errno>
    83f40c90:	02200793          	li	a5,34
    83f40c94:	c11c                	sw	a5,0(a0)
    83f40c96:	00012797          	auipc	a5,0x12
    83f40c9a:	89a7b507          	fld	fa0,-1894(a5) # 83f52530 <xISRStackTop+0xa0>
    83f40c9e:	60e2                	ld	ra,24(sp)
    83f40ca0:	2422                	fld	fs0,8(sp)
    83f40ca2:	6105                	addi	sp,sp,32
    83f40ca4:	8082                	ret
    83f40ca6:	06a020ef          	jal	ra,83f42d10 <__errno>
    83f40caa:	60e2                	ld	ra,24(sp)
    83f40cac:	2422                	fld	fs0,8(sp)
    83f40cae:	02100793          	li	a5,33
    83f40cb2:	c11c                	sw	a5,0(a0)
    83f40cb4:	00011517          	auipc	a0,0x11
    83f40cb8:	53c50513          	addi	a0,a0,1340 # 83f521f0 <__func__.0+0x30>
    83f40cbc:	6105                	addi	sp,sp,32
    83f40cbe:	5ab0106f          	j	83f42a68 <nan>

0000000083f40cc2 <pow>:
    83f40cc2:	7179                	addi	sp,sp,-48
    83f40cc4:	ac22                	fsd	fs0,24(sp)
    83f40cc6:	a826                	fsd	fs1,16(sp)
    83f40cc8:	a44a                	fsd	fs2,8(sp)
    83f40cca:	22a504d3          	fmv.d	fs1,fa0
    83f40cce:	22b58453          	fmv.d	fs0,fa1
    83f40cd2:	f406                	sd	ra,40(sp)
    83f40cd4:	a04e                	fsd	fs3,0(sp)
    83f40cd6:	025000ef          	jal	ra,83f414fa <__ieee754_pow>
    83f40cda:	0001f717          	auipc	a4,0x1f
    83f40cde:	ec672703          	lw	a4,-314(a4) # 83f5fba0 <__fdlib_version>
    83f40ce2:	57fd                	li	a5,-1
    83f40ce4:	22a50953          	fmv.d	fs2,fa0
    83f40ce8:	02f70863          	beq	a4,a5,83f40d18 <pow+0x56>
    83f40cec:	a28427d3          	feq.d	a5,fs0,fs0
    83f40cf0:	c785                	beqz	a5,83f40d18 <pow+0x56>
    83f40cf2:	a294a7d3          	feq.d	a5,fs1,fs1
    83f40cf6:	c7a5                	beqz	a5,83f40d5e <pow+0x9c>
    83f40cf8:	f20009d3          	fmv.d.x	fs3,zero
    83f40cfc:	a334a7d3          	feq.d	a5,fs1,fs3
    83f40d00:	c78d                	beqz	a5,83f40d2a <pow+0x68>
    83f40d02:	a33427d3          	feq.d	a5,fs0,fs3
    83f40d06:	e3ad                	bnez	a5,83f40d68 <pow+0xa6>
    83f40d08:	22840553          	fmv.d	fa0,fs0
    83f40d0c:	549010ef          	jal	ra,83f42a54 <finite>
    83f40d10:	c501                	beqz	a0,83f40d18 <pow+0x56>
    83f40d12:	a33417d3          	flt.d	a5,fs0,fs3
    83f40d16:	e3c5                	bnez	a5,83f40db6 <pow+0xf4>
    83f40d18:	70a2                	ld	ra,40(sp)
    83f40d1a:	23290553          	fmv.d	fa0,fs2
    83f40d1e:	2462                	fld	fs0,24(sp)
    83f40d20:	24c2                	fld	fs1,16(sp)
    83f40d22:	2922                	fld	fs2,8(sp)
    83f40d24:	2982                	fld	fs3,0(sp)
    83f40d26:	6145                	addi	sp,sp,48
    83f40d28:	8082                	ret
    83f40d2a:	52b010ef          	jal	ra,83f42a54 <finite>
    83f40d2e:	c931                	beqz	a0,83f40d82 <pow+0xc0>
    83f40d30:	f20007d3          	fmv.d.x	fa5,zero
    83f40d34:	a2f927d3          	feq.d	a5,fs2,fa5
    83f40d38:	d3e5                	beqz	a5,83f40d18 <pow+0x56>
    83f40d3a:	22948553          	fmv.d	fa0,fs1
    83f40d3e:	517010ef          	jal	ra,83f42a54 <finite>
    83f40d42:	d979                	beqz	a0,83f40d18 <pow+0x56>
    83f40d44:	22840553          	fmv.d	fa0,fs0
    83f40d48:	50d010ef          	jal	ra,83f42a54 <finite>
    83f40d4c:	d571                	beqz	a0,83f40d18 <pow+0x56>
    83f40d4e:	7c3010ef          	jal	ra,83f42d10 <__errno>
    83f40d52:	02200793          	li	a5,34
    83f40d56:	f2000953          	fmv.d.x	fs2,zero
    83f40d5a:	c11c                	sw	a5,0(a0)
    83f40d5c:	bf75                	j	83f40d18 <pow+0x56>
    83f40d5e:	f20007d3          	fmv.d.x	fa5,zero
    83f40d62:	a2f427d3          	feq.d	a5,fs0,fa5
    83f40d66:	dbcd                	beqz	a5,83f40d18 <pow+0x56>
    83f40d68:	70a2                	ld	ra,40(sp)
    83f40d6a:	00011797          	auipc	a5,0x11
    83f40d6e:	5a67b907          	fld	fs2,1446(a5) # 83f52310 <__func__.1+0x118>
    83f40d72:	23290553          	fmv.d	fa0,fs2
    83f40d76:	2462                	fld	fs0,24(sp)
    83f40d78:	24c2                	fld	fs1,16(sp)
    83f40d7a:	2922                	fld	fs2,8(sp)
    83f40d7c:	2982                	fld	fs3,0(sp)
    83f40d7e:	6145                	addi	sp,sp,48
    83f40d80:	8082                	ret
    83f40d82:	22948553          	fmv.d	fa0,fs1
    83f40d86:	4cf010ef          	jal	ra,83f42a54 <finite>
    83f40d8a:	d15d                	beqz	a0,83f40d30 <pow+0x6e>
    83f40d8c:	22840553          	fmv.d	fa0,fs0
    83f40d90:	4c5010ef          	jal	ra,83f42a54 <finite>
    83f40d94:	dd51                	beqz	a0,83f40d30 <pow+0x6e>
    83f40d96:	a32927d3          	feq.d	a5,fs2,fs2
    83f40d9a:	c7a1                	beqz	a5,83f40de2 <pow+0x120>
    83f40d9c:	775010ef          	jal	ra,83f42d10 <__errno>
    83f40da0:	a33497d3          	flt.d	a5,fs1,fs3
    83f40da4:	02200713          	li	a4,34
    83f40da8:	c118                	sw	a4,0(a0)
    83f40daa:	e385                	bnez	a5,83f40dca <pow+0x108>
    83f40dac:	00011797          	auipc	a5,0x11
    83f40db0:	76c7b907          	fld	fs2,1900(a5) # 83f52518 <xISRStackTop+0x88>
    83f40db4:	b795                	j	83f40d18 <pow+0x56>
    83f40db6:	75b010ef          	jal	ra,83f42d10 <__errno>
    83f40dba:	02100793          	li	a5,33
    83f40dbe:	c11c                	sw	a5,0(a0)
    83f40dc0:	00011797          	auipc	a5,0x11
    83f40dc4:	7707b907          	fld	fs2,1904(a5) # 83f52530 <xISRStackTop+0xa0>
    83f40dc8:	bf81                	j	83f40d18 <pow+0x56>
    83f40dca:	22840553          	fmv.d	fa0,fs0
    83f40dce:	4a5010ef          	jal	ra,83f42a72 <rint>
    83f40dd2:	a28527d3          	feq.d	a5,fa0,fs0
    83f40dd6:	fbf9                	bnez	a5,83f40dac <pow+0xea>
    83f40dd8:	00011797          	auipc	a5,0x11
    83f40ddc:	7587b907          	fld	fs2,1880(a5) # 83f52530 <xISRStackTop+0xa0>
    83f40de0:	bf25                	j	83f40d18 <pow+0x56>
    83f40de2:	72f010ef          	jal	ra,83f42d10 <__errno>
    83f40de6:	02100793          	li	a5,33
    83f40dea:	1b39f953          	fdiv.d	fs2,fs3,fs3
    83f40dee:	c11c                	sw	a5,0(a0)
    83f40df0:	b725                	j	83f40d18 <pow+0x56>

0000000083f40df2 <sqrt>:
    83f40df2:	1101                	addi	sp,sp,-32
    83f40df4:	a422                	fsd	fs0,8(sp)
    83f40df6:	ec06                	sd	ra,24(sp)
    83f40df8:	22a50453          	fmv.d	fs0,fa0
    83f40dfc:	a026                	fsd	fs1,0(sp)
    83f40dfe:	136010ef          	jal	ra,83f41f34 <__ieee754_sqrt>
    83f40e02:	0001f717          	auipc	a4,0x1f
    83f40e06:	d9e72703          	lw	a4,-610(a4) # 83f5fba0 <__fdlib_version>
    83f40e0a:	57fd                	li	a5,-1
    83f40e0c:	00f70a63          	beq	a4,a5,83f40e20 <sqrt+0x2e>
    83f40e10:	a28427d3          	feq.d	a5,fs0,fs0
    83f40e14:	c791                	beqz	a5,83f40e20 <sqrt+0x2e>
    83f40e16:	f20004d3          	fmv.d.x	fs1,zero
    83f40e1a:	a29417d3          	flt.d	a5,fs0,fs1
    83f40e1e:	e791                	bnez	a5,83f40e2a <sqrt+0x38>
    83f40e20:	60e2                	ld	ra,24(sp)
    83f40e22:	2422                	fld	fs0,8(sp)
    83f40e24:	2482                	fld	fs1,0(sp)
    83f40e26:	6105                	addi	sp,sp,32
    83f40e28:	8082                	ret
    83f40e2a:	6e7010ef          	jal	ra,83f42d10 <__errno>
    83f40e2e:	60e2                	ld	ra,24(sp)
    83f40e30:	02100793          	li	a5,33
    83f40e34:	c11c                	sw	a5,0(a0)
    83f40e36:	1a94f553          	fdiv.d	fa0,fs1,fs1
    83f40e3a:	2422                	fld	fs0,8(sp)
    83f40e3c:	2482                	fld	fs1,0(sp)
    83f40e3e:	6105                	addi	sp,sp,32
    83f40e40:	8082                	ret

0000000083f40e42 <__ieee754_atan2>:
    83f40e42:	e2058653          	fmv.x.d	a2,fa1
    83f40e46:	80000737          	lui	a4,0x80000
    83f40e4a:	fff74713          	not	a4,a4
    83f40e4e:	0006051b          	sext.w	a0,a2
    83f40e52:	40c007bb          	negw	a5,a2
    83f40e56:	42065593          	srai	a1,a2,0x20
    83f40e5a:	8fc9                	or	a5,a5,a0
    83f40e5c:	00e5f8b3          	and	a7,a1,a4
    83f40e60:	01f7d79b          	srliw	a5,a5,0x1f
    83f40e64:	00f8e7b3          	or	a5,a7,a5
    83f40e68:	7ff00837          	lui	a6,0x7ff00
    83f40e6c:	2781                	sext.w	a5,a5
    83f40e6e:	e20506d3          	fmv.x.d	a3,fa0
    83f40e72:	06f86c63          	bltu	a6,a5,83f40eea <__ieee754_atan2+0xa8>
    83f40e76:	4206de13          	srai	t3,a3,0x20
    83f40e7a:	00068e9b          	sext.w	t4,a3
    83f40e7e:	40d007bb          	negw	a5,a3
    83f40e82:	00ee7733          	and	a4,t3,a4
    83f40e86:	00fee7b3          	or	a5,t4,a5
    83f40e8a:	00070f9b          	sext.w	t6,a4
    83f40e8e:	01f7d79b          	srliw	a5,a5,0x1f
    83f40e92:	00ffe7b3          	or	a5,t6,a5
    83f40e96:	2781                	sext.w	a5,a5
    83f40e98:	04f86963          	bltu	a6,a5,83f40eea <__ieee754_atan2+0xa8>
    83f40e9c:	c01007b7          	lui	a5,0xc0100
    83f40ea0:	9fad                	addw	a5,a5,a1
    83f40ea2:	8fc9                	or	a5,a5,a0
    83f40ea4:	2781                	sext.w	a5,a5
    83f40ea6:	c7f9                	beqz	a5,83f40f74 <__ieee754_atan2+0x132>
    83f40ea8:	1141                	addi	sp,sp,-16
    83f40eaa:	e022                	sd	s0,0(sp)
    83f40eac:	41e5d41b          	sraiw	s0,a1,0x1e
    83f40eb0:	8809                	andi	s0,s0,2
    83f40eb2:	01fe5f1b          	srliw	t5,t3,0x1f
    83f40eb6:	01e46433          	or	s0,s0,t5
    83f40eba:	e406                	sd	ra,8(sp)
    83f40ebc:	01feeeb3          	or	t4,t4,t6
    83f40ec0:	2401                	sext.w	s0,s0
    83f40ec2:	020e9d63          	bnez	t4,83f40efc <__ieee754_atan2+0xba>
    83f40ec6:	4789                	li	a5,2
    83f40ec8:	0af40f63          	beq	s0,a5,83f40f86 <__ieee754_atan2+0x144>
    83f40ecc:	470d                	li	a4,3
    83f40ece:	e20507d3          	fmv.x.d	a5,fa0
    83f40ed2:	00e41663          	bne	s0,a4,83f40ede <__ieee754_atan2+0x9c>
    83f40ed6:	00011797          	auipc	a5,0x11
    83f40eda:	6627b783          	ld	a5,1634(a5) # 83f52538 <xISRStackTop+0xa8>
    83f40ede:	60a2                	ld	ra,8(sp)
    83f40ee0:	6402                	ld	s0,0(sp)
    83f40ee2:	f2078553          	fmv.d.x	fa0,a5
    83f40ee6:	0141                	addi	sp,sp,16
    83f40ee8:	8082                	ret
    83f40eea:	f20607d3          	fmv.d.x	fa5,a2
    83f40eee:	f2068753          	fmv.d.x	fa4,a3
    83f40ef2:	02e7f7d3          	fadd.d	fa5,fa5,fa4
    83f40ef6:	22f78553          	fmv.d	fa0,fa5
    83f40efa:	8082                	ret
    83f40efc:	01156533          	or	a0,a0,a7
    83f40f00:	2501                	sext.w	a0,a0
    83f40f02:	c93d                	beqz	a0,83f40f78 <__ieee754_atan2+0x136>
    83f40f04:	0b088063          	beq	a7,a6,83f40fa4 <__ieee754_atan2+0x162>
    83f40f08:	070f8863          	beq	t6,a6,83f40f78 <__ieee754_atan2+0x136>
    83f40f0c:	411f873b          	subw	a4,t6,a7
    83f40f10:	4147571b          	sraiw	a4,a4,0x14
    83f40f14:	03c00793          	li	a5,60
    83f40f18:	08e7c163          	blt	a5,a4,83f40f9a <__ieee754_atan2+0x158>
    83f40f1c:	0005d863          	bgez	a1,83f40f2c <__ieee754_atan2+0xea>
    83f40f20:	fc400593          	li	a1,-60
    83f40f24:	00000793          	li	a5,0
    83f40f28:	00b74e63          	blt	a4,a1,83f40f44 <__ieee754_atan2+0x102>
    83f40f2c:	f20687d3          	fmv.d.x	fa5,a3
    83f40f30:	f2060753          	fmv.d.x	fa4,a2
    83f40f34:	1ae7f553          	fdiv.d	fa0,fa5,fa4
    83f40f38:	a11ff0ef          	jal	ra,83f40948 <fabs>
    83f40f3c:	e54ff0ef          	jal	ra,83f40590 <atan>
    83f40f40:	e20507d3          	fmv.x.d	a5,fa0
    83f40f44:	4705                	li	a4,1
    83f40f46:	0ae40563          	beq	s0,a4,83f40ff0 <__ieee754_atan2+0x1ae>
    83f40f4a:	4709                	li	a4,2
    83f40f4c:	08e40163          	beq	s0,a4,83f40fce <__ieee754_atan2+0x18c>
    83f40f50:	d459                	beqz	s0,83f40ede <__ieee754_atan2+0x9c>
    83f40f52:	f2078753          	fmv.d.x	fa4,a5
    83f40f56:	00011717          	auipc	a4,0x11
    83f40f5a:	5fa73787          	fld	fa5,1530(a4) # 83f52550 <xISRStackTop+0xc0>
    83f40f5e:	0af777d3          	fsub.d	fa5,fa4,fa5
    83f40f62:	00011797          	auipc	a5,0x11
    83f40f66:	5de7b707          	fld	fa4,1502(a5) # 83f52540 <xISRStackTop+0xb0>
    83f40f6a:	0ae7f7d3          	fsub.d	fa5,fa5,fa4
    83f40f6e:	e20787d3          	fmv.x.d	a5,fa5
    83f40f72:	b7b5                	j	83f40ede <__ieee754_atan2+0x9c>
    83f40f74:	e1cff06f          	j	83f40590 <atan>
    83f40f78:	000e4c63          	bltz	t3,83f40f90 <__ieee754_atan2+0x14e>
    83f40f7c:	00011797          	auipc	a5,0x11
    83f40f80:	48c7b783          	ld	a5,1164(a5) # 83f52408 <__func__.1+0x210>
    83f40f84:	bfa9                	j	83f40ede <__ieee754_atan2+0x9c>
    83f40f86:	00011797          	auipc	a5,0x11
    83f40f8a:	5ba7b783          	ld	a5,1466(a5) # 83f52540 <xISRStackTop+0xb0>
    83f40f8e:	bf81                	j	83f40ede <__ieee754_atan2+0x9c>
    83f40f90:	00011797          	auipc	a5,0x11
    83f40f94:	5087b783          	ld	a5,1288(a5) # 83f52498 <xISRStackTop+0x8>
    83f40f98:	b799                	j	83f40ede <__ieee754_atan2+0x9c>
    83f40f9a:	00011797          	auipc	a5,0x11
    83f40f9e:	46e7b783          	ld	a5,1134(a5) # 83f52408 <__func__.1+0x210>
    83f40fa2:	b74d                	j	83f40f44 <__ieee754_atan2+0x102>
    83f40fa4:	347d                	addiw	s0,s0,-1
    83f40fa6:	0004069b          	sext.w	a3,s0
    83f40faa:	051f8e63          	beq	t6,a7,83f41006 <__ieee754_atan2+0x1c4>
    83f40fae:	4709                	li	a4,2
    83f40fb0:	00000793          	li	a5,0
    83f40fb4:	f2d765e3          	bltu	a4,a3,83f40ede <__ieee754_atan2+0x9c>
    83f40fb8:	02041793          	slli	a5,s0,0x20
    83f40fbc:	01d7d413          	srli	s0,a5,0x1d
    83f40fc0:	00010797          	auipc	a5,0x10
    83f40fc4:	a5878793          	addi	a5,a5,-1448 # 83f50a18 <CSWTCH.8>
    83f40fc8:	943e                	add	s0,s0,a5
    83f40fca:	6c1c                	ld	a5,24(s0)
    83f40fcc:	bf09                	j	83f40ede <__ieee754_atan2+0x9c>
    83f40fce:	f2078753          	fmv.d.x	fa4,a5
    83f40fd2:	00011717          	auipc	a4,0x11
    83f40fd6:	57e73787          	fld	fa5,1406(a4) # 83f52550 <xISRStackTop+0xc0>
    83f40fda:	0af777d3          	fsub.d	fa5,fa4,fa5
    83f40fde:	00011797          	auipc	a5,0x11
    83f40fe2:	5627b707          	fld	fa4,1378(a5) # 83f52540 <xISRStackTop+0xb0>
    83f40fe6:	0af777d3          	fsub.d	fa5,fa4,fa5
    83f40fea:	e20787d3          	fmv.x.d	a5,fa5
    83f40fee:	bdc5                	j	83f40ede <__ieee754_atan2+0x9c>
    83f40ff0:	0207d713          	srli	a4,a5,0x20
    83f40ff4:	800006b7          	lui	a3,0x80000
    83f40ff8:	8f35                	xor	a4,a4,a3
    83f40ffa:	56fd                	li	a3,-1
    83f40ffc:	9281                	srli	a3,a3,0x20
    83f40ffe:	1702                	slli	a4,a4,0x20
    83f41000:	8ff5                	and	a5,a5,a3
    83f41002:	8fd9                	or	a5,a5,a4
    83f41004:	bde9                	j	83f40ede <__ieee754_atan2+0x9c>
    83f41006:	4789                	li	a5,2
    83f41008:	00d7ed63          	bltu	a5,a3,83f41022 <__ieee754_atan2+0x1e0>
    83f4100c:	02041793          	slli	a5,s0,0x20
    83f41010:	01d7d413          	srli	s0,a5,0x1d
    83f41014:	00010797          	auipc	a5,0x10
    83f41018:	a0478793          	addi	a5,a5,-1532 # 83f50a18 <CSWTCH.8>
    83f4101c:	943e                	add	s0,s0,a5
    83f4101e:	601c                	ld	a5,0(s0)
    83f41020:	bd7d                	j	83f40ede <__ieee754_atan2+0x9c>
    83f41022:	00011797          	auipc	a5,0x11
    83f41026:	5267b783          	ld	a5,1318(a5) # 83f52548 <xISRStackTop+0xb8>
    83f4102a:	bd55                	j	83f40ede <__ieee754_atan2+0x9c>

0000000083f4102c <__ieee754_exp>:
    83f4102c:	e20507d3          	fmv.x.d	a5,fa0
    83f41030:	40863637          	lui	a2,0x40863
    83f41034:	e4160613          	addi	a2,a2,-447 # 40862e41 <CVIMMAP_DRAM_SIZE+0x3c862e41>
    83f41038:	4207d693          	srai	a3,a5,0x20
    83f4103c:	02169713          	slli	a4,a3,0x21
    83f41040:	9305                	srli	a4,a4,0x21
    83f41042:	03f7d513          	srli	a0,a5,0x3f
    83f41046:	0007a593          	slti	a1,a5,0
    83f4104a:	02e67463          	bgeu	a2,a4,83f41072 <__ieee754_exp+0x46>
    83f4104e:	7ff00637          	lui	a2,0x7ff00
    83f41052:	0ac76763          	bltu	a4,a2,83f41100 <__ieee754_exp+0xd4>
    83f41056:	02c69713          	slli	a4,a3,0x2c
    83f4105a:	9331                	srli	a4,a4,0x2c
    83f4105c:	8f5d                	or	a4,a4,a5
    83f4105e:	2701                	sext.w	a4,a4
    83f41060:	1e071963          	bnez	a4,83f41252 <__ieee754_exp+0x226>
    83f41064:	00000713          	li	a4,0
    83f41068:	1a059f63          	bnez	a1,83f41226 <__ieee754_exp+0x1fa>
    83f4106c:	e2050753          	fmv.x.d	a4,fa0
    83f41070:	aa5d                	j	83f41226 <__ieee754_exp+0x1fa>
    83f41072:	3fd636b7          	lui	a3,0x3fd63
    83f41076:	e4268693          	addi	a3,a3,-446 # 3fd62e42 <CVIMMAP_DRAM_SIZE+0x3bd62e42>
    83f4107a:	0ee6e663          	bltu	a3,a4,83f41166 <__ieee754_exp+0x13a>
    83f4107e:	3e3006b7          	lui	a3,0x3e300
    83f41082:	1ad76563          	bltu	a4,a3,83f4122c <__ieee754_exp+0x200>
    83f41086:	00011717          	auipc	a4,0x11
    83f4108a:	28a73707          	fld	fa4,650(a4) # 83f52310 <__func__.1+0x118>
    83f4108e:	f20787d3          	fmv.d.x	fa5,a5
    83f41092:	00011717          	auipc	a4,0x11
    83f41096:	4de73687          	fld	fa3,1246(a4) # 83f52570 <xISRStackTop+0xe0>
    83f4109a:	00011717          	auipc	a4,0x11
    83f4109e:	4de73007          	fld	ft0,1246(a4) # 83f52578 <xISRStackTop+0xe8>
    83f410a2:	12f7f7d3          	fmul.d	fa5,fa5,fa5
    83f410a6:	00011717          	auipc	a4,0x11
    83f410aa:	4da73507          	fld	fa0,1242(a4) # 83f52580 <xISRStackTop+0xf0>
    83f410ae:	00011717          	auipc	a4,0x11
    83f410b2:	4da73587          	fld	fa1,1242(a4) # 83f52588 <xISRStackTop+0xf8>
    83f410b6:	00011717          	auipc	a4,0x11
    83f410ba:	4da73607          	fld	fa2,1242(a4) # 83f52590 <xISRStackTop+0x100>
    83f410be:	02d7f6c3          	fmadd.d	fa3,fa5,fa3,ft0
    83f410c2:	52d7f6c3          	fmadd.d	fa3,fa5,fa3,fa0
    83f410c6:	5ad7f6c3          	fmadd.d	fa3,fa5,fa3,fa1
    83f410ca:	62d7f6c3          	fmadd.d	fa3,fa5,fa3,fa2
    83f410ce:	f2078653          	fmv.d.x	fa2,a5
    83f410d2:	62d7f7cb          	fnmsub.d	fa5,fa5,fa3,fa2
    83f410d6:	12f676d3          	fmul.d	fa3,fa2,fa5
    83f410da:	00011717          	auipc	a4,0x11
    83f410de:	3ce73607          	fld	fa2,974(a4) # 83f524a8 <xISRStackTop+0x18>
    83f410e2:	0ac7f7d3          	fsub.d	fa5,fa5,fa2
    83f410e6:	1af6f7d3          	fdiv.d	fa5,fa3,fa5
    83f410ea:	f20786d3          	fmv.d.x	fa3,a5
    83f410ee:	0ad7f7d3          	fsub.d	fa5,fa5,fa3
    83f410f2:	0af777d3          	fsub.d	fa5,fa4,fa5
    83f410f6:	e2078753          	fmv.x.d	a4,fa5
    83f410fa:	f2070553          	fmv.d.x	fa0,a4
    83f410fe:	8082                	ret
    83f41100:	00011717          	auipc	a4,0x11
    83f41104:	42073787          	fld	fa5,1056(a4) # 83f52520 <xISRStackTop+0x90>
    83f41108:	a2a79753          	flt.d	a4,fa5,fa0
    83f4110c:	14071a63          	bnez	a4,83f41260 <__ieee754_exp+0x234>
    83f41110:	00011717          	auipc	a4,0x11
    83f41114:	41873787          	fld	fa5,1048(a4) # 83f52528 <xISRStackTop+0x98>
    83f41118:	a2f516d3          	flt.d	a3,fa0,fa5
    83f4111c:	00000713          	li	a4,0
    83f41120:	10069363          	bnez	a3,83f41226 <__ieee754_exp+0x1fa>
    83f41124:	00010717          	auipc	a4,0x10
    83f41128:	92470713          	addi	a4,a4,-1756 # 83f50a48 <ln2HI>
    83f4112c:	058e                	slli	a1,a1,0x3
    83f4112e:	95ba                	add	a1,a1,a4
    83f41130:	f2078753          	fmv.d.x	fa4,a5
    83f41134:	3194                	fld	fa3,32(a1)
    83f41136:	00011717          	auipc	a4,0x11
    83f4113a:	42273787          	fld	fa5,1058(a4) # 83f52558 <xISRStackTop+0xc8>
    83f4113e:	00011717          	auipc	a4,0x11
    83f41142:	42273587          	fld	fa1,1058(a4) # 83f52560 <xISRStackTop+0xd0>
    83f41146:	6af777c3          	fmadd.d	fa5,fa4,fa5,fa3
    83f4114a:	00011717          	auipc	a4,0x11
    83f4114e:	41e73687          	fld	fa3,1054(a4) # 83f52568 <xISRStackTop+0xd8>
    83f41152:	c2079753          	fcvt.w.d	a4,fa5,rtz
    83f41156:	d20707d3          	fcvt.d.w	fa5,a4
    83f4115a:	2701                	sext.w	a4,a4
    83f4115c:	72b7f5cb          	fnmsub.d	fa1,fa5,fa1,fa4
    83f41160:	12d7f753          	fmul.d	fa4,fa5,fa3
    83f41164:	a025                	j	83f4118c <__ieee754_exp+0x160>
    83f41166:	3ff0a6b7          	lui	a3,0x3ff0a
    83f4116a:	2b168693          	addi	a3,a3,689 # 3ff0a2b1 <CVIMMAP_DRAM_SIZE+0x3bf0a2b1>
    83f4116e:	fae6ebe3          	bltu	a3,a4,83f41124 <__ieee754_exp+0xf8>
    83f41172:	00010717          	auipc	a4,0x10
    83f41176:	8d670713          	addi	a4,a4,-1834 # 83f50a48 <ln2HI>
    83f4117a:	058e                	slli	a1,a1,0x3
    83f4117c:	95ba                	add	a1,a1,a4
    83f4117e:	2198                	fld	fa4,0(a1)
    83f41180:	4705                	li	a4,1
    83f41182:	9f09                	subw	a4,a4,a0
    83f41184:	0ae575d3          	fsub.d	fa1,fa0,fa4
    83f41188:	2998                	fld	fa4,16(a1)
    83f4118a:	9f09                	subw	a4,a4,a0
    83f4118c:	0ae5f7d3          	fsub.d	fa5,fa1,fa4
    83f41190:	00011697          	auipc	a3,0x11
    83f41194:	3e86b087          	fld	ft1,1000(a3) # 83f52578 <xISRStackTop+0xe8>
    83f41198:	00011697          	auipc	a3,0x11
    83f4119c:	3e86b007          	fld	ft0,1000(a3) # 83f52580 <xISRStackTop+0xf0>
    83f411a0:	00011697          	auipc	a3,0x11
    83f411a4:	3e86b507          	fld	fa0,1000(a3) # 83f52588 <xISRStackTop+0xf8>
    83f411a8:	00011697          	auipc	a3,0x11
    83f411ac:	3e86b607          	fld	fa2,1000(a3) # 83f52590 <xISRStackTop+0x100>
    83f411b0:	e20787d3          	fmv.x.d	a5,fa5
    83f411b4:	00011697          	auipc	a3,0x11
    83f411b8:	3bc6b787          	fld	fa5,956(a3) # 83f52570 <xISRStackTop+0xe0>
    83f411bc:	f20786d3          	fmv.d.x	fa3,a5
    83f411c0:	12d6f6d3          	fmul.d	fa3,fa3,fa3
    83f411c4:	0af6f7c3          	fmadd.d	fa5,fa3,fa5,ft1
    83f411c8:	02d7f7c3          	fmadd.d	fa5,fa5,fa3,ft0
    83f411cc:	52d7f7c3          	fmadd.d	fa5,fa5,fa3,fa0
    83f411d0:	62d7f7c3          	fmadd.d	fa5,fa5,fa3,fa2
    83f411d4:	f2078653          	fmv.d.x	fa2,a5
    83f411d8:	62d7f7cb          	fnmsub.d	fa5,fa5,fa3,fa2
    83f411dc:	12f676d3          	fmul.d	fa3,fa2,fa5
    83f411e0:	c361                	beqz	a4,83f412a0 <__ieee754_exp+0x274>
    83f411e2:	00011797          	auipc	a5,0x11
    83f411e6:	2c67b607          	fld	fa2,710(a5) # 83f524a8 <xISRStackTop+0x18>
    83f411ea:	0af677d3          	fsub.d	fa5,fa2,fa5
    83f411ee:	00011797          	auipc	a5,0x11
    83f411f2:	1227b607          	fld	fa2,290(a5) # 83f52310 <__func__.1+0x118>
    83f411f6:	c0300613          	li	a2,-1021
    83f411fa:	1af6f6d3          	fdiv.d	fa3,fa3,fa5
    83f411fe:	0ad77753          	fsub.d	fa4,fa4,fa3
    83f41202:	0ab77753          	fsub.d	fa4,fa4,fa1
    83f41206:	0ae677d3          	fsub.d	fa5,fa2,fa4
    83f4120a:	e20786d3          	fmv.x.d	a3,fa5
    83f4120e:	4206d593          	srai	a1,a3,0x20
    83f41212:	06c74063          	blt	a4,a2,83f41272 <__ieee754_exp+0x246>
    83f41216:	0147179b          	slliw	a5,a4,0x14
    83f4121a:	577d                	li	a4,-1
    83f4121c:	9fad                	addw	a5,a5,a1
    83f4121e:	9301                	srli	a4,a4,0x20
    83f41220:	1782                	slli	a5,a5,0x20
    83f41222:	8f75                	and	a4,a4,a3
    83f41224:	8f5d                	or	a4,a4,a5
    83f41226:	f2070553          	fmv.d.x	fa0,a4
    83f4122a:	8082                	ret
    83f4122c:	00011717          	auipc	a4,0x11
    83f41230:	27473787          	fld	fa5,628(a4) # 83f524a0 <xISRStackTop+0x10>
    83f41234:	02f577d3          	fadd.d	fa5,fa0,fa5
    83f41238:	00011717          	auipc	a4,0x11
    83f4123c:	0d873707          	fld	fa4,216(a4) # 83f52310 <__func__.1+0x118>
    83f41240:	a2f71753          	flt.d	a4,fa4,fa5
    83f41244:	e40705e3          	beqz	a4,83f4108e <__ieee754_exp+0x62>
    83f41248:	02e577d3          	fadd.d	fa5,fa0,fa4
    83f4124c:	e2078753          	fmv.x.d	a4,fa5
    83f41250:	bfd9                	j	83f41226 <__ieee754_exp+0x1fa>
    83f41252:	02a577d3          	fadd.d	fa5,fa0,fa0
    83f41256:	e2078753          	fmv.x.d	a4,fa5
    83f4125a:	f2070553          	fmv.d.x	fa0,a4
    83f4125e:	8082                	ret
    83f41260:	00011797          	auipc	a5,0x11
    83f41264:	2407b787          	fld	fa5,576(a5) # 83f524a0 <xISRStackTop+0x10>
    83f41268:	12f7f7d3          	fmul.d	fa5,fa5,fa5
    83f4126c:	e2078753          	fmv.x.d	a4,fa5
    83f41270:	bf5d                	j	83f41226 <__ieee754_exp+0x1fa>
    83f41272:	3e87079b          	addiw	a5,a4,1000
    83f41276:	0147979b          	slliw	a5,a5,0x14
    83f4127a:	577d                	li	a4,-1
    83f4127c:	9fad                	addw	a5,a5,a1
    83f4127e:	9301                	srli	a4,a4,0x20
    83f41280:	1782                	slli	a5,a5,0x20
    83f41282:	8f75                	and	a4,a4,a3
    83f41284:	8f5d                	or	a4,a4,a5
    83f41286:	f2070753          	fmv.d.x	fa4,a4
    83f4128a:	00011797          	auipc	a5,0x11
    83f4128e:	30e7b787          	fld	fa5,782(a5) # 83f52598 <xISRStackTop+0x108>
    83f41292:	12e7f7d3          	fmul.d	fa5,fa5,fa4
    83f41296:	e2078753          	fmv.x.d	a4,fa5
    83f4129a:	f2070553          	fmv.d.x	fa0,a4
    83f4129e:	8082                	ret
    83f412a0:	00011717          	auipc	a4,0x11
    83f412a4:	07073707          	fld	fa4,112(a4) # 83f52310 <__func__.1+0x118>
    83f412a8:	bd0d                	j	83f410da <__ieee754_exp+0xae>

0000000083f412aa <__ieee754_log>:
    83f412aa:	e20507d3          	fmv.x.d	a5,fa0
    83f412ae:	00100637          	lui	a2,0x100
    83f412b2:	4207d713          	srai	a4,a5,0x20
    83f412b6:	0cc75563          	bge	a4,a2,83f41380 <__ieee754_log+0xd6>
    83f412ba:	02171693          	slli	a3,a4,0x21
    83f412be:	9285                	srli	a3,a3,0x21
    83f412c0:	8edd                	or	a3,a3,a5
    83f412c2:	2681                	sext.w	a3,a3
    83f412c4:	18068363          	beqz	a3,83f4144a <__ieee754_log+0x1a0>
    83f412c8:	20074163          	bltz	a4,83f414ca <__ieee754_log+0x220>
    83f412cc:	00011717          	auipc	a4,0x11
    83f412d0:	2dc73787          	fld	fa5,732(a4) # 83f525a8 <xISRStackTop+0x118>
    83f412d4:	12f577d3          	fmul.d	fa5,fa0,fa5
    83f412d8:	7ff006b7          	lui	a3,0x7ff00
    83f412dc:	fca00313          	li	t1,-54
    83f412e0:	e20787d3          	fmv.x.d	a5,fa5
    83f412e4:	4207d713          	srai	a4,a5,0x20
    83f412e8:	0ad75163          	bge	a4,a3,83f4138a <__ieee754_log+0xe0>
    83f412ec:	00100637          	lui	a2,0x100
    83f412f0:	fff60893          	addi	a7,a2,-1 # fffff <CVIMMAP_FREERTOS_SIZE+0x3ffff>
    83f412f4:	000966b7          	lui	a3,0x96
    83f412f8:	01177833          	and	a6,a4,a7
    83f412fc:	f646869b          	addiw	a3,a3,-156
    83f41300:	00d806bb          	addw	a3,a6,a3
    83f41304:	8ef1                	and	a3,a3,a2
    83f41306:	3ff005b7          	lui	a1,0x3ff00
    83f4130a:	8db5                	xor	a1,a1,a3
    83f4130c:	567d                	li	a2,-1
    83f4130e:	9201                	srli	a2,a2,0x20
    83f41310:	00b865b3          	or	a1,a6,a1
    83f41314:	1582                	slli	a1,a1,0x20
    83f41316:	8ff1                	and	a5,a5,a2
    83f41318:	8fcd                	or	a5,a5,a1
    83f4131a:	4147571b          	sraiw	a4,a4,0x14
    83f4131e:	0028051b          	addiw	a0,a6,2
    83f41322:	f2078753          	fmv.d.x	fa4,a5
    83f41326:	c017071b          	addiw	a4,a4,-1023
    83f4132a:	0067073b          	addw	a4,a4,t1
    83f4132e:	01157633          	and	a2,a0,a7
    83f41332:	4146d69b          	sraiw	a3,a3,0x14
    83f41336:	00e685bb          	addw	a1,a3,a4
    83f4133a:	2601                	sext.w	a2,a2
    83f4133c:	00011717          	auipc	a4,0x11
    83f41340:	fd473787          	fld	fa5,-44(a4) # 83f52310 <__func__.1+0x118>
    83f41344:	4509                	li	a0,2
    83f41346:	0af777d3          	fsub.d	fa5,fa4,fa5
    83f4134a:	04c54563          	blt	a0,a2,83f41394 <__ieee754_log+0xea>
    83f4134e:	f2000753          	fmv.d.x	fa4,zero
    83f41352:	a2e7a7d3          	feq.d	a5,fa5,fa4
    83f41356:	10078363          	beqz	a5,83f4145c <__ieee754_log+0x1b2>
    83f4135a:	22e70553          	fmv.d	fa0,fa4
    83f4135e:	16058563          	beqz	a1,83f414c8 <__ieee754_log+0x21e>
    83f41362:	d20587d3          	fcvt.d.w	fa5,a1
    83f41366:	00011797          	auipc	a5,0x11
    83f4136a:	2027b507          	fld	fa0,514(a5) # 83f52568 <xISRStackTop+0xd8>
    83f4136e:	00011797          	auipc	a5,0x11
    83f41372:	1f27b707          	fld	fa4,498(a5) # 83f52560 <xISRStackTop+0xd0>
    83f41376:	12a7f553          	fmul.d	fa0,fa5,fa0
    83f4137a:	52e7f543          	fmadd.d	fa0,fa5,fa4,fa0
    83f4137e:	8082                	ret
    83f41380:	7ff006b7          	lui	a3,0x7ff00
    83f41384:	4301                	li	t1,0
    83f41386:	f6d743e3          	blt	a4,a3,83f412ec <__ieee754_log+0x42>
    83f4138a:	f20787d3          	fmv.d.x	fa5,a5
    83f4138e:	02f7f553          	fadd.d	fa0,fa5,fa5
    83f41392:	8082                	ret
    83f41394:	00011797          	auipc	a5,0x11
    83f41398:	1147b507          	fld	fa0,276(a5) # 83f524a8 <xISRStackTop+0x18>
    83f4139c:	02a7f553          	fadd.d	fa0,fa5,fa0
    83f413a0:	00011797          	auipc	a5,0x11
    83f413a4:	2307b687          	fld	fa3,560(a5) # 83f525d0 <xISRStackTop+0x140>
    83f413a8:	00011797          	auipc	a5,0x11
    83f413ac:	2307b207          	fld	ft4,560(a5) # 83f525d8 <xISRStackTop+0x148>
    83f413b0:	00011797          	auipc	a5,0x11
    83f413b4:	2307b107          	fld	ft2,560(a5) # 83f525e0 <xISRStackTop+0x150>
    83f413b8:	00011797          	auipc	a5,0x11
    83f413bc:	2007b707          	fld	fa4,512(a5) # 83f525b8 <xISRStackTop+0x128>
    83f413c0:	00011797          	auipc	a5,0x11
    83f413c4:	2007b187          	fld	ft3,512(a5) # 83f525c0 <xISRStackTop+0x130>
    83f413c8:	00011797          	auipc	a5,0x11
    83f413cc:	2207b007          	fld	ft0,544(a5) # 83f525e8 <xISRStackTop+0x158>
    83f413d0:	1aa7f553          	fdiv.d	fa0,fa5,fa0
    83f413d4:	00011797          	auipc	a5,0x11
    83f413d8:	1f47b087          	fld	ft1,500(a5) # 83f525c8 <xISRStackTop+0x138>
    83f413dc:	fff9f637          	lui	a2,0xfff9f
    83f413e0:	0006c7b7          	lui	a5,0x6c
    83f413e4:	b866061b          	addiw	a2,a2,-1146
    83f413e8:	8517879b          	addiw	a5,a5,-1967
    83f413ec:	0106063b          	addw	a2,a2,a6
    83f413f0:	4107883b          	subw	a6,a5,a6
    83f413f4:	01066633          	or	a2,a2,a6
    83f413f8:	2601                	sext.w	a2,a2
    83f413fa:	d20582d3          	fcvt.d.w	ft5,a1
    83f413fe:	12a575d3          	fmul.d	fa1,fa0,fa0
    83f41402:	12b5f653          	fmul.d	fa2,fa1,fa1
    83f41406:	22d676c3          	fmadd.d	fa3,fa2,fa3,ft4
    83f4140a:	1ae67743          	fmadd.d	fa4,fa2,fa4,ft3
    83f4140e:	12c6f6c3          	fmadd.d	fa3,fa3,fa2,ft2
    83f41412:	0ac77743          	fmadd.d	fa4,fa4,fa2,ft1
    83f41416:	02c6f6c3          	fmadd.d	fa3,fa3,fa2,ft0
    83f4141a:	12b6f6d3          	fmul.d	fa3,fa3,fa1
    83f4141e:	6ac77743          	fmadd.d	fa4,fa4,fa2,fa3
    83f41422:	06c05d63          	blez	a2,83f4149c <__ieee754_log+0x1f2>
    83f41426:	00011797          	auipc	a5,0x11
    83f4142a:	e727b687          	fld	fa3,-398(a5) # 83f52298 <__func__.1+0xa0>
    83f4142e:	12d7f6d3          	fmul.d	fa3,fa5,fa3
    83f41432:	12f6f6d3          	fmul.d	fa3,fa3,fa5
    83f41436:	02d77753          	fadd.d	fa4,fa4,fa3
    83f4143a:	12a77753          	fmul.d	fa4,fa4,fa0
    83f4143e:	edc9                	bnez	a1,83f414d8 <__ieee754_log+0x22e>
    83f41440:	0ae6f553          	fsub.d	fa0,fa3,fa4
    83f41444:	0aa7f553          	fsub.d	fa0,fa5,fa0
    83f41448:	8082                	ret
    83f4144a:	f2000553          	fmv.d.x	fa0,zero
    83f4144e:	00011797          	auipc	a5,0x11
    83f41452:	1527b787          	fld	fa5,338(a5) # 83f525a0 <xISRStackTop+0x110>
    83f41456:	1aa7f553          	fdiv.d	fa0,fa5,fa0
    83f4145a:	8082                	ret
    83f4145c:	00011797          	auipc	a5,0x11
    83f41460:	1547b707          	fld	fa4,340(a5) # 83f525b0 <xISRStackTop+0x120>
    83f41464:	00011797          	auipc	a5,0x11
    83f41468:	e347b687          	fld	fa3,-460(a5) # 83f52298 <__func__.1+0xa0>
    83f4146c:	12f7f553          	fmul.d	fa0,fa5,fa5
    83f41470:	6ae7f74b          	fnmsub.d	fa4,fa5,fa4,fa3
    83f41474:	12e57553          	fmul.d	fa0,fa0,fa4
    83f41478:	d5f1                	beqz	a1,83f41444 <__ieee754_log+0x19a>
    83f4147a:	d20586d3          	fcvt.d.w	fa3,a1
    83f4147e:	00011797          	auipc	a5,0x11
    83f41482:	0ea7b707          	fld	fa4,234(a5) # 83f52568 <xISRStackTop+0xd8>
    83f41486:	00011797          	auipc	a5,0x11
    83f4148a:	0da7b607          	fld	fa2,218(a5) # 83f52560 <xISRStackTop+0xd0>
    83f4148e:	52e6f54b          	fnmsub.d	fa0,fa3,fa4,fa0
    83f41492:	0af57553          	fsub.d	fa0,fa0,fa5
    83f41496:	52c6f547          	fmsub.d	fa0,fa3,fa2,fa0
    83f4149a:	8082                	ret
    83f4149c:	0ae7f753          	fsub.d	fa4,fa5,fa4
    83f414a0:	12a77753          	fmul.d	fa4,fa4,fa0
    83f414a4:	e581                	bnez	a1,83f414ac <__ieee754_log+0x202>
    83f414a6:	0ae7f553          	fsub.d	fa0,fa5,fa4
    83f414aa:	8082                	ret
    83f414ac:	00011797          	auipc	a5,0x11
    83f414b0:	0bc7b507          	fld	fa0,188(a5) # 83f52568 <xISRStackTop+0xd8>
    83f414b4:	72a2f54b          	fnmsub.d	fa0,ft5,fa0,fa4
    83f414b8:	00011797          	auipc	a5,0x11
    83f414bc:	0a87b707          	fld	fa4,168(a5) # 83f52560 <xISRStackTop+0xd0>
    83f414c0:	0af57553          	fsub.d	fa0,fa0,fa5
    83f414c4:	52e2f547          	fmsub.d	fa0,ft5,fa4,fa0
    83f414c8:	8082                	ret
    83f414ca:	0aa577d3          	fsub.d	fa5,fa0,fa0
    83f414ce:	f2000553          	fmv.d.x	fa0,zero
    83f414d2:	1aa7f553          	fdiv.d	fa0,fa5,fa0
    83f414d6:	8082                	ret
    83f414d8:	00011797          	auipc	a5,0x11
    83f414dc:	0907b507          	fld	fa0,144(a5) # 83f52568 <xISRStackTop+0xd8>
    83f414e0:	72a2f543          	fmadd.d	fa0,ft5,fa0,fa4
    83f414e4:	00011797          	auipc	a5,0x11
    83f414e8:	07c7b607          	fld	fa2,124(a5) # 83f52560 <xISRStackTop+0xd0>
    83f414ec:	0aa6f553          	fsub.d	fa0,fa3,fa0
    83f414f0:	0af57553          	fsub.d	fa0,fa0,fa5
    83f414f4:	52c2f547          	fmsub.d	fa0,ft5,fa2,fa0
    83f414f8:	8082                	ret

0000000083f414fa <__ieee754_pow>:
    83f414fa:	711d                	addi	sp,sp,-96
    83f414fc:	f852                	sd	s4,48(sp)
    83f414fe:	e2058a53          	fmv.x.d	s4,fa1
    83f41502:	800007b7          	lui	a5,0x80000
    83f41506:	f456                	sd	s5,40(sp)
    83f41508:	fff7c793          	not	a5,a5
    83f4150c:	420a5a93          	srai	s5,s4,0x20
    83f41510:	fc4e                	sd	s3,56(sp)
    83f41512:	000a071b          	sext.w	a4,s4
    83f41516:	00faf9b3          	and	s3,s5,a5
    83f4151a:	ec86                	sd	ra,88(sp)
    83f4151c:	e8a2                	sd	s0,80(sp)
    83f4151e:	e4a6                	sd	s1,72(sp)
    83f41520:	e0ca                	sd	s2,64(sp)
    83f41522:	f05a                	sd	s6,32(sp)
    83f41524:	ec5e                	sd	s7,24(sp)
    83f41526:	e862                	sd	s8,16(sp)
    83f41528:	a422                	fsd	fs0,8(sp)
    83f4152a:	00e9e6b3          	or	a3,s3,a4
    83f4152e:	c6c1                	beqz	a3,83f415b6 <__ieee754_pow+0xbc>
    83f41530:	e2050453          	fmv.x.d	s0,fa0
    83f41534:	7ff00637          	lui	a2,0x7ff00
    83f41538:	42045b13          	srai	s6,s0,0x20
    83f4153c:	00fb74b3          	and	s1,s6,a5
    83f41540:	8bda                	mv	s7,s6
    83f41542:	0004091b          	sext.w	s2,s0
    83f41546:	06964163          	blt	a2,s1,83f415a8 <__ieee754_pow+0xae>
    83f4154a:	08c48963          	beq	s1,a2,83f415dc <__ieee754_pow+0xe2>
    83f4154e:	05364d63          	blt	a2,s3,83f415a8 <__ieee754_pow+0xae>
    83f41552:	7ff007b7          	lui	a5,0x7ff00
    83f41556:	04f98863          	beq	s3,a5,83f415a6 <__ieee754_pow+0xac>
    83f4155a:	4c01                	li	s8,0
    83f4155c:	0a0b4663          	bltz	s6,83f41608 <__ieee754_pow+0x10e>
    83f41560:	ef71                	bnez	a4,83f4163c <__ieee754_pow+0x142>
    83f41562:	7ff007b7          	lui	a5,0x7ff00
    83f41566:	12f98963          	beq	s3,a5,83f41698 <__ieee754_pow+0x19e>
    83f4156a:	3ff007b7          	lui	a5,0x3ff00
    83f4156e:	14f98663          	beq	s3,a5,83f416ba <__ieee754_pow+0x1c0>
    83f41572:	400007b7          	lui	a5,0x40000
    83f41576:	64fa8e63          	beq	s5,a5,83f41bd2 <__ieee754_pow+0x6d8>
    83f4157a:	3fe007b7          	lui	a5,0x3fe00
    83f4157e:	0afa9f63          	bne	s5,a5,83f4163c <__ieee754_pow+0x142>
    83f41582:	0a0b4d63          	bltz	s6,83f4163c <__ieee754_pow+0x142>
    83f41586:	f2040553          	fmv.d.x	fa0,s0
    83f4158a:	6446                	ld	s0,80(sp)
    83f4158c:	60e6                	ld	ra,88(sp)
    83f4158e:	64a6                	ld	s1,72(sp)
    83f41590:	6906                	ld	s2,64(sp)
    83f41592:	79e2                	ld	s3,56(sp)
    83f41594:	7a42                	ld	s4,48(sp)
    83f41596:	7aa2                	ld	s5,40(sp)
    83f41598:	7b02                	ld	s6,32(sp)
    83f4159a:	6be2                	ld	s7,24(sp)
    83f4159c:	6c42                	ld	s8,16(sp)
    83f4159e:	2422                	fld	fs0,8(sp)
    83f415a0:	6125                	addi	sp,sp,96
    83f415a2:	1930006f          	j	83f41f34 <__ieee754_sqrt>
    83f415a6:	db55                	beqz	a4,83f4155a <__ieee754_pow+0x60>
    83f415a8:	c01007b7          	lui	a5,0xc0100
    83f415ac:	9fa5                	addw	a5,a5,s1
    83f415ae:	00f967b3          	or	a5,s2,a5
    83f415b2:	2781                	sext.w	a5,a5
    83f415b4:	eb85                	bnez	a5,83f415e4 <__ieee754_pow+0xea>
    83f415b6:	00011717          	auipc	a4,0x11
    83f415ba:	d5a73703          	ld	a4,-678(a4) # 83f52310 <__func__.1+0x118>
    83f415be:	60e6                	ld	ra,88(sp)
    83f415c0:	6446                	ld	s0,80(sp)
    83f415c2:	64a6                	ld	s1,72(sp)
    83f415c4:	6906                	ld	s2,64(sp)
    83f415c6:	79e2                	ld	s3,56(sp)
    83f415c8:	7a42                	ld	s4,48(sp)
    83f415ca:	7aa2                	ld	s5,40(sp)
    83f415cc:	7b02                	ld	s6,32(sp)
    83f415ce:	6be2                	ld	s7,24(sp)
    83f415d0:	6c42                	ld	s8,16(sp)
    83f415d2:	2422                	fld	fs0,8(sp)
    83f415d4:	f2070553          	fmv.d.x	fa0,a4
    83f415d8:	6125                	addi	sp,sp,96
    83f415da:	8082                	ret
    83f415dc:	00091463          	bnez	s2,83f415e4 <__ieee754_pow+0xea>
    83f415e0:	f734d9e3          	bge	s1,s3,83f41552 <__ieee754_pow+0x58>
    83f415e4:	6446                	ld	s0,80(sp)
    83f415e6:	60e6                	ld	ra,88(sp)
    83f415e8:	64a6                	ld	s1,72(sp)
    83f415ea:	6906                	ld	s2,64(sp)
    83f415ec:	79e2                	ld	s3,56(sp)
    83f415ee:	7a42                	ld	s4,48(sp)
    83f415f0:	7aa2                	ld	s5,40(sp)
    83f415f2:	7b02                	ld	s6,32(sp)
    83f415f4:	6be2                	ld	s7,24(sp)
    83f415f6:	6c42                	ld	s8,16(sp)
    83f415f8:	2422                	fld	fs0,8(sp)
    83f415fa:	00011517          	auipc	a0,0x11
    83f415fe:	bf650513          	addi	a0,a0,-1034 # 83f521f0 <__func__.0+0x30>
    83f41602:	6125                	addi	sp,sp,96
    83f41604:	4640106f          	j	83f42a68 <nan>
    83f41608:	434007b7          	lui	a5,0x43400
    83f4160c:	12f9d163          	bge	s3,a5,83f4172e <__ieee754_pow+0x234>
    83f41610:	3ff007b7          	lui	a5,0x3ff00
    83f41614:	02f9c363          	blt	s3,a5,83f4163a <__ieee754_pow+0x140>
    83f41618:	4149d79b          	sraiw	a5,s3,0x14
    83f4161c:	c017861b          	addiw	a2,a5,-1023
    83f41620:	46d1                	li	a3,20
    83f41622:	5ac6df63          	bge	a3,a2,83f41be0 <__ieee754_pow+0x6e6>
    83f41626:	03400693          	li	a3,52
    83f4162a:	40c687bb          	subw	a5,a3,a2
    83f4162e:	00f756bb          	srlw	a3,a4,a5
    83f41632:	00f697bb          	sllw	a5,a3,a5
    83f41636:	0ee78563          	beq	a5,a4,83f41720 <__ieee754_pow+0x226>
    83f4163a:	db05                	beqz	a4,83f4156a <__ieee754_pow+0x70>
    83f4163c:	f2040553          	fmv.d.x	fa0,s0
    83f41640:	b08ff0ef          	jal	ra,83f40948 <fabs>
    83f41644:	e2050753          	fmv.x.d	a4,fa0
    83f41648:	00091a63          	bnez	s2,83f4165c <__ieee754_pow+0x162>
    83f4164c:	c8d1                	beqz	s1,83f416e0 <__ieee754_pow+0x1e6>
    83f4164e:	022b1793          	slli	a5,s6,0x22
    83f41652:	9389                	srli	a5,a5,0x22
    83f41654:	3ff006b7          	lui	a3,0x3ff00
    83f41658:	08d78463          	beq	a5,a3,83f416e0 <__ieee754_pow+0x1e6>
    83f4165c:	01fbdb9b          	srliw	s7,s7,0x1f
    83f41660:	3bfd                	addiw	s7,s7,-1
    83f41662:	017c67b3          	or	a5,s8,s7
    83f41666:	2781                	sext.w	a5,a5
    83f41668:	cfe9                	beqz	a5,83f41742 <__ieee754_pow+0x248>
    83f4166a:	41e007b7          	lui	a5,0x41e00
    83f4166e:	0f37d363          	bge	a5,s3,83f41754 <__ieee754_pow+0x25a>
    83f41672:	43f007b7          	lui	a5,0x43f00
    83f41676:	4d37dd63          	bge	a5,s3,83f41b50 <__ieee754_pow+0x656>
    83f4167a:	3ff007b7          	lui	a5,0x3ff00
    83f4167e:	04f4cc63          	blt	s1,a5,83f416d6 <__ieee754_pow+0x1dc>
    83f41682:	03505963          	blez	s5,83f416b4 <__ieee754_pow+0x1ba>
    83f41686:	00011797          	auipc	a5,0x11
    83f4168a:	e1a7b787          	fld	fa5,-486(a5) # 83f524a0 <xISRStackTop+0x10>
    83f4168e:	12f7f7d3          	fmul.d	fa5,fa5,fa5
    83f41692:	e2078753          	fmv.x.d	a4,fa5
    83f41696:	b725                	j	83f415be <__ieee754_pow+0xc4>
    83f41698:	c01007b7          	lui	a5,0xc0100
    83f4169c:	9fa5                	addw	a5,a5,s1
    83f4169e:	00f967b3          	or	a5,s2,a5
    83f416a2:	2781                	sext.w	a5,a5
    83f416a4:	db89                	beqz	a5,83f415b6 <__ieee754_pow+0xbc>
    83f416a6:	3ff007b7          	lui	a5,0x3ff00
    83f416aa:	46f4ce63          	blt	s1,a5,83f41b26 <__ieee754_pow+0x62c>
    83f416ae:	8752                	mv	a4,s4
    83f416b0:	f00ad7e3          	bgez	s5,83f415be <__ieee754_pow+0xc4>
    83f416b4:	00000713          	li	a4,0
    83f416b8:	b719                	j	83f415be <__ieee754_pow+0xc4>
    83f416ba:	8722                	mv	a4,s0
    83f416bc:	f00ad1e3          	bgez	s5,83f415be <__ieee754_pow+0xc4>
    83f416c0:	f2040753          	fmv.d.x	fa4,s0
    83f416c4:	00011797          	auipc	a5,0x11
    83f416c8:	c4c7b787          	fld	fa5,-948(a5) # 83f52310 <__func__.1+0x118>
    83f416cc:	1ae7f7d3          	fdiv.d	fa5,fa5,fa4
    83f416d0:	e2078753          	fmv.x.d	a4,fa5
    83f416d4:	b5ed                	j	83f415be <__ieee754_pow+0xc4>
    83f416d6:	fa0ac8e3          	bltz	s5,83f41686 <__ieee754_pow+0x18c>
    83f416da:	00000713          	li	a4,0
    83f416de:	b5c5                	j	83f415be <__ieee754_pow+0xc4>
    83f416e0:	020ac563          	bltz	s5,83f4170a <__ieee754_pow+0x210>
    83f416e4:	ec0b5de3          	bgez	s6,83f415be <__ieee754_pow+0xc4>
    83f416e8:	c01007b7          	lui	a5,0xc0100
    83f416ec:	9fa5                	addw	a5,a5,s1
    83f416ee:	00fc67b3          	or	a5,s8,a5
    83f416f2:	2781                	sext.w	a5,a5
    83f416f4:	52079963          	bnez	a5,83f41c26 <__ieee754_pow+0x72c>
    83f416f8:	f20707d3          	fmv.d.x	fa5,a4
    83f416fc:	0af7f7d3          	fsub.d	fa5,fa5,fa5
    83f41700:	1af7f7d3          	fdiv.d	fa5,fa5,fa5
    83f41704:	e2078753          	fmv.x.d	a4,fa5
    83f41708:	bd5d                	j	83f415be <__ieee754_pow+0xc4>
    83f4170a:	f2070753          	fmv.d.x	fa4,a4
    83f4170e:	00011797          	auipc	a5,0x11
    83f41712:	c027b787          	fld	fa5,-1022(a5) # 83f52310 <__func__.1+0x118>
    83f41716:	1ae7f7d3          	fdiv.d	fa5,fa5,fa4
    83f4171a:	e2078753          	fmv.x.d	a4,fa5
    83f4171e:	b7d9                	j	83f416e4 <__ieee754_pow+0x1ea>
    83f41720:	8a85                	andi	a3,a3,1
    83f41722:	4c09                	li	s8,2
    83f41724:	40dc0c3b          	subw	s8,s8,a3
    83f41728:	e40701e3          	beqz	a4,83f4156a <__ieee754_pow+0x70>
    83f4172c:	bf01                	j	83f4163c <__ieee754_pow+0x142>
    83f4172e:	4c09                	li	s8,2
    83f41730:	bd05                	j	83f41560 <__ieee754_pow+0x66>
    83f41732:	f2040553          	fmv.d.x	fa0,s0
    83f41736:	a12ff0ef          	jal	ra,83f40948 <fabs>
    83f4173a:	e2050753          	fmv.x.d	a4,fa0
    83f4173e:	f00907e3          	beqz	s2,83f4164c <__ieee754_pow+0x152>
    83f41742:	f20407d3          	fmv.d.x	fa5,s0
    83f41746:	0af7f7d3          	fsub.d	fa5,fa5,fa5
    83f4174a:	1af7f7d3          	fdiv.d	fa5,fa5,fa5
    83f4174e:	e2078753          	fmv.x.d	a4,fa5
    83f41752:	b5b5                	j	83f415be <__ieee754_pow+0xc4>
    83f41754:	7ff007b7          	lui	a5,0x7ff00
    83f41758:	00fb7b33          	and	s6,s6,a5
    83f4175c:	4681                	li	a3,0
    83f4175e:	020b1063          	bnez	s6,83f4177e <__ieee754_pow+0x284>
    83f41762:	f2070753          	fmv.d.x	fa4,a4
    83f41766:	00011797          	auipc	a5,0x11
    83f4176a:	eaa7b787          	fld	fa5,-342(a5) # 83f52610 <xISRStackTop+0x180>
    83f4176e:	fcb00693          	li	a3,-53
    83f41772:	12f777d3          	fmul.d	fa5,fa4,fa5
    83f41776:	e2078753          	fmv.x.d	a4,fa5
    83f4177a:	42075493          	srai	s1,a4,0x20
    83f4177e:	4144d61b          	sraiw	a2,s1,0x14
    83f41782:	c016061b          	addiw	a2,a2,-1023
    83f41786:	02c49793          	slli	a5,s1,0x2c
    83f4178a:	0003a537          	lui	a0,0x3a
    83f4178e:	00d605bb          	addw	a1,a2,a3
    83f41792:	93b1                	srli	a5,a5,0x2c
    83f41794:	3ff006b7          	lui	a3,0x3ff00
    83f41798:	88e50513          	addi	a0,a0,-1906 # 3988e <_STACK_SIZE+0x1988e>
    83f4179c:	8edd                	or	a3,a3,a5
    83f4179e:	38f55d63          	bge	a0,a5,83f41b38 <__ieee754_pow+0x63e>
    83f417a2:	000bb537          	lui	a0,0xbb
    83f417a6:	67950513          	addi	a0,a0,1657 # bb679 <CVIMMAP_ATF_SIZE+0x3b679>
    83f417aa:	48f55863          	bge	a0,a5,83f41c3a <__ieee754_pow+0x740>
    83f417ae:	f20002d3          	fmv.d.x	ft5,zero
    83f417b2:	00011797          	auipc	a5,0x11
    83f417b6:	b5e7b587          	fld	fa1,-1186(a5) # 83f52310 <__func__.1+0x118>
    83f417ba:	22b587d3          	fmv.d	fa5,fa1
    83f417be:	22528853          	fmv.d	fa6,ft5
    83f417c2:	fff007b7          	lui	a5,0xfff00
    83f417c6:	2585                	addiw	a1,a1,1
    83f417c8:	9ebd                	addw	a3,a3,a5
    83f417ca:	4801                	li	a6,0
    83f417cc:	557d                	li	a0,-1
    83f417ce:	02055793          	srli	a5,a0,0x20
    83f417d2:	02069613          	slli	a2,a3,0x20
    83f417d6:	8ff9                	and	a5,a5,a4
    83f417d8:	8fd1                	or	a5,a5,a2
    83f417da:	f2078753          	fmv.d.x	fa4,a5
    83f417de:	20000737          	lui	a4,0x20000
    83f417e2:	4016d69b          	sraiw	a3,a3,0x1
    83f417e6:	02e7f1d3          	fadd.d	ft3,fa5,fa4
    83f417ea:	0af77253          	fsub.d	ft4,fa4,fa5
    83f417ee:	00080637          	lui	a2,0x80
    83f417f2:	8ed9                	or	a3,a3,a4
    83f417f4:	9eb1                	addw	a3,a3,a2
    83f417f6:	010686bb          	addw	a3,a3,a6
    83f417fa:	1682                	slli	a3,a3,0x20
    83f417fc:	1a35f1d3          	fdiv.d	ft3,fa1,ft3
    83f41800:	f2068753          	fmv.d.x	fa4,a3
    83f41804:	00011717          	auipc	a4,0x11
    83f41808:	e1c73507          	fld	fa0,-484(a4) # 83f52620 <xISRStackTop+0x190>
    83f4180c:	00011717          	auipc	a4,0x11
    83f41810:	e0c73687          	fld	fa3,-500(a4) # 83f52618 <xISRStackTop+0x188>
    83f41814:	0af777d3          	fsub.d	fa5,fa4,fa5
    83f41818:	f2078753          	fmv.d.x	fa4,a5
    83f4181c:	00011797          	auipc	a5,0x11
    83f41820:	e447b387          	fld	ft7,-444(a5) # 83f52660 <xISRStackTop+0x1d0>
    83f41824:	00011797          	auipc	a5,0x11
    83f41828:	e2c7b887          	fld	fa7,-468(a5) # 83f52650 <xISRStackTop+0x1c0>
    83f4182c:	02051713          	slli	a4,a0,0x20
    83f41830:	00011617          	auipc	a2,0x11
    83f41834:	e1863107          	fld	ft2,-488(a2) # 83f52648 <xISRStackTop+0x1b8>
    83f41838:	00011617          	auipc	a2,0x11
    83f4183c:	df063f87          	fld	ft11,-528(a2) # 83f52628 <xISRStackTop+0x198>
    83f41840:	0af777d3          	fsub.d	fa5,fa4,fa5
    83f41844:	00011797          	auipc	a5,0x11
    83f41848:	e147b707          	fld	fa4,-492(a5) # 83f52658 <xISRStackTop+0x1c8>
    83f4184c:	00011617          	auipc	a2,0x11
    83f41850:	de463f07          	fld	ft10,-540(a2) # 83f52630 <xISRStackTop+0x1a0>
    83f41854:	00011617          	auipc	a2,0x11
    83f41858:	de463e87          	fld	ft9,-540(a2) # 83f52638 <xISRStackTop+0x1a8>
    83f4185c:	00011617          	auipc	a2,0x11
    83f41860:	de463e07          	fld	ft8,-540(a2) # 83f52640 <xISRStackTop+0x1b0>
    83f41864:	f2068453          	fmv.d.x	fs0,a3
    83f41868:	d20580d3          	fcvt.d.w	ft1,a1
    83f4186c:	12327653          	fmul.d	fa2,ft4,ft3
    83f41870:	12c67053          	fmul.d	ft0,fa2,fa2
    83f41874:	e20607d3          	fmv.x.d	a5,fa2
    83f41878:	00f77633          	and	a2,a4,a5
    83f4187c:	f2060653          	fmv.d.x	fa2,a2
    83f41880:	52d076c3          	fmadd.d	fa3,ft0,fa3,fa0
    83f41884:	2286724b          	fnmsub.d	ft4,fa2,fs0,ft4
    83f41888:	f2060453          	fmv.d.x	fs0,a2
    83f4188c:	f2078653          	fmv.d.x	fa2,a5
    83f41890:	12007553          	fmul.d	fa0,ft0,ft0
    83f41894:	02867353          	fadd.d	ft6,fa2,fs0
    83f41898:	fa06f6c3          	fmadd.d	fa3,fa3,ft0,ft11
    83f4189c:	22f477cb          	fnmsub.d	fa5,fs0,fa5,ft4
    83f418a0:	12847643          	fmadd.d	fa2,fs0,fs0,ft2
    83f418a4:	f206f6c3          	fmadd.d	fa3,fa3,ft0,ft10
    83f418a8:	1237f7d3          	fmul.d	fa5,fa5,ft3
    83f418ac:	ea06f6c3          	fmadd.d	fa3,fa3,ft0,ft9
    83f418b0:	12f37353          	fmul.d	ft6,ft6,fa5
    83f418b4:	e206f6c3          	fmadd.d	fa3,fa3,ft0,ft8
    83f418b8:	32d576c3          	fmadd.d	fa3,fa0,fa3,ft6
    83f418bc:	02d67653          	fadd.d	fa2,fa2,fa3
    83f418c0:	e20606d3          	fmv.x.d	a3,fa2
    83f418c4:	8ef9                	and	a3,a3,a4
    83f418c6:	f2068653          	fmv.d.x	fa2,a3
    83f418ca:	0a267653          	fsub.d	fa2,fa2,ft2
    83f418ce:	6284764b          	fnmsub.d	fa2,fs0,fs0,fa2
    83f418d2:	0ac6f6d3          	fsub.d	fa3,fa3,fa2
    83f418d6:	f2078653          	fmv.d.x	fa2,a5
    83f418da:	12c6f6d3          	fmul.d	fa3,fa3,fa2
    83f418de:	f2068653          	fmv.d.x	fa2,a3
    83f418e2:	6ac7f7c3          	fmadd.d	fa5,fa5,fa2,fa3
    83f418e6:	7a8676c3          	fmadd.d	fa3,fa2,fs0,fa5
    83f418ea:	e20687d3          	fmv.x.d	a5,fa3
    83f418ee:	8ff9                	and	a5,a5,a4
    83f418f0:	f2078553          	fmv.d.x	fa0,a5
    83f418f4:	52c476cb          	fnmsub.d	fa3,fs0,fa2,fa0
    83f418f8:	0ad7f7d3          	fsub.d	fa5,fa5,fa3
    83f418fc:	1317f7d3          	fmul.d	fa5,fa5,fa7
    83f41900:	7aa777c3          	fmadd.d	fa5,fa4,fa0,fa5
    83f41904:	0307f7d3          	fadd.d	fa5,fa5,fa6
    83f41908:	7aa3f743          	fmadd.d	fa4,ft7,fa0,fa5
    83f4190c:	02577753          	fadd.d	fa4,fa4,ft5
    83f41910:	02177753          	fadd.d	fa4,fa4,ft1
    83f41914:	e20706d3          	fmv.x.d	a3,fa4
    83f41918:	8f75                	and	a4,a4,a3
    83f4191a:	f2070753          	fmv.d.x	fa4,a4
    83f4191e:	0a1776d3          	fsub.d	fa3,fa4,ft1
    83f41922:	0a56f6d3          	fsub.d	fa3,fa3,ft5
    83f41926:	6a7576cb          	fnmsub.d	fa3,fa0,ft7,fa3
    83f4192a:	0ad7f6d3          	fsub.d	fa3,fa5,fa3
    83f4192e:	3c7d                	addiw	s8,s8,-1
    83f41930:	017c6bb3          	or	s7,s8,s7
    83f41934:	2b81                	sext.w	s7,s7
    83f41936:	22b58453          	fmv.d	fs0,fa1
    83f4193a:	000b9663          	bnez	s7,83f41946 <__ieee754_pow+0x44c>
    83f4193e:	00011797          	auipc	a5,0x11
    83f41942:	b727b407          	fld	fs0,-1166(a5) # 83f524b0 <xISRStackTop+0x20>
    83f41946:	020a5793          	srli	a5,s4,0x20
    83f4194a:	1782                	slli	a5,a5,0x20
    83f4194c:	f2078653          	fmv.d.x	fa2,a5
    83f41950:	f20a07d3          	fmv.d.x	fa5,s4
    83f41954:	40900637          	lui	a2,0x40900
    83f41958:	0ac7f7d3          	fsub.d	fa5,fa5,fa2
    83f4195c:	f20a0653          	fmv.d.x	fa2,s4
    83f41960:	12c6f6d3          	fmul.d	fa3,fa3,fa2
    83f41964:	f2078653          	fmv.d.x	fa2,a5
    83f41968:	12c77653          	fmul.d	fa2,fa4,fa2
    83f4196c:	6ae7f7c3          	fmadd.d	fa5,fa5,fa4,fa3
    83f41970:	02c7f753          	fadd.d	fa4,fa5,fa2
    83f41974:	e20706d3          	fmv.x.d	a3,fa4
    83f41978:	4206d593          	srai	a1,a3,0x20
    83f4197c:	0006871b          	sext.w	a4,a3
    83f41980:	16c5c163          	blt	a1,a2,83f41ae2 <__ieee754_pow+0x5e8>
    83f41984:	bf7007b7          	lui	a5,0xbf700
    83f41988:	9fad                	addw	a5,a5,a1
    83f4198a:	8fd9                	or	a5,a5,a4
    83f4198c:	2781                	sext.w	a5,a5
    83f4198e:	28079163          	bnez	a5,83f41c10 <__ieee754_pow+0x716>
    83f41992:	f20686d3          	fmv.d.x	fa3,a3
    83f41996:	00011797          	auipc	a5,0x11
    83f4199a:	cd27b707          	fld	fa4,-814(a5) # 83f52668 <xISRStackTop+0x1d8>
    83f4199e:	02e7f753          	fadd.d	fa4,fa5,fa4
    83f419a2:	0ac6f6d3          	fsub.d	fa3,fa3,fa2
    83f419a6:	a2e697d3          	flt.d	a5,fa3,fa4
    83f419aa:	26079363          	bnez	a5,83f41c10 <__ieee754_pow+0x716>
    83f419ae:	4145d79b          	sraiw	a5,a1,0x14
    83f419b2:	7ff7f793          	andi	a5,a5,2047
    83f419b6:	00100537          	lui	a0,0x100
    83f419ba:	c027879b          	addiw	a5,a5,-1022
    83f419be:	40f557bb          	sraw	a5,a0,a5
    83f419c2:	9fad                	addw	a5,a5,a1
    83f419c4:	4147d69b          	sraiw	a3,a5,0x14
    83f419c8:	7ff6f693          	andi	a3,a3,2047
    83f419cc:	c016869b          	addiw	a3,a3,-1023
    83f419d0:	fff5061b          	addiw	a2,a0,-1
    83f419d4:	02c79713          	slli	a4,a5,0x2c
    83f419d8:	40d6563b          	sraw	a2,a2,a3
    83f419dc:	9331                	srli	a4,a4,0x2c
    83f419de:	8f49                	or	a4,a4,a0
    83f419e0:	fff64613          	not	a2,a2
    83f419e4:	4551                	li	a0,20
    83f419e6:	40d506bb          	subw	a3,a0,a3
    83f419ea:	8ff1                	and	a5,a5,a2
    83f419ec:	40d7553b          	sraw	a0,a4,a3
    83f419f0:	1782                	slli	a5,a5,0x20
    83f419f2:	0005d463          	bgez	a1,83f419fa <__ieee754_pow+0x500>
    83f419f6:	40a0053b          	negw	a0,a0
    83f419fa:	f2078753          	fmv.d.x	fa4,a5
    83f419fe:	0145161b          	slliw	a2,a0,0x14
    83f41a02:	0ae67653          	fsub.d	fa2,fa2,fa4
    83f41a06:	02c7f753          	fadd.d	fa4,fa5,fa2
    83f41a0a:	e20706d3          	fmv.x.d	a3,fa4
    83f41a0e:	57fd                	li	a5,-1
    83f41a10:	02079713          	slli	a4,a5,0x20
    83f41a14:	8ef9                	and	a3,a3,a4
    83f41a16:	f2068753          	fmv.d.x	fa4,a3
    83f41a1a:	00011717          	auipc	a4,0x11
    83f41a1e:	c5e73687          	fld	fa3,-930(a4) # 83f52678 <xISRStackTop+0x1e8>
    83f41a22:	00011717          	auipc	a4,0x11
    83f41a26:	c5e73287          	fld	ft5,-930(a4) # 83f52680 <xISRStackTop+0x1f0>
    83f41a2a:	0ac77653          	fsub.d	fa2,fa4,fa2
    83f41a2e:	12e6f6d3          	fmul.d	fa3,fa3,fa4
    83f41a32:	00011717          	auipc	a4,0x11
    83f41a36:	c5673507          	fld	fa0,-938(a4) # 83f52688 <xISRStackTop+0x1f8>
    83f41a3a:	00011717          	auipc	a4,0x11
    83f41a3e:	b3673707          	fld	fa4,-1226(a4) # 83f52570 <xISRStackTop+0xe0>
    83f41a42:	00011717          	auipc	a4,0x11
    83f41a46:	b3673207          	fld	ft4,-1226(a4) # 83f52578 <xISRStackTop+0xe8>
    83f41a4a:	00011717          	auipc	a4,0x11
    83f41a4e:	b3673187          	fld	ft3,-1226(a4) # 83f52580 <xISRStackTop+0xf0>
    83f41a52:	00011717          	auipc	a4,0x11
    83f41a56:	b3673107          	fld	ft2,-1226(a4) # 83f52588 <xISRStackTop+0xf8>
    83f41a5a:	0ac7f7d3          	fsub.d	fa5,fa5,fa2
    83f41a5e:	00011717          	auipc	a4,0x11
    83f41a62:	b3273087          	fld	ft1,-1230(a4) # 83f52590 <xISRStackTop+0x100>
    83f41a66:	00011717          	auipc	a4,0x11
    83f41a6a:	a4273007          	fld	ft0,-1470(a4) # 83f524a8 <xISRStackTop+0x18>
    83f41a6e:	6a57f7c3          	fmadd.d	fa5,fa5,ft5,fa3
    83f41a72:	f20686d3          	fmv.d.x	fa3,a3
    83f41a76:	f20682d3          	fmv.d.x	ft5,a3
    83f41a7a:	7ad57643          	fmadd.d	fa2,fa0,fa3,fa5
    83f41a7e:	12c676d3          	fmul.d	fa3,fa2,fa2
    83f41a82:	62a2f54b          	fnmsub.d	fa0,ft5,fa0,fa2
    83f41a86:	22e6f743          	fmadd.d	fa4,fa3,fa4,ft4
    83f41a8a:	0aa7f7d3          	fsub.d	fa5,fa5,fa0
    83f41a8e:	1ad77743          	fmadd.d	fa4,fa4,fa3,ft3
    83f41a92:	7af677c3          	fmadd.d	fa5,fa2,fa5,fa5
    83f41a96:	12d77743          	fmadd.d	fa4,fa4,fa3,ft2
    83f41a9a:	0ad77743          	fmadd.d	fa4,fa4,fa3,ft1
    83f41a9e:	62d7774b          	fnmsub.d	fa4,fa4,fa3,fa2
    83f41aa2:	12e676d3          	fmul.d	fa3,fa2,fa4
    83f41aa6:	0a077753          	fsub.d	fa4,fa4,ft0
    83f41aaa:	1ae6f753          	fdiv.d	fa4,fa3,fa4
    83f41aae:	0af777d3          	fsub.d	fa5,fa4,fa5
    83f41ab2:	0ac7f7d3          	fsub.d	fa5,fa5,fa2
    83f41ab6:	0af5f7d3          	fsub.d	fa5,fa1,fa5
    83f41aba:	e2078753          	fmv.x.d	a4,fa5
    83f41abe:	42075693          	srai	a3,a4,0x20
    83f41ac2:	9e35                	addw	a2,a2,a3
    83f41ac4:	4146569b          	sraiw	a3,a2,0x14
    83f41ac8:	18d05c63          	blez	a3,83f41c60 <__ieee754_pow+0x766>
    83f41acc:	9381                	srli	a5,a5,0x20
    83f41ace:	1602                	slli	a2,a2,0x20
    83f41ad0:	8f7d                	and	a4,a4,a5
    83f41ad2:	8f51                	or	a4,a4,a2
    83f41ad4:	f20707d3          	fmv.d.x	fa5,a4
    83f41ad8:	1287f7d3          	fmul.d	fa5,fa5,fs0
    83f41adc:	e2078753          	fmv.x.d	a4,fa5
    83f41ae0:	bcf9                	j	83f415be <__ieee754_pow+0xc4>
    83f41ae2:	02159793          	slli	a5,a1,0x21
    83f41ae6:	4090d637          	lui	a2,0x4090d
    83f41aea:	9385                	srli	a5,a5,0x21
    83f41aec:	bff60613          	addi	a2,a2,-1025 # 4090cbff <CVIMMAP_DRAM_SIZE+0x3c90cbff>
    83f41af0:	10f65863          	bge	a2,a5,83f41c00 <__ieee754_pow+0x706>
    83f41af4:	3f6f37b7          	lui	a5,0x3f6f3
    83f41af8:	4007879b          	addiw	a5,a5,1024
    83f41afc:	9fad                	addw	a5,a5,a1
    83f41afe:	8fd9                	or	a5,a5,a4
    83f41b00:	2781                	sext.w	a5,a5
    83f41b02:	e799                	bnez	a5,83f41b10 <__ieee754_pow+0x616>
    83f41b04:	0ac77753          	fsub.d	fa4,fa4,fa2
    83f41b08:	a2e787d3          	fle.d	a5,fa5,fa4
    83f41b0c:	ea0781e3          	beqz	a5,83f419ae <__ieee754_pow+0x4b4>
    83f41b10:	00011797          	auipc	a5,0x11
    83f41b14:	b607b787          	fld	fa5,-1184(a5) # 83f52670 <xISRStackTop+0x1e0>
    83f41b18:	12f47453          	fmul.d	fs0,fs0,fa5
    83f41b1c:	12f477d3          	fmul.d	fa5,fs0,fa5
    83f41b20:	e2078753          	fmv.x.d	a4,fa5
    83f41b24:	bc69                	j	83f415be <__ieee754_pow+0xc4>
    83f41b26:	b80ad7e3          	bgez	s5,83f416b4 <__ieee754_pow+0x1ba>
    83f41b2a:	f20a07d3          	fmv.d.x	fa5,s4
    83f41b2e:	22f797d3          	fneg.d	fa5,fa5
    83f41b32:	e2078753          	fmv.x.d	a4,fa5
    83f41b36:	b461                	j	83f415be <__ieee754_pow+0xc4>
    83f41b38:	f20002d3          	fmv.d.x	ft5,zero
    83f41b3c:	00010797          	auipc	a5,0x10
    83f41b40:	7d47b587          	fld	fa1,2004(a5) # 83f52310 <__func__.1+0x118>
    83f41b44:	22b587d3          	fmv.d	fa5,fa1
    83f41b48:	22528853          	fmv.d	fa6,ft5
    83f41b4c:	4801                	li	a6,0
    83f41b4e:	b9bd                	j	83f417cc <__ieee754_pow+0x2d2>
    83f41b50:	3ff007b7          	lui	a5,0x3ff00
    83f41b54:	ffe78693          	addi	a3,a5,-2 # 3feffffe <CVIMMAP_DRAM_SIZE+0x3beffffe>
    83f41b58:	b696dfe3          	bge	a3,s1,83f416d6 <__ieee754_pow+0x1dc>
    83f41b5c:	b297c3e3          	blt	a5,s1,83f41682 <__ieee754_pow+0x188>
    83f41b60:	f20707d3          	fmv.d.x	fa5,a4
    83f41b64:	00010797          	auipc	a5,0x10
    83f41b68:	7ac7b587          	fld	fa1,1964(a5) # 83f52310 <__func__.1+0x118>
    83f41b6c:	00011797          	auipc	a5,0x11
    83f41b70:	a447b707          	fld	fa4,-1468(a5) # 83f525b0 <xISRStackTop+0x120>
    83f41b74:	0ab7f7d3          	fsub.d	fa5,fa5,fa1
    83f41b78:	00010797          	auipc	a5,0x10
    83f41b7c:	7a87b607          	fld	fa2,1960(a5) # 83f52320 <__func__.1+0x128>
    83f41b80:	00010797          	auipc	a5,0x10
    83f41b84:	7187b087          	fld	ft1,1816(a5) # 83f52298 <__func__.1+0xa0>
    83f41b88:	00011797          	auipc	a5,0x11
    83f41b8c:	9d07b007          	fld	ft0,-1584(a5) # 83f52558 <xISRStackTop+0xc8>
    83f41b90:	00011797          	auipc	a5,0x11
    83f41b94:	a707b687          	fld	fa3,-1424(a5) # 83f52600 <xISRStackTop+0x170>
    83f41b98:	00011797          	auipc	a5,0x11
    83f41b9c:	a707b507          	fld	fa0,-1424(a5) # 83f52608 <xISRStackTop+0x178>
    83f41ba0:	72c7f64b          	fnmsub.d	fa2,fa5,fa2,fa4
    83f41ba4:	12f7f753          	fmul.d	fa4,fa5,fa5
    83f41ba8:	0af6764b          	fnmsub.d	fa2,fa2,fa5,ft1
    83f41bac:	12c77753          	fmul.d	fa4,fa4,fa2
    83f41bb0:	12077753          	fmul.d	fa4,fa4,ft0
    83f41bb4:	72d7f6c7          	fmsub.d	fa3,fa5,fa3,fa4
    83f41bb8:	6aa7f743          	fmadd.d	fa4,fa5,fa0,fa3
    83f41bbc:	e20707d3          	fmv.x.d	a5,fa4
    83f41bc0:	9381                	srli	a5,a5,0x20
    83f41bc2:	1782                	slli	a5,a5,0x20
    83f41bc4:	f2078753          	fmv.d.x	fa4,a5
    83f41bc8:	72a7f7cb          	fnmsub.d	fa5,fa5,fa0,fa4
    83f41bcc:	0af6f6d3          	fsub.d	fa3,fa3,fa5
    83f41bd0:	bbb9                	j	83f4192e <__ieee754_pow+0x434>
    83f41bd2:	f20407d3          	fmv.d.x	fa5,s0
    83f41bd6:	12f7f7d3          	fmul.d	fa5,fa5,fa5
    83f41bda:	e2078753          	fmv.x.d	a4,fa5
    83f41bde:	b2c5                	j	83f415be <__ieee754_pow+0xc4>
    83f41be0:	b40719e3          	bnez	a4,83f41732 <__ieee754_pow+0x238>
    83f41be4:	4751                	li	a4,20
    83f41be6:	40c707bb          	subw	a5,a4,a2
    83f41bea:	40f9d73b          	sraw	a4,s3,a5
    83f41bee:	00f717bb          	sllw	a5,a4,a5
    83f41bf2:	97379ce3          	bne	a5,s3,83f4156a <__ieee754_pow+0x70>
    83f41bf6:	8b05                	andi	a4,a4,1
    83f41bf8:	4c09                	li	s8,2
    83f41bfa:	40ec0c3b          	subw	s8,s8,a4
    83f41bfe:	b2b5                	j	83f4156a <__ieee754_pow+0x70>
    83f41c00:	3fe00737          	lui	a4,0x3fe00
    83f41c04:	4601                	li	a2,0
    83f41c06:	4501                	li	a0,0
    83f41c08:	e0f753e3          	bge	a4,a5,83f41a0e <__ieee754_pow+0x514>
    83f41c0c:	83d1                	srli	a5,a5,0x14
    83f41c0e:	b365                	j	83f419b6 <__ieee754_pow+0x4bc>
    83f41c10:	00011797          	auipc	a5,0x11
    83f41c14:	8907b787          	fld	fa5,-1904(a5) # 83f524a0 <xISRStackTop+0x10>
    83f41c18:	12f47453          	fmul.d	fs0,fs0,fa5
    83f41c1c:	12f477d3          	fmul.d	fa5,fs0,fa5
    83f41c20:	e2078753          	fmv.x.d	a4,fa5
    83f41c24:	ba69                	j	83f415be <__ieee754_pow+0xc4>
    83f41c26:	4785                	li	a5,1
    83f41c28:	98fc1be3          	bne	s8,a5,83f415be <__ieee754_pow+0xc4>
    83f41c2c:	f20707d3          	fmv.d.x	fa5,a4
    83f41c30:	22f797d3          	fneg.d	fa5,fa5
    83f41c34:	e2078753          	fmv.x.d	a4,fa5
    83f41c38:	b259                	j	83f415be <__ieee754_pow+0xc4>
    83f41c3a:	00011797          	auipc	a5,0x11
    83f41c3e:	9b67b287          	fld	ft5,-1610(a5) # 83f525f0 <xISRStackTop+0x160>
    83f41c42:	00011797          	auipc	a5,0x11
    83f41c46:	9b67b807          	fld	fa6,-1610(a5) # 83f525f8 <xISRStackTop+0x168>
    83f41c4a:	00040837          	lui	a6,0x40
    83f41c4e:	00011797          	auipc	a5,0x11
    83f41c52:	86a7b787          	fld	fa5,-1942(a5) # 83f524b8 <xISRStackTop+0x28>
    83f41c56:	00010797          	auipc	a5,0x10
    83f41c5a:	6ba7b587          	fld	fa1,1722(a5) # 83f52310 <__func__.1+0x118>
    83f41c5e:	b6bd                	j	83f417cc <__ieee754_pow+0x2d2>
    83f41c60:	22f78553          	fmv.d	fa0,fa5
    83f41c64:	779000ef          	jal	ra,83f42bdc <scalbn>
    83f41c68:	e2050753          	fmv.x.d	a4,fa0
    83f41c6c:	b5a5                	j	83f41ad4 <__ieee754_pow+0x5da>

0000000083f41c6e <__ieee754_rem_pio2>:
    83f41c6e:	e20507d3          	fmv.x.d	a5,fa0
    83f41c72:	7139                	addi	sp,sp,-64
    83f41c74:	f04a                	sd	s2,32(sp)
    83f41c76:	4207d913          	srai	s2,a5,0x20
    83f41c7a:	f822                	sd	s0,48(sp)
    83f41c7c:	3fe92737          	lui	a4,0x3fe92
    83f41c80:	02191413          	slli	s0,s2,0x21
    83f41c84:	f426                	sd	s1,40(sp)
    83f41c86:	fc06                	sd	ra,56(sp)
    83f41c88:	1fb70713          	addi	a4,a4,507 # 3fe921fb <CVIMMAP_DRAM_SIZE+0x3be921fb>
    83f41c8c:	9005                	srli	s0,s0,0x21
    83f41c8e:	84aa                	mv	s1,a0
    83f41c90:	0e875a63          	bge	a4,s0,83f41d84 <__ieee754_rem_pio2+0x116>
    83f41c94:	4002e737          	lui	a4,0x4002e
    83f41c98:	97b70713          	addi	a4,a4,-1669 # 4002d97b <CVIMMAP_DRAM_SIZE+0x3c02d97b>
    83f41c9c:	04874363          	blt	a4,s0,83f41ce2 <__ieee754_rem_pio2+0x74>
    83f41ca0:	00011717          	auipc	a4,0x11
    83f41ca4:	9f073787          	fld	fa5,-1552(a4) # 83f52690 <xISRStackTop+0x200>
    83f41ca8:	3ff92737          	lui	a4,0x3ff92
    83f41cac:	1fb70713          	addi	a4,a4,507 # 3ff921fb <CVIMMAP_DRAM_SIZE+0x3bf921fb>
    83f41cb0:	23205c63          	blez	s2,83f41ee8 <__ieee754_rem_pio2+0x27a>
    83f41cb4:	0af577d3          	fsub.d	fa5,fa0,fa5
    83f41cb8:	0ee40663          	beq	s0,a4,83f41da4 <__ieee754_rem_pio2+0x136>
    83f41cbc:	00011797          	auipc	a5,0x11
    83f41cc0:	9dc7b707          	fld	fa4,-1572(a5) # 83f52698 <xISRStackTop+0x208>
    83f41cc4:	0ae7f6d3          	fsub.d	fa3,fa5,fa4
    83f41cc8:	4505                	li	a0,1
    83f41cca:	0ad7f7d3          	fsub.d	fa5,fa5,fa3
    83f41cce:	a094                	fsd	fa3,0(s1)
    83f41cd0:	0ae7f7d3          	fsub.d	fa5,fa5,fa4
    83f41cd4:	a49c                	fsd	fa5,8(s1)
    83f41cd6:	70e2                	ld	ra,56(sp)
    83f41cd8:	7442                	ld	s0,48(sp)
    83f41cda:	74a2                	ld	s1,40(sp)
    83f41cdc:	7902                	ld	s2,32(sp)
    83f41cde:	6121                	addi	sp,sp,64
    83f41ce0:	8082                	ret
    83f41ce2:	41392737          	lui	a4,0x41392
    83f41ce6:	1fb70713          	addi	a4,a4,507 # 413921fb <CVIMMAP_DRAM_SIZE+0x3d3921fb>
    83f41cea:	0e875663          	bge	a4,s0,83f41dd6 <__ieee754_rem_pio2+0x168>
    83f41cee:	7ff00737          	lui	a4,0x7ff00
    83f41cf2:	0ae45363          	bge	s0,a4,83f41d98 <__ieee754_rem_pio2+0x12a>
    83f41cf6:	4144561b          	sraiw	a2,s0,0x14
    83f41cfa:	bea6061b          	addiw	a2,a2,-1046
    83f41cfe:	86be                	mv	a3,a5
    83f41d00:	0146179b          	slliw	a5,a2,0x14
    83f41d04:	9c1d                	subw	s0,s0,a5
    83f41d06:	1682                	slli	a3,a3,0x20
    83f41d08:	9281                	srli	a3,a3,0x20
    83f41d0a:	1402                	slli	s0,s0,0x20
    83f41d0c:	8c55                	or	s0,s0,a3
    83f41d0e:	f20407d3          	fmv.d.x	fa5,s0
    83f41d12:	f20406d3          	fmv.d.x	fa3,s0
    83f41d16:	00011717          	auipc	a4,0x11
    83f41d1a:	9b273707          	fld	fa4,-1614(a4) # 83f526c8 <xISRStackTop+0x238>
    83f41d1e:	c20797d3          	fcvt.w.d	a5,fa5,rtz
    83f41d22:	468d                	li	a3,3
    83f41d24:	d20787d3          	fcvt.d.w	fa5,a5
    83f41d28:	0af6f6d3          	fsub.d	fa3,fa3,fa5
    83f41d2c:	a43e                	fsd	fa5,8(sp)
    83f41d2e:	12e6f7d3          	fmul.d	fa5,fa3,fa4
    83f41d32:	c20797d3          	fcvt.w.d	a5,fa5,rtz
    83f41d36:	d20786d3          	fcvt.d.w	fa3,a5
    83f41d3a:	2781                	sext.w	a5,a5
    83f41d3c:	0ad7f7d3          	fsub.d	fa5,fa5,fa3
    83f41d40:	a836                	fsd	fa3,16(sp)
    83f41d42:	12e7f7d3          	fmul.d	fa5,fa5,fa4
    83f41d46:	f2000753          	fmv.d.x	fa4,zero
    83f41d4a:	a2e7a753          	feq.d	a4,fa5,fa4
    83f41d4e:	ac3e                	fsd	fa5,24(sp)
    83f41d50:	c701                	beqz	a4,83f41d58 <__ieee754_rem_pio2+0xea>
    83f41d52:	00f036b3          	snez	a3,a5
    83f41d56:	0685                	addi	a3,a3,1
    83f41d58:	0000f797          	auipc	a5,0xf
    83f41d5c:	da078793          	addi	a5,a5,-608 # 83f50af8 <two_over_pi>
    83f41d60:	4709                	li	a4,2
    83f41d62:	85a6                	mv	a1,s1
    83f41d64:	0028                	addi	a0,sp,8
    83f41d66:	4f2000ef          	jal	ra,83f42258 <__kernel_rem_pio2>
    83f41d6a:	f60956e3          	bgez	s2,83f41cd6 <__ieee754_rem_pio2+0x68>
    83f41d6e:	2098                	fld	fa4,0(s1)
    83f41d70:	249c                	fld	fa5,8(s1)
    83f41d72:	40a0053b          	negw	a0,a0
    83f41d76:	22e71753          	fneg.d	fa4,fa4
    83f41d7a:	22f797d3          	fneg.d	fa5,fa5
    83f41d7e:	a098                	fsd	fa4,0(s1)
    83f41d80:	a49c                	fsd	fa5,8(s1)
    83f41d82:	bf91                	j	83f41cd6 <__ieee754_rem_pio2+0x68>
    83f41d84:	70e2                	ld	ra,56(sp)
    83f41d86:	7442                	ld	s0,48(sp)
    83f41d88:	a088                	fsd	fa0,0(s1)
    83f41d8a:	00053423          	sd	zero,8(a0) # 100008 <CVIMMAP_FREERTOS_SIZE+0x40008>
    83f41d8e:	74a2                	ld	s1,40(sp)
    83f41d90:	7902                	ld	s2,32(sp)
    83f41d92:	4501                	li	a0,0
    83f41d94:	6121                	addi	sp,sp,64
    83f41d96:	8082                	ret
    83f41d98:	0aa577d3          	fsub.d	fa5,fa0,fa0
    83f41d9c:	4501                	li	a0,0
    83f41d9e:	a49c                	fsd	fa5,8(s1)
    83f41da0:	a09c                	fsd	fa5,0(s1)
    83f41da2:	bf15                	j	83f41cd6 <__ieee754_rem_pio2+0x68>
    83f41da4:	00011797          	auipc	a5,0x11
    83f41da8:	8fc7b707          	fld	fa4,-1796(a5) # 83f526a0 <xISRStackTop+0x210>
    83f41dac:	0ae7f7d3          	fsub.d	fa5,fa5,fa4
    83f41db0:	00011797          	auipc	a5,0x11
    83f41db4:	8f87b707          	fld	fa4,-1800(a5) # 83f526a8 <xISRStackTop+0x218>
    83f41db8:	70e2                	ld	ra,56(sp)
    83f41dba:	7442                	ld	s0,48(sp)
    83f41dbc:	7902                	ld	s2,32(sp)
    83f41dbe:	4505                	li	a0,1
    83f41dc0:	0ae7f6d3          	fsub.d	fa3,fa5,fa4
    83f41dc4:	0ad7f7d3          	fsub.d	fa5,fa5,fa3
    83f41dc8:	a094                	fsd	fa3,0(s1)
    83f41dca:	0ae7f7d3          	fsub.d	fa5,fa5,fa4
    83f41dce:	a49c                	fsd	fa5,8(s1)
    83f41dd0:	74a2                	ld	s1,40(sp)
    83f41dd2:	6121                	addi	sp,sp,64
    83f41dd4:	8082                	ret
    83f41dd6:	b73fe0ef          	jal	ra,83f40948 <fabs>
    83f41dda:	00011797          	auipc	a5,0x11
    83f41dde:	8d67b687          	fld	fa3,-1834(a5) # 83f526b0 <xISRStackTop+0x220>
    83f41de2:	00010797          	auipc	a5,0x10
    83f41de6:	4b67b607          	fld	fa2,1206(a5) # 83f52298 <__func__.1+0xa0>
    83f41dea:	62d576c3          	fmadd.d	fa3,fa0,fa3,fa2
    83f41dee:	00011797          	auipc	a5,0x11
    83f41df2:	8a27b787          	fld	fa5,-1886(a5) # 83f52690 <xISRStackTop+0x200>
    83f41df6:	00011797          	auipc	a5,0x11
    83f41dfa:	8a27b707          	fld	fa4,-1886(a5) # 83f52698 <xISRStackTop+0x208>
    83f41dfe:	47fd                	li	a5,31
    83f41e00:	c20696d3          	fcvt.w.d	a3,fa3,rtz
    83f41e04:	d20686d3          	fcvt.d.w	fa3,a3
    83f41e08:	0006851b          	sext.w	a0,a3
    83f41e0c:	52f6f54b          	fnmsub.d	fa0,fa3,fa5,fa0
    83f41e10:	12e6f7d3          	fmul.d	fa5,fa3,fa4
    83f41e14:	04a7c563          	blt	a5,a0,83f41e5e <__ieee754_rem_pio2+0x1f0>
    83f41e18:	0af57753          	fsub.d	fa4,fa0,fa5
    83f41e1c:	fff6879b          	addiw	a5,a3,-1
    83f41e20:	00279713          	slli	a4,a5,0x2
    83f41e24:	0000f797          	auipc	a5,0xf
    83f41e28:	c5478793          	addi	a5,a5,-940 # 83f50a78 <npio2_hw>
    83f41e2c:	97ba                	add	a5,a5,a4
    83f41e2e:	4398                	lw	a4,0(a5)
    83f41e30:	e20707d3          	fmv.x.d	a5,fa4
    83f41e34:	02870963          	beq	a4,s0,83f41e66 <__ieee754_rem_pio2+0x1f8>
    83f41e38:	e09c                	sd	a5,0(s1)
    83f41e3a:	f2078753          	fmv.d.x	fa4,a5
    83f41e3e:	0ae57553          	fsub.d	fa0,fa0,fa4
    83f41e42:	0af57553          	fsub.d	fa0,fa0,fa5
    83f41e46:	a488                	fsd	fa0,8(s1)
    83f41e48:	e80957e3          	bgez	s2,83f41cd6 <__ieee754_rem_pio2+0x68>
    83f41e4c:	22e717d3          	fneg.d	fa5,fa4
    83f41e50:	22a51553          	fneg.d	fa0,fa0
    83f41e54:	40d0053b          	negw	a0,a3
    83f41e58:	a09c                	fsd	fa5,0(s1)
    83f41e5a:	a488                	fsd	fa0,8(s1)
    83f41e5c:	bdad                	j	83f41cd6 <__ieee754_rem_pio2+0x68>
    83f41e5e:	0af57753          	fsub.d	fa4,fa0,fa5
    83f41e62:	e20707d3          	fmv.x.d	a5,fa4
    83f41e66:	0347d713          	srli	a4,a5,0x34
    83f41e6a:	4144541b          	sraiw	s0,s0,0x14
    83f41e6e:	7ff77713          	andi	a4,a4,2047
    83f41e72:	40e4073b          	subw	a4,s0,a4
    83f41e76:	4641                	li	a2,16
    83f41e78:	fce650e3          	bge	a2,a4,83f41e38 <__ieee754_rem_pio2+0x1ca>
    83f41e7c:	00011797          	auipc	a5,0x11
    83f41e80:	8247b607          	fld	fa2,-2012(a5) # 83f526a0 <xISRStackTop+0x210>
    83f41e84:	52c6f74b          	fnmsub.d	fa4,fa3,fa2,fa0
    83f41e88:	00011797          	auipc	a5,0x11
    83f41e8c:	8207b787          	fld	fa5,-2016(a5) # 83f526a8 <xISRStackTop+0x218>
    83f41e90:	03100613          	li	a2,49
    83f41e94:	0ae57553          	fsub.d	fa0,fa0,fa4
    83f41e98:	52c6f54b          	fnmsub.d	fa0,fa3,fa2,fa0
    83f41e9c:	52f6f7c7          	fmsub.d	fa5,fa3,fa5,fa0
    83f41ea0:	0af77653          	fsub.d	fa2,fa4,fa5
    83f41ea4:	e20607d3          	fmv.x.d	a5,fa2
    83f41ea8:	0347d713          	srli	a4,a5,0x34
    83f41eac:	7ff77713          	andi	a4,a4,2047
    83f41eb0:	9c19                	subw	s0,s0,a4
    83f41eb2:	00864663          	blt	a2,s0,83f41ebe <__ieee754_rem_pio2+0x250>
    83f41eb6:	22e70553          	fmv.d	fa0,fa4
    83f41eba:	a090                	fsd	fa2,0(s1)
    83f41ebc:	bfbd                	j	83f41e3a <__ieee754_rem_pio2+0x1cc>
    83f41ebe:	00010797          	auipc	a5,0x10
    83f41ec2:	7fa7b607          	fld	fa2,2042(a5) # 83f526b8 <xISRStackTop+0x228>
    83f41ec6:	72c6f54b          	fnmsub.d	fa0,fa3,fa2,fa4
    83f41eca:	00010797          	auipc	a5,0x10
    83f41ece:	7f67b787          	fld	fa5,2038(a5) # 83f526c0 <xISRStackTop+0x230>
    83f41ed2:	0aa77753          	fsub.d	fa4,fa4,fa0
    83f41ed6:	72c6f74b          	fnmsub.d	fa4,fa3,fa2,fa4
    83f41eda:	72f6f7c7          	fmsub.d	fa5,fa3,fa5,fa4
    83f41ede:	0af57753          	fsub.d	fa4,fa0,fa5
    83f41ee2:	e20707d3          	fmv.x.d	a5,fa4
    83f41ee6:	bf89                	j	83f41e38 <__ieee754_rem_pio2+0x1ca>
    83f41ee8:	02f577d3          	fadd.d	fa5,fa0,fa5
    83f41eec:	02e40063          	beq	s0,a4,83f41f0c <__ieee754_rem_pio2+0x29e>
    83f41ef0:	00010797          	auipc	a5,0x10
    83f41ef4:	7a87b707          	fld	fa4,1960(a5) # 83f52698 <xISRStackTop+0x208>
    83f41ef8:	02e7f6d3          	fadd.d	fa3,fa5,fa4
    83f41efc:	557d                	li	a0,-1
    83f41efe:	0ad7f7d3          	fsub.d	fa5,fa5,fa3
    83f41f02:	a094                	fsd	fa3,0(s1)
    83f41f04:	02e7f7d3          	fadd.d	fa5,fa5,fa4
    83f41f08:	a49c                	fsd	fa5,8(s1)
    83f41f0a:	b3f1                	j	83f41cd6 <__ieee754_rem_pio2+0x68>
    83f41f0c:	00010797          	auipc	a5,0x10
    83f41f10:	7947b707          	fld	fa4,1940(a5) # 83f526a0 <xISRStackTop+0x210>
    83f41f14:	02e7f7d3          	fadd.d	fa5,fa5,fa4
    83f41f18:	00010797          	auipc	a5,0x10
    83f41f1c:	7907b707          	fld	fa4,1936(a5) # 83f526a8 <xISRStackTop+0x218>
    83f41f20:	557d                	li	a0,-1
    83f41f22:	02e7f6d3          	fadd.d	fa3,fa5,fa4
    83f41f26:	0ad7f7d3          	fsub.d	fa5,fa5,fa3
    83f41f2a:	a094                	fsd	fa3,0(s1)
    83f41f2c:	02e7f7d3          	fadd.d	fa5,fa5,fa4
    83f41f30:	a49c                	fsd	fa5,8(s1)
    83f41f32:	b355                	j	83f41cd6 <__ieee754_rem_pio2+0x68>

0000000083f41f34 <__ieee754_sqrt>:
    83f41f34:	e2050553          	fmv.x.d	a0,fa0
    83f41f38:	7ff00737          	lui	a4,0x7ff00
    83f41f3c:	7ff006b7          	lui	a3,0x7ff00
    83f41f40:	42055793          	srai	a5,a0,0x20
    83f41f44:	8f7d                	and	a4,a4,a5
    83f41f46:	0005061b          	sext.w	a2,a0
    83f41f4a:	18d70e63          	beq	a4,a3,83f420e6 <__ieee754_sqrt+0x1b2>
    83f41f4e:	10f05a63          	blez	a5,83f42062 <__ieee754_sqrt+0x12e>
    83f41f52:	4147d593          	srai	a1,a5,0x14
    83f41f56:	12058763          	beqz	a1,83f42084 <__ieee754_sqrt+0x150>
    83f41f5a:	02c79693          	slli	a3,a5,0x2c
    83f41f5e:	92b1                	srli	a3,a3,0x2c
    83f41f60:	001007b7          	lui	a5,0x100
    83f41f64:	8edd                	or	a3,a3,a5
    83f41f66:	c015859b          	addiw	a1,a1,-1023
    83f41f6a:	0016969b          	slliw	a3,a3,0x1
    83f41f6e:	01f6579b          	srliw	a5,a2,0x1f
    83f41f72:	0016171b          	slliw	a4,a2,0x1
    83f41f76:	0015f813          	andi	a6,a1,1
    83f41f7a:	9fb5                	addw	a5,a5,a3
    83f41f7c:	853a                	mv	a0,a4
    83f41f7e:	00080963          	beqz	a6,83f41f90 <__ieee754_sqrt+0x5c>
    83f41f82:	0017979b          	slliw	a5,a5,0x1
    83f41f86:	01f5551b          	srliw	a0,a0,0x1f
    83f41f8a:	0026171b          	slliw	a4,a2,0x2
    83f41f8e:	9fa9                	addw	a5,a5,a0
    83f41f90:	4015df1b          	sraiw	t5,a1,0x1
    83f41f94:	4e81                	li	t4,0
    83f41f96:	45d9                	li	a1,22
    83f41f98:	4681                	li	a3,0
    83f41f9a:	00200637          	lui	a2,0x200
    83f41f9e:	00c688bb          	addw	a7,a3,a2
    83f41fa2:	01f7581b          	srliw	a6,a4,0x1f
    83f41fa6:	35fd                	addiw	a1,a1,-1
    83f41fa8:	0017171b          	slliw	a4,a4,0x1
    83f41fac:	0117c863          	blt	a5,a7,83f41fbc <__ieee754_sqrt+0x88>
    83f41fb0:	411787bb          	subw	a5,a5,a7
    83f41fb4:	00c886bb          	addw	a3,a7,a2
    83f41fb8:	00ce8ebb          	addw	t4,t4,a2
    83f41fbc:	0017979b          	slliw	a5,a5,0x1
    83f41fc0:	00f807bb          	addw	a5,a6,a5
    83f41fc4:	8205                	srli	a2,a2,0x1
    83f41fc6:	fde1                	bnez	a1,83f41f9e <__ieee754_sqrt+0x6a>
    83f41fc8:	4e01                	li	t3,0
    83f41fca:	02000513          	li	a0,32
    83f41fce:	80000637          	lui	a2,0x80000
    83f41fd2:	a839                	j	83f41ff0 <__ieee754_sqrt+0xbc>
    83f41fd4:	0ed78863          	beq	a5,a3,83f420c4 <__ieee754_sqrt+0x190>
    83f41fd8:	01f7581b          	srliw	a6,a4,0x1f
    83f41fdc:	0017979b          	slliw	a5,a5,0x1
    83f41fe0:	357d                	addiw	a0,a0,-1
    83f41fe2:	0017171b          	slliw	a4,a4,0x1
    83f41fe6:	010787bb          	addw	a5,a5,a6
    83f41fea:	0016561b          	srliw	a2,a2,0x1
    83f41fee:	c121                	beqz	a0,83f4202e <__ieee754_sqrt+0xfa>
    83f41ff0:	00b608bb          	addw	a7,a2,a1
    83f41ff4:	8846                	mv	a6,a7
    83f41ff6:	fcf6dfe3          	bge	a3,a5,83f41fd4 <__ieee754_sqrt+0xa0>
    83f41ffa:	00c885bb          	addw	a1,a7,a2
    83f41ffe:	8336                	mv	t1,a3
    83f42000:	0a08cc63          	bltz	a7,83f420b8 <__ieee754_sqrt+0x184>
    83f42004:	9f95                	subw	a5,a5,a3
    83f42006:	01177363          	bgeu	a4,a7,83f4200c <__ieee754_sqrt+0xd8>
    83f4200a:	37fd                	addiw	a5,a5,-1
    83f4200c:	4107073b          	subw	a4,a4,a6
    83f42010:	01f7581b          	srliw	a6,a4,0x1f
    83f42014:	0017979b          	slliw	a5,a5,0x1
    83f42018:	357d                	addiw	a0,a0,-1
    83f4201a:	01c60e3b          	addw	t3,a2,t3
    83f4201e:	869a                	mv	a3,t1
    83f42020:	0017171b          	slliw	a4,a4,0x1
    83f42024:	010787bb          	addw	a5,a5,a6
    83f42028:	0016561b          	srliw	a2,a2,0x1
    83f4202c:	f171                	bnez	a0,83f41ff0 <__ieee754_sqrt+0xbc>
    83f4202e:	8fd9                	or	a5,a5,a4
    83f42030:	e3dd                	bnez	a5,83f420d6 <__ieee754_sqrt+0x1a2>
    83f42032:	001e551b          	srliw	a0,t3,0x1
    83f42036:	401ed71b          	sraiw	a4,t4,0x1
    83f4203a:	3fe007b7          	lui	a5,0x3fe00
    83f4203e:	001efe93          	andi	t4,t4,1
    83f42042:	9f3d                	addw	a4,a4,a5
    83f42044:	000e8563          	beqz	t4,83f4204e <__ieee754_sqrt+0x11a>
    83f42048:	800007b7          	lui	a5,0x80000
    83f4204c:	8d5d                	or	a0,a0,a5
    83f4204e:	014f179b          	slliw	a5,t5,0x14
    83f42052:	9fb9                	addw	a5,a5,a4
    83f42054:	1502                	slli	a0,a0,0x20
    83f42056:	9101                	srli	a0,a0,0x20
    83f42058:	1782                	slli	a5,a5,0x20
    83f4205a:	8d5d                	or	a0,a0,a5
    83f4205c:	f2050553          	fmv.d.x	fa0,a0
    83f42060:	8082                	ret
    83f42062:	02179713          	slli	a4,a5,0x21
    83f42066:	9305                	srli	a4,a4,0x21
    83f42068:	8f51                	or	a4,a4,a2
    83f4206a:	db6d                	beqz	a4,83f4205c <__ieee754_sqrt+0x128>
    83f4206c:	4581                	li	a1,0
    83f4206e:	e3d9                	bnez	a5,83f420f4 <__ieee754_sqrt+0x1c0>
    83f42070:	00b6571b          	srliw	a4,a2,0xb
    83f42074:	35ad                	addiw	a1,a1,-21
    83f42076:	0156161b          	slliw	a2,a2,0x15
    83f4207a:	87ba                	mv	a5,a4
    83f4207c:	db75                	beqz	a4,83f42070 <__ieee754_sqrt+0x13c>
    83f4207e:	01475693          	srli	a3,a4,0x14
    83f42082:	e2d1                	bnez	a3,83f42106 <__ieee754_sqrt+0x1d2>
    83f42084:	4681                	li	a3,0
    83f42086:	00100837          	lui	a6,0x100
    83f4208a:	0017979b          	slliw	a5,a5,0x1
    83f4208e:	0107f733          	and	a4,a5,a6
    83f42092:	2701                	sext.w	a4,a4
    83f42094:	8536                	mv	a0,a3
    83f42096:	2685                	addiw	a3,a3,1
    83f42098:	db6d                	beqz	a4,83f4208a <__ieee754_sqrt+0x156>
    83f4209a:	02000893          	li	a7,32
    83f4209e:	8832                	mv	a6,a2
    83f420a0:	40d888bb          	subw	a7,a7,a3
    83f420a4:	0007871b          	sext.w	a4,a5
    83f420a8:	00d6163b          	sllw	a2,a2,a3
    83f420ac:	011857bb          	srlw	a5,a6,a7
    83f420b0:	8fd9                	or	a5,a5,a4
    83f420b2:	9d89                	subw	a1,a1,a0
    83f420b4:	2781                	sext.w	a5,a5
    83f420b6:	b555                	j	83f41f5a <__ieee754_sqrt+0x26>
    83f420b8:	8336                	mv	t1,a3
    83f420ba:	f405c5e3          	bltz	a1,83f42004 <__ieee754_sqrt+0xd0>
    83f420be:	0016831b          	addiw	t1,a3,1
    83f420c2:	b789                	j	83f42004 <__ieee754_sqrt+0xd0>
    83f420c4:	f1176ae3          	bltu	a4,a7,83f41fd8 <__ieee754_sqrt+0xa4>
    83f420c8:	00c885bb          	addw	a1,a7,a2
    83f420cc:	fe08c6e3          	bltz	a7,83f420b8 <__ieee754_sqrt+0x184>
    83f420d0:	833e                	mv	t1,a5
    83f420d2:	4781                	li	a5,0
    83f420d4:	bf25                	j	83f4200c <__ieee754_sqrt+0xd8>
    83f420d6:	57fd                	li	a5,-1
    83f420d8:	02fe0563          	beq	t3,a5,83f42102 <__ieee754_sqrt+0x1ce>
    83f420dc:	001e051b          	addiw	a0,t3,1
    83f420e0:	0015551b          	srliw	a0,a0,0x1
    83f420e4:	bf89                	j	83f42036 <__ieee754_sqrt+0x102>
    83f420e6:	52a577c3          	fmadd.d	fa5,fa0,fa0,fa0
    83f420ea:	e2078553          	fmv.x.d	a0,fa5
    83f420ee:	f2050553          	fmv.d.x	fa0,a0
    83f420f2:	8082                	ret
    83f420f4:	0aa577d3          	fsub.d	fa5,fa0,fa0
    83f420f8:	1af7f7d3          	fdiv.d	fa5,fa5,fa5
    83f420fc:	e2078553          	fmv.x.d	a0,fa5
    83f42100:	bfb1                	j	83f4205c <__ieee754_sqrt+0x128>
    83f42102:	2e85                	addiw	t4,t4,1
    83f42104:	bf0d                	j	83f42036 <__ieee754_sqrt+0x102>
    83f42106:	8832                	mv	a6,a2
    83f42108:	02000893          	li	a7,32
    83f4210c:	557d                	li	a0,-1
    83f4210e:	bf79                	j	83f420ac <__ieee754_sqrt+0x178>

0000000083f42110 <__kernel_cos>:
    83f42110:	e20507d3          	fmv.x.d	a5,fa0
    83f42114:	3e4006b7          	lui	a3,0x3e400
    83f42118:	00179713          	slli	a4,a5,0x1
    83f4211c:	9305                	srli	a4,a4,0x21
    83f4211e:	08d75063          	bge	a4,a3,83f4219e <__kernel_cos+0x8e>
    83f42122:	c2051753          	fcvt.w.d	a4,fa0,rtz
    83f42126:	2701                	sext.w	a4,a4
    83f42128:	12070363          	beqz	a4,83f4224e <__kernel_cos+0x13e>
    83f4212c:	12a576d3          	fmul.d	fa3,fa0,fa0
    83f42130:	00010717          	auipc	a4,0x10
    83f42134:	5b073707          	fld	fa4,1456(a4) # 83f526e0 <xISRStackTop+0x250>
    83f42138:	00010717          	auipc	a4,0x10
    83f4213c:	5b073087          	fld	ft1,1456(a4) # 83f526e8 <xISRStackTop+0x258>
    83f42140:	00010717          	auipc	a4,0x10
    83f42144:	5b073007          	fld	ft0,1456(a4) # 83f526f0 <xISRStackTop+0x260>
    83f42148:	00010717          	auipc	a4,0x10
    83f4214c:	5b073787          	fld	fa5,1456(a4) # 83f526f8 <xISRStackTop+0x268>
    83f42150:	00010717          	auipc	a4,0x10
    83f42154:	5b073507          	fld	fa0,1456(a4) # 83f52700 <xISRStackTop+0x270>
    83f42158:	00010717          	auipc	a4,0x10
    83f4215c:	5b073607          	fld	fa2,1456(a4) # 83f52708 <xISRStackTop+0x278>
    83f42160:	0ae6f743          	fmadd.d	fa4,fa3,fa4,ft1
    83f42164:	02e6f743          	fmadd.d	fa4,fa3,fa4,ft0
    83f42168:	7ae6f7c3          	fmadd.d	fa5,fa3,fa4,fa5
    83f4216c:	52f6f7c3          	fmadd.d	fa5,fa3,fa5,fa0
    83f42170:	62f6f7c3          	fmadd.d	fa5,fa3,fa5,fa2
    83f42174:	12f6f7d3          	fmul.d	fa5,fa3,fa5
    83f42178:	f2078753          	fmv.d.x	fa4,a5
    83f4217c:	00010797          	auipc	a5,0x10
    83f42180:	1947b507          	fld	fa0,404(a5) # 83f52310 <__func__.1+0x118>
    83f42184:	12b775d3          	fmul.d	fa1,fa4,fa1
    83f42188:	00010797          	auipc	a5,0x10
    83f4218c:	1107b707          	fld	fa4,272(a5) # 83f52298 <__func__.1+0xa0>
    83f42190:	5af6f7c7          	fmsub.d	fa5,fa3,fa5,fa1
    83f42194:	7ae6f7c7          	fmsub.d	fa5,fa3,fa4,fa5
    83f42198:	0af57553          	fsub.d	fa0,fa0,fa5
    83f4219c:	8082                	ret
    83f4219e:	12a576d3          	fmul.d	fa3,fa0,fa0
    83f421a2:	00010697          	auipc	a3,0x10
    83f421a6:	53e6b707          	fld	fa4,1342(a3) # 83f526e0 <xISRStackTop+0x250>
    83f421aa:	00010697          	auipc	a3,0x10
    83f421ae:	53e6b787          	fld	fa5,1342(a3) # 83f526e8 <xISRStackTop+0x258>
    83f421b2:	00010697          	auipc	a3,0x10
    83f421b6:	53e6b087          	fld	ft1,1342(a3) # 83f526f0 <xISRStackTop+0x260>
    83f421ba:	00010697          	auipc	a3,0x10
    83f421be:	53e6b007          	fld	ft0,1342(a3) # 83f526f8 <xISRStackTop+0x268>
    83f421c2:	00010697          	auipc	a3,0x10
    83f421c6:	53e6b507          	fld	fa0,1342(a3) # 83f52700 <xISRStackTop+0x270>
    83f421ca:	00010697          	auipc	a3,0x10
    83f421ce:	53e6b607          	fld	fa2,1342(a3) # 83f52708 <xISRStackTop+0x278>
    83f421d2:	7ae6f7c3          	fmadd.d	fa5,fa3,fa4,fa5
    83f421d6:	3fd336b7          	lui	a3,0x3fd33
    83f421da:	33268693          	addi	a3,a3,818 # 3fd33332 <CVIMMAP_DRAM_SIZE+0x3bd33332>
    83f421de:	0ad7f7c3          	fmadd.d	fa5,fa5,fa3,ft1
    83f421e2:	02d7f7c3          	fmadd.d	fa5,fa5,fa3,ft0
    83f421e6:	52d7f7c3          	fmadd.d	fa5,fa5,fa3,fa0
    83f421ea:	62d7f7c3          	fmadd.d	fa5,fa5,fa3,fa2
    83f421ee:	12d7f7d3          	fmul.d	fa5,fa5,fa3
    83f421f2:	f8e6d3e3          	bge	a3,a4,83f42178 <__kernel_cos+0x68>
    83f421f6:	3fe906b7          	lui	a3,0x3fe90
    83f421fa:	04e6c163          	blt	a3,a4,83f4223c <__kernel_cos+0x12c>
    83f421fe:	ffe006b7          	lui	a3,0xffe00
    83f42202:	9f35                	addw	a4,a4,a3
    83f42204:	1702                	slli	a4,a4,0x20
    83f42206:	f2070753          	fmv.d.x	fa4,a4
    83f4220a:	00010697          	auipc	a3,0x10
    83f4220e:	1066b507          	fld	fa0,262(a3) # 83f52310 <__func__.1+0x118>
    83f42212:	f2070653          	fmv.d.x	fa2,a4
    83f42216:	0ae57553          	fsub.d	fa0,fa0,fa4
    83f4221a:	f2078753          	fmv.d.x	fa4,a5
    83f4221e:	12b775d3          	fmul.d	fa1,fa4,fa1
    83f42222:	00010797          	auipc	a5,0x10
    83f42226:	0767b707          	fld	fa4,118(a5) # 83f52298 <__func__.1+0xa0>
    83f4222a:	62e6f747          	fmsub.d	fa4,fa3,fa4,fa2
    83f4222e:	5af6f6c7          	fmsub.d	fa3,fa3,fa5,fa1
    83f42232:	0ad77753          	fsub.d	fa4,fa4,fa3
    83f42236:	0ae57553          	fsub.d	fa0,fa0,fa4
    83f4223a:	8082                	ret
    83f4223c:	00010717          	auipc	a4,0x10
    83f42240:	49473507          	fld	fa0,1172(a4) # 83f526d0 <xISRStackTop+0x240>
    83f42244:	00010717          	auipc	a4,0x10
    83f42248:	49473607          	fld	fa2,1172(a4) # 83f526d8 <xISRStackTop+0x248>
    83f4224c:	b7f9                	j	83f4221a <__kernel_cos+0x10a>
    83f4224e:	00010797          	auipc	a5,0x10
    83f42252:	0c27b507          	fld	fa0,194(a5) # 83f52310 <__func__.1+0x118>
    83f42256:	8082                	ret

0000000083f42258 <__kernel_rem_pio2>:
    83f42258:	d0010113          	addi	sp,sp,-768
    83f4225c:	2d313c23          	sd	s3,728(sp)
    83f42260:	e43a                	sd	a4,8(sp)
    83f42262:	89b6                	mv	s3,a3
    83f42264:	00271693          	slli	a3,a4,0x2
    83f42268:	0000f717          	auipc	a4,0xf
    83f4226c:	99870713          	addi	a4,a4,-1640 # 83f50c00 <init_jk>
    83f42270:	9736                	add	a4,a4,a3
    83f42272:	2d413823          	sd	s4,720(sp)
    83f42276:	2b713c23          	sd	s7,696(sp)
    83f4227a:	2b913423          	sd	s9,680(sp)
    83f4227e:	2ba13023          	sd	s10,672(sp)
    83f42282:	29b13c23          	sd	s11,664(sp)
    83f42286:	fff9889b          	addiw	a7,s3,-1
    83f4228a:	2e113c23          	sd	ra,760(sp)
    83f4228e:	2e813823          	sd	s0,752(sp)
    83f42292:	2e913423          	sd	s1,744(sp)
    83f42296:	2f213023          	sd	s2,736(sp)
    83f4229a:	2d513423          	sd	s5,712(sp)
    83f4229e:	2d613023          	sd	s6,704(sp)
    83f422a2:	2b813823          	sd	s8,688(sp)
    83f422a6:	28813427          	fsd	fs0,648(sp)
    83f422aa:	28913027          	fsd	fs1,640(sp)
    83f422ae:	27213c27          	fsd	fs2,632(sp)
    83f422b2:	27313827          	fsd	fs3,624(sp)
    83f422b6:	27413427          	fsd	fs4,616(sp)
    83f422ba:	27513027          	fsd	fs5,608(sp)
    83f422be:	25613c27          	fsd	fs6,600(sp)
    83f422c2:	56b1                	li	a3,-20
    83f422c4:	e02e                	sd	a1,0(sp)
    83f422c6:	00072c83          	lw	s9,0(a4)
    83f422ca:	8bb2                	mv	s7,a2
    83f422cc:	8daa                	mv	s11,a0
    83f422ce:	8a3e                	mv	s4,a5
    83f422d0:	00088d1b          	sext.w	s10,a7
    83f422d4:	60d64463          	blt	a2,a3,83f428dc <__kernel_rem_pio2+0x684>
    83f422d8:	47e1                	li	a5,24
    83f422da:	ffd6049b          	addiw	s1,a2,-3
    83f422de:	02f4c4bb          	divw	s1,s1,a5
    83f422e2:	0014879b          	addiw	a5,s1,1
    83f422e6:	0027971b          	slliw	a4,a5,0x2
    83f422ea:	9f99                	subw	a5,a5,a4
    83f422ec:	0037979b          	slliw	a5,a5,0x3
    83f422f0:	00fb8b3b          	addw	s6,s7,a5
    83f422f4:	019886bb          	addw	a3,a7,s9
    83f422f8:	411485bb          	subw	a1,s1,a7
    83f422fc:	c85a                	sw	s6,16(sp)
    83f422fe:	8736                	mv	a4,a3
    83f42300:	0005879b          	sext.w	a5,a1
    83f42304:	0206c663          	bltz	a3,83f42330 <__kernel_rem_pio2+0xd8>
    83f42308:	0017061b          	addiw	a2,a4,1
    83f4230c:	00279693          	slli	a3,a5,0x2
    83f42310:	1898                	addi	a4,sp,112
    83f42312:	96d2                	add	a3,a3,s4
    83f42314:	9e2d                	addw	a2,a2,a1
    83f42316:	f20007d3          	fmv.d.x	fa5,zero
    83f4231a:	0007c563          	bltz	a5,83f42324 <__kernel_rem_pio2+0xcc>
    83f4231e:	428c                	lw	a1,0(a3)
    83f42320:	d20587d3          	fcvt.d.w	fa5,a1
    83f42324:	2785                	addiw	a5,a5,1
    83f42326:	a31c                	fsd	fa5,0(a4)
    83f42328:	0721                	addi	a4,a4,8
    83f4232a:	0691                	addi	a3,a3,4
    83f4232c:	fec795e3          	bne	a5,a2,83f42316 <__kernel_rem_pio2+0xbe>
    83f42330:	040cc563          	bltz	s9,83f4237a <__kernel_rem_pio2+0x122>
    83f42334:	fff9869b          	addiw	a3,s3,-1
    83f42338:	02069793          	slli	a5,a3,0x20
    83f4233c:	01d7d693          	srli	a3,a5,0x1d
    83f42340:	008d8793          	addi	a5,s11,8
    83f42344:	1b0c                	addi	a1,sp,432
    83f42346:	866a                	mv	a2,s10
    83f42348:	013c853b          	addw	a0,s9,s3
    83f4234c:	96be                	add	a3,a3,a5
    83f4234e:	f20007d3          	fmv.d.x	fa5,zero
    83f42352:	000d4f63          	bltz	s10,83f42370 <__kernel_rem_pio2+0x118>
    83f42356:	189c                	addi	a5,sp,112
    83f42358:	00361713          	slli	a4,a2,0x3
    83f4235c:	973e                	add	a4,a4,a5
    83f4235e:	87ee                	mv	a5,s11
    83f42360:	2394                	fld	fa3,0(a5)
    83f42362:	2318                	fld	fa4,0(a4)
    83f42364:	07a1                	addi	a5,a5,8
    83f42366:	1761                	addi	a4,a4,-8
    83f42368:	7ae6f7c3          	fmadd.d	fa5,fa3,fa4,fa5
    83f4236c:	fed79ae3          	bne	a5,a3,83f42360 <__kernel_rem_pio2+0x108>
    83f42370:	a19c                	fsd	fa5,0(a1)
    83f42372:	2605                	addiw	a2,a2,1
    83f42374:	05a1                	addi	a1,a1,8
    83f42376:	fca61ce3          	bne	a2,a0,83f4234e <__kernel_rem_pio2+0xf6>
    83f4237a:	02089793          	slli	a5,a7,0x20
    83f4237e:	002c9913          	slli	s2,s9,0x2
    83f42382:	01d7d893          	srli	a7,a5,0x1d
    83f42386:	1961                	addi	s2,s2,-8
    83f42388:	101c                	addi	a5,sp,32
    83f4238a:	993e                	add	s2,s2,a5
    83f4238c:	fffc841b          	addiw	s0,s9,-1
    83f42390:	00010797          	auipc	a5,0x10
    83f42394:	3907b487          	fld	fs1,912(a5) # 83f52720 <xISRStackTop+0x290>
    83f42398:	00010797          	auipc	a5,0x10
    83f4239c:	3907b407          	fld	fs0,912(a5) # 83f52728 <xISRStackTop+0x298>
    83f423a0:	00010797          	auipc	a5,0x10
    83f423a4:	f707b907          	fld	fs2,-144(a5) # 83f52310 <__func__.1+0x118>
    83f423a8:	00010797          	auipc	a5,0x10
    83f423ac:	3707ba87          	fld	fs5,880(a5) # 83f52718 <xISRStackTop+0x288>
    83f423b0:	00010797          	auipc	a5,0x10
    83f423b4:	3187ba07          	fld	fs4,792(a5) # 83f526c8 <xISRStackTop+0x238>
    83f423b8:	00010797          	auipc	a5,0x10
    83f423bc:	ee07b987          	fld	fs3,-288(a5) # 83f52298 <__func__.1+0xa0>
    83f423c0:	040a                	slli	s0,s0,0x2
    83f423c2:	0c9c                	addi	a5,sp,592
    83f423c4:	011d8c33          	add	s8,s11,a7
    83f423c8:	8ae6                	mv	s5,s9
    83f423ca:	943e                	add	s0,s0,a5
    83f423cc:	003a9793          	slli	a5,s5,0x3
    83f423d0:	0c98                	addi	a4,sp,592
    83f423d2:	973e                	add	a4,a4,a5
    83f423d4:	f6073507          	fld	fa0,-160(a4)
    83f423d8:	05505263          	blez	s5,83f4241c <__kernel_rem_pio2+0x1c4>
    83f423dc:	fffa859b          	addiw	a1,s5,-1
    83f423e0:	ff878713          	addi	a4,a5,-8
    83f423e4:	1b14                	addi	a3,sp,432
    83f423e6:	02059793          	slli	a5,a1,0x20
    83f423ea:	01e7d593          	srli	a1,a5,0x1e
    83f423ee:	9736                	add	a4,a4,a3
    83f423f0:	1054                	addi	a3,sp,36
    83f423f2:	101c                	addi	a5,sp,32
    83f423f4:	95b6                	add	a1,a1,a3
    83f423f6:	135577d3          	fmul.d	fa5,fa0,fs5
    83f423fa:	2314                	fld	fa3,0(a4)
    83f423fc:	0791                	addi	a5,a5,4
    83f423fe:	1761                	addi	a4,a4,-8
    83f42400:	c2079653          	fcvt.w.d	a2,fa5,rtz
    83f42404:	d20607d3          	fcvt.d.w	fa5,a2
    83f42408:	5347f74b          	fnmsub.d	fa4,fa5,fs4,fa0
    83f4240c:	02d7f553          	fadd.d	fa0,fa5,fa3
    83f42410:	c2071653          	fcvt.w.d	a2,fa4,rtz
    83f42414:	fec7ae23          	sw	a2,-4(a5)
    83f42418:	fcb79fe3          	bne	a5,a1,83f423f6 <__kernel_rem_pio2+0x19e>
    83f4241c:	855a                	mv	a0,s6
    83f4241e:	7be000ef          	jal	ra,83f42bdc <scalbn>
    83f42422:	22a50b53          	fmv.d	fs6,fa0
    83f42426:	12957553          	fmul.d	fa0,fa0,fs1
    83f4242a:	d38fe0ef          	jal	ra,83f40962 <floor>
    83f4242e:	b285754b          	fnmsub.d	fa0,fa0,fs0,fs6
    83f42432:	c2051653          	fcvt.w.d	a2,fa0,rtz
    83f42436:	d2060b53          	fcvt.d.w	fs6,a2
    83f4243a:	00060b9b          	sext.w	s7,a2
    83f4243e:	0b657b53          	fsub.d	fs6,fa0,fs6
    83f42442:	0f605f63          	blez	s6,83f42540 <__kernel_rem_pio2+0x2e8>
    83f42446:	fffa879b          	addiw	a5,s5,-1
    83f4244a:	0c98                	addi	a4,sp,592
    83f4244c:	078a                	slli	a5,a5,0x2
    83f4244e:	97ba                	add	a5,a5,a4
    83f42450:	dd07a883          	lw	a7,-560(a5)
    83f42454:	4761                	li	a4,24
    83f42456:	4167073b          	subw	a4,a4,s6
    83f4245a:	40e8de3b          	sraw	t3,a7,a4
    83f4245e:	00ee173b          	sllw	a4,t3,a4
    83f42462:	40e8873b          	subw	a4,a7,a4
    83f42466:	48dd                	li	a7,23
    83f42468:	416888bb          	subw	a7,a7,s6
    83f4246c:	dce7a823          	sw	a4,-560(a5)
    83f42470:	411758bb          	sraw	a7,a4,a7
    83f42474:	01c60bbb          	addw	s7,a2,t3
    83f42478:	0f104163          	bgtz	a7,83f4255a <__kernel_rem_pio2+0x302>
    83f4247c:	f2000753          	fmv.d.x	fa4,zero
    83f42480:	a2eb27d3          	feq.d	a5,fs6,fa4
    83f42484:	1a078263          	beqz	a5,83f42628 <__kernel_rem_pio2+0x3d0>
    83f42488:	fffa831b          	addiw	t1,s5,-1
    83f4248c:	03934b63          	blt	t1,s9,83f424c2 <__kernel_rem_pio2+0x26a>
    83f42490:	fffcc713          	not	a4,s9
    83f42494:	002a9593          	slli	a1,s5,0x2
    83f42498:	0157073b          	addw	a4,a4,s5
    83f4249c:	0834                	addi	a3,sp,24
    83f4249e:	ffc58793          	addi	a5,a1,-4 # 3feffffc <CVIMMAP_DRAM_SIZE+0x3beffffc>
    83f424a2:	95b6                	add	a1,a1,a3
    83f424a4:	02071693          	slli	a3,a4,0x20
    83f424a8:	01e6d713          	srli	a4,a3,0x1e
    83f424ac:	1014                	addi	a3,sp,32
    83f424ae:	8d99                	sub	a1,a1,a4
    83f424b0:	97b6                	add	a5,a5,a3
    83f424b2:	4701                	li	a4,0
    83f424b4:	4390                	lw	a2,0(a5)
    83f424b6:	17f1                	addi	a5,a5,-4
    83f424b8:	8f51                	or	a4,a4,a2
    83f424ba:	feb79de3          	bne	a5,a1,83f424b4 <__kernel_rem_pio2+0x25c>
    83f424be:	30071f63          	bnez	a4,83f427dc <__kernel_rem_pio2+0x584>
    83f424c2:	dd042783          	lw	a5,-560(s0)
    83f424c6:	30079763          	bnez	a5,83f427d4 <__kernel_rem_pio2+0x57c>
    83f424ca:	87ca                	mv	a5,s2
    83f424cc:	4705                	li	a4,1
    83f424ce:	4390                	lw	a2,0(a5)
    83f424d0:	2705                	addiw	a4,a4,1
    83f424d2:	17f1                	addi	a5,a5,-4
    83f424d4:	de6d                	beqz	a2,83f424ce <__kernel_rem_pio2+0x276>
    83f424d6:	001a851b          	addiw	a0,s5,1
    83f424da:	00ea88bb          	addw	a7,s5,a4
    83f424de:	00ad07bb          	addw	a5,s10,a0
    83f424e2:	013a8333          	add	t1,s5,s3
    83f424e6:	40f30333          	sub	t1,t1,a5
    83f424ea:	00a48633          	add	a2,s1,a0
    83f424ee:	078e                	slli	a5,a5,0x3
    83f424f0:	1898                	addi	a4,sp,112
    83f424f2:	060a                	slli	a2,a2,0x2
    83f424f4:	00351593          	slli	a1,a0,0x3
    83f424f8:	030e                	slli	t1,t1,0x3
    83f424fa:	00f706b3          	add	a3,a4,a5
    83f424fe:	1b1c                	addi	a5,sp,432
    83f42500:	9652                	add	a2,a2,s4
    83f42502:	95be                	add	a1,a1,a5
    83f42504:	1361                	addi	t1,t1,-8
    83f42506:	421c                	lw	a5,0(a2)
    83f42508:	f20007d3          	fmv.d.x	fa5,zero
    83f4250c:	d2078753          	fcvt.d.w	fa4,a5
    83f42510:	a298                	fsd	fa4,0(a3)
    83f42512:	000d4e63          	bltz	s10,83f4252e <__kernel_rem_pio2+0x2d6>
    83f42516:	00d30733          	add	a4,t1,a3
    83f4251a:	87ee                	mv	a5,s11
    83f4251c:	a021                	j	83f42524 <__kernel_rem_pio2+0x2cc>
    83f4251e:	2318                	fld	fa4,0(a4)
    83f42520:	07a1                	addi	a5,a5,8
    83f42522:	1761                	addi	a4,a4,-8
    83f42524:	2394                	fld	fa3,0(a5)
    83f42526:	7ae6f7c3          	fmadd.d	fa5,fa3,fa4,fa5
    83f4252a:	ff879ae3          	bne	a5,s8,83f4251e <__kernel_rem_pio2+0x2c6>
    83f4252e:	a19c                	fsd	fa5,0(a1)
    83f42530:	2505                	addiw	a0,a0,1
    83f42532:	0611                	addi	a2,a2,4
    83f42534:	06a1                	addi	a3,a3,8
    83f42536:	05a1                	addi	a1,a1,8
    83f42538:	fca8d7e3          	bge	a7,a0,83f42506 <__kernel_rem_pio2+0x2ae>
    83f4253c:	8ac6                	mv	s5,a7
    83f4253e:	b579                	j	83f423cc <__kernel_rem_pio2+0x174>
    83f42540:	260b1d63          	bnez	s6,83f427ba <__kernel_rem_pio2+0x562>
    83f42544:	fffa879b          	addiw	a5,s5,-1
    83f42548:	078a                	slli	a5,a5,0x2
    83f4254a:	0c98                	addi	a4,sp,592
    83f4254c:	97ba                	add	a5,a5,a4
    83f4254e:	dd07a883          	lw	a7,-560(a5)
    83f42552:	4178d89b          	sraiw	a7,a7,0x17
    83f42556:	f31053e3          	blez	a7,83f4247c <__kernel_rem_pio2+0x224>
    83f4255a:	2b85                	addiw	s7,s7,1
    83f4255c:	39505e63          	blez	s5,83f428f8 <__kernel_rem_pio2+0x6a0>
    83f42560:	5782                	lw	a5,32(sp)
    83f42562:	24079963          	bnez	a5,83f427b4 <__kernel_rem_pio2+0x55c>
    83f42566:	4705                	li	a4,1
    83f42568:	06ea8763          	beq	s5,a4,83f425d6 <__kernel_rem_pio2+0x37e>
    83f4256c:	5792                	lw	a5,36(sp)
    83f4256e:	1050                	addi	a2,sp,36
    83f42570:	0017051b          	addiw	a0,a4,1
    83f42574:	0611                	addi	a2,a2,4
    83f42576:	eb89                	bnez	a5,83f42588 <__kernel_rem_pio2+0x330>
    83f42578:	04aa8f63          	beq	s5,a0,83f425d6 <__kernel_rem_pio2+0x37e>
    83f4257c:	421c                	lw	a5,0(a2)
    83f4257e:	872a                	mv	a4,a0
    83f42580:	0017051b          	addiw	a0,a4,1
    83f42584:	0611                	addi	a2,a2,4
    83f42586:	dbed                	beqz	a5,83f42578 <__kernel_rem_pio2+0x320>
    83f42588:	00271613          	slli	a2,a4,0x2
    83f4258c:	0c94                	addi	a3,sp,592
    83f4258e:	01000737          	lui	a4,0x1000
    83f42592:	9636                	add	a2,a2,a3
    83f42594:	40f707bb          	subw	a5,a4,a5
    83f42598:	dcf62823          	sw	a5,-560(a2) # ffffffff7ffffdd0 <_end+0xfffffffefc000090>
    83f4259c:	03555c63          	bge	a0,s5,83f425d4 <__kernel_rem_pio2+0x37c>
    83f425a0:	fffa879b          	addiw	a5,s5,-1
    83f425a4:	9f89                	subw	a5,a5,a0
    83f425a6:	1782                	slli	a5,a5,0x20
    83f425a8:	00251613          	slli	a2,a0,0x2
    83f425ac:	9381                	srli	a5,a5,0x20
    83f425ae:	00c685b3          	add	a1,a3,a2
    83f425b2:	97aa                	add	a5,a5,a0
    83f425b4:	1014                	addi	a3,sp,32
    83f425b6:	078a                	slli	a5,a5,0x2
    83f425b8:	9636                	add	a2,a2,a3
    83f425ba:	1054                	addi	a3,sp,36
    83f425bc:	dd05a583          	lw	a1,-560(a1)
    83f425c0:	97b6                	add	a5,a5,a3
    83f425c2:	377d                	addiw	a4,a4,-1
    83f425c4:	a011                	j	83f425c8 <__kernel_rem_pio2+0x370>
    83f425c6:	420c                	lw	a1,0(a2)
    83f425c8:	40b705bb          	subw	a1,a4,a1
    83f425cc:	c20c                	sw	a1,0(a2)
    83f425ce:	0611                	addi	a2,a2,4
    83f425d0:	fef61be3          	bne	a2,a5,83f425c6 <__kernel_rem_pio2+0x36e>
    83f425d4:	4785                	li	a5,1
    83f425d6:	03605363          	blez	s6,83f425fc <__kernel_rem_pio2+0x3a4>
    83f425da:	4705                	li	a4,1
    83f425dc:	2eeb0463          	beq	s6,a4,83f428c4 <__kernel_rem_pio2+0x66c>
    83f425e0:	4709                	li	a4,2
    83f425e2:	00eb1d63          	bne	s6,a4,83f425fc <__kernel_rem_pio2+0x3a4>
    83f425e6:	fffa871b          	addiw	a4,s5,-1
    83f425ea:	070a                	slli	a4,a4,0x2
    83f425ec:	0c94                	addi	a3,sp,592
    83f425ee:	9736                	add	a4,a4,a3
    83f425f0:	dd072603          	lw	a2,-560(a4) # fffdd0 <CVIMMAP_FSBL_UNZIP_SIZE+0xffdd0>
    83f425f4:	162a                	slli	a2,a2,0x2a
    83f425f6:	9229                	srli	a2,a2,0x2a
    83f425f8:	dcc72823          	sw	a2,-560(a4)
    83f425fc:	4709                	li	a4,2
    83f425fe:	e6e89fe3          	bne	a7,a4,83f4247c <__kernel_rem_pio2+0x224>
    83f42602:	0b697b53          	fsub.d	fs6,fs2,fs6
    83f42606:	e6078be3          	beqz	a5,83f4247c <__kernel_rem_pio2+0x224>
    83f4260a:	23290553          	fmv.d	fa0,fs2
    83f4260e:	855a                	mv	a0,s6
    83f42610:	ec46                	sd	a7,24(sp)
    83f42612:	5ca000ef          	jal	ra,83f42bdc <scalbn>
    83f42616:	0aab7b53          	fsub.d	fs6,fs6,fa0
    83f4261a:	f2000753          	fmv.d.x	fa4,zero
    83f4261e:	68e2                	ld	a7,24(sp)
    83f42620:	a2eb27d3          	feq.d	a5,fs6,fa4
    83f42624:	e60792e3          	bnez	a5,83f42488 <__kernel_rem_pio2+0x230>
    83f42628:	4442                	lw	s0,16(sp)
    83f4262a:	236b0553          	fmv.d	fa0,fs6
    83f4262e:	ec46                	sd	a7,24(sp)
    83f42630:	4080053b          	negw	a0,s0
    83f42634:	5a8000ef          	jal	ra,83f42bdc <scalbn>
    83f42638:	00010797          	auipc	a5,0x10
    83f4263c:	0907b607          	fld	fa2,144(a5) # 83f526c8 <xISRStackTop+0x238>
    83f42640:	a2a607d3          	fle.d	a5,fa2,fa0
    83f42644:	68e2                	ld	a7,24(sp)
    83f42646:	30078063          	beqz	a5,83f42946 <__kernel_rem_pio2+0x6ee>
    83f4264a:	00010797          	auipc	a5,0x10
    83f4264e:	0ce7b687          	fld	fa3,206(a5) # 83f52718 <xISRStackTop+0x288>
    83f42652:	12d576d3          	fmul.d	fa3,fa0,fa3
    83f42656:	0c9c                	addi	a5,sp,592
    83f42658:	002a9713          	slli	a4,s5,0x2
    83f4265c:	001a831b          	addiw	t1,s5,1
    83f42660:	973e                	add	a4,a4,a5
    83f42662:	0c94                	addi	a3,sp,592
    83f42664:	00231793          	slli	a5,t1,0x2
    83f42668:	97b6                	add	a5,a5,a3
    83f4266a:	c20696d3          	fcvt.w.d	a3,fa3,rtz
    83f4266e:	01840b1b          	addiw	s6,s0,24
    83f42672:	d2068753          	fcvt.d.w	fa4,a3
    83f42676:	52c777cb          	fnmsub.d	fa5,fa4,fa2,fa0
    83f4267a:	c2079653          	fcvt.w.d	a2,fa5,rtz
    83f4267e:	dcc72823          	sw	a2,-560(a4)
    83f42682:	dcd7a823          	sw	a3,-560(a5)
    83f42686:	23290553          	fmv.d	fa0,fs2
    83f4268a:	855a                	mv	a0,s6
    83f4268c:	ec1a                	sd	t1,24(sp)
    83f4268e:	e846                	sd	a7,16(sp)
    83f42690:	54c000ef          	jal	ra,83f42bdc <scalbn>
    83f42694:	6362                	ld	t1,24(sp)
    83f42696:	68c2                	ld	a7,16(sp)
    83f42698:	2e034863          	bltz	t1,83f42988 <__kernel_rem_pio2+0x730>
    83f4269c:	1b18                	addi	a4,sp,432
    83f4269e:	00331f13          	slli	t5,t1,0x3
    83f426a2:	01e705b3          	add	a1,a4,t5
    83f426a6:	00231793          	slli	a5,t1,0x2
    83f426aa:	1018                	addi	a4,sp,32
    83f426ac:	97ba                	add	a5,a5,a4
    83f426ae:	0870                	addi	a2,sp,28
    83f426b0:	872e                	mv	a4,a1
    83f426b2:	00010697          	auipc	a3,0x10
    83f426b6:	0666b687          	fld	fa3,102(a3) # 83f52718 <xISRStackTop+0x288>
    83f426ba:	4394                	lw	a3,0(a5)
    83f426bc:	1761                	addi	a4,a4,-8
    83f426be:	17f1                	addi	a5,a5,-4
    83f426c0:	d20687d3          	fcvt.d.w	fa5,a3
    83f426c4:	12a7f7d3          	fmul.d	fa5,fa5,fa0
    83f426c8:	12d57553          	fmul.d	fa0,fa0,fa3
    83f426cc:	a71c                	fsd	fa5,8(a4)
    83f426ce:	fec796e3          	bne	a5,a2,83f426ba <__kernel_rem_pio2+0x462>
    83f426d2:	11010813          	addi	a6,sp,272
    83f426d6:	851a                	mv	a0,t1
    83f426d8:	4e81                	li	t4,0
    83f426da:	00010797          	auipc	a5,0x10
    83f426de:	0367b607          	fld	fa2,54(a5) # 83f52710 <xISRStackTop+0x280>
    83f426e2:	5ffd                	li	t6,-1
    83f426e4:	1e0ccf63          	bltz	s9,83f428e2 <__kernel_rem_pio2+0x68a>
    83f426e8:	22c60753          	fmv.d	fa4,fa2
    83f426ec:	f20007d3          	fmv.d.x	fa5,zero
    83f426f0:	0000e697          	auipc	a3,0xe
    83f426f4:	52068693          	addi	a3,a3,1312 # 83f50c10 <PIo2>
    83f426f8:	872e                	mv	a4,a1
    83f426fa:	4781                	li	a5,0
    83f426fc:	000e861b          	sext.w	a2,t4
    83f42700:	a029                	j	83f4270a <__kernel_rem_pio2+0x4b2>
    83f42702:	0721                	addi	a4,a4,8
    83f42704:	00f64a63          	blt	a2,a5,83f42718 <__kernel_rem_pio2+0x4c0>
    83f42708:	2298                	fld	fa4,0(a3)
    83f4270a:	2314                	fld	fa3,0(a4)
    83f4270c:	2785                	addiw	a5,a5,1
    83f4270e:	06a1                	addi	a3,a3,8
    83f42710:	7ae6f7c3          	fmadd.d	fa5,fa3,fa4,fa5
    83f42714:	fefcd7e3          	bge	s9,a5,83f42702 <__kernel_rem_pio2+0x4aa>
    83f42718:	00f83027          	fsd	fa5,0(a6) # 100000 <CVIMMAP_FREERTOS_SIZE+0x40000>
    83f4271c:	357d                	addiw	a0,a0,-1
    83f4271e:	0e85                	addi	t4,t4,1
    83f42720:	0821                	addi	a6,a6,8
    83f42722:	15e1                	addi	a1,a1,-8
    83f42724:	fdf510e3          	bne	a0,t6,83f426e4 <__kernel_rem_pio2+0x48c>
    83f42728:	6722                	ld	a4,8(sp)
    83f4272a:	4789                	li	a5,2
    83f4272c:	0ce7cc63          	blt	a5,a4,83f42804 <__kernel_rem_pio2+0x5ac>
    83f42730:	1ce04663          	bgtz	a4,83f428fc <__kernel_rem_pio2+0x6a4>
    83f42734:	e31d                	bnez	a4,83f4275a <__kernel_rem_pio2+0x502>
    83f42736:	f20007d3          	fmv.d.x	fa5,zero
    83f4273a:	0a1c                	addi	a5,sp,272
    83f4273c:	9f3e                	add	t5,t5,a5
    83f4273e:	17e1                	addi	a5,a5,-8
    83f42740:	000f3707          	fld	fa4,0(t5)
    83f42744:	1f61                	addi	t5,t5,-8
    83f42746:	02e7f7d3          	fadd.d	fa5,fa5,fa4
    83f4274a:	ffe79be3          	bne	a5,t5,83f42740 <__kernel_rem_pio2+0x4e8>
    83f4274e:	00088463          	beqz	a7,83f42756 <__kernel_rem_pio2+0x4fe>
    83f42752:	22f797d3          	fneg.d	fa5,fa5
    83f42756:	6782                	ld	a5,0(sp)
    83f42758:	a39c                	fsd	fa5,0(a5)
    83f4275a:	2f813083          	ld	ra,760(sp)
    83f4275e:	2f013403          	ld	s0,752(sp)
    83f42762:	2e813483          	ld	s1,744(sp)
    83f42766:	2e013903          	ld	s2,736(sp)
    83f4276a:	2d813983          	ld	s3,728(sp)
    83f4276e:	2d013a03          	ld	s4,720(sp)
    83f42772:	2c813a83          	ld	s5,712(sp)
    83f42776:	2c013b03          	ld	s6,704(sp)
    83f4277a:	2b013c03          	ld	s8,688(sp)
    83f4277e:	2a813c83          	ld	s9,680(sp)
    83f42782:	2a013d03          	ld	s10,672(sp)
    83f42786:	29813d83          	ld	s11,664(sp)
    83f4278a:	28813407          	fld	fs0,648(sp)
    83f4278e:	28013487          	fld	fs1,640(sp)
    83f42792:	27813907          	fld	fs2,632(sp)
    83f42796:	27013987          	fld	fs3,624(sp)
    83f4279a:	26813a07          	fld	fs4,616(sp)
    83f4279e:	26013a87          	fld	fs5,608(sp)
    83f427a2:	25813b07          	fld	fs6,600(sp)
    83f427a6:	007bf513          	andi	a0,s7,7
    83f427aa:	2b813b83          	ld	s7,696(sp)
    83f427ae:	30010113          	addi	sp,sp,768
    83f427b2:	8082                	ret
    83f427b4:	4505                	li	a0,1
    83f427b6:	4701                	li	a4,0
    83f427b8:	bbc1                	j	83f42588 <__kernel_rem_pio2+0x330>
    83f427ba:	a36987d3          	fle.d	a5,fs3,fs6
    83f427be:	4881                	li	a7,0
    83f427c0:	ca078ee3          	beqz	a5,83f4247c <__kernel_rem_pio2+0x224>
    83f427c4:	00160b9b          	addiw	s7,a2,1
    83f427c8:	4889                	li	a7,2
    83f427ca:	d9504be3          	bgtz	s5,83f42560 <__kernel_rem_pio2+0x308>
    83f427ce:	0b697b53          	fsub.d	fs6,fs2,fs6
    83f427d2:	b16d                	j	83f4247c <__kernel_rem_pio2+0x224>
    83f427d4:	001a851b          	addiw	a0,s5,1
    83f427d8:	88aa                	mv	a7,a0
    83f427da:	b311                	j	83f424de <__kernel_rem_pio2+0x286>
    83f427dc:	00231793          	slli	a5,t1,0x2
    83f427e0:	0c98                	addi	a4,sp,592
    83f427e2:	973e                	add	a4,a4,a5
    83f427e4:	46c2                	lw	a3,16(sp)
    83f427e6:	dd072703          	lw	a4,-560(a4)
    83f427ea:	fe868b1b          	addiw	s6,a3,-24
    83f427ee:	e8071ce3          	bnez	a4,83f42686 <__kernel_rem_pio2+0x42e>
    83f427f2:	17f1                	addi	a5,a5,-4
    83f427f4:	1018                	addi	a4,sp,32
    83f427f6:	97ba                	add	a5,a5,a4
    83f427f8:	4398                	lw	a4,0(a5)
    83f427fa:	337d                	addiw	t1,t1,-1
    83f427fc:	17f1                	addi	a5,a5,-4
    83f427fe:	3b21                	addiw	s6,s6,-24
    83f42800:	df65                	beqz	a4,83f427f8 <__kernel_rem_pio2+0x5a0>
    83f42802:	b551                	j	83f42686 <__kernel_rem_pio2+0x42e>
    83f42804:	6722                	ld	a4,8(sp)
    83f42806:	478d                	li	a5,3
    83f42808:	f4f719e3          	bne	a4,a5,83f4275a <__kernel_rem_pio2+0x502>
    83f4280c:	04030163          	beqz	t1,83f4284e <__kernel_rem_pio2+0x5f6>
    83f42810:	fff3069b          	addiw	a3,t1,-1
    83f42814:	0c9c                	addi	a5,sp,592
    83f42816:	97fa                	add	a5,a5,t5
    83f42818:	02069613          	slli	a2,a3,0x20
    83f4281c:	0218                	addi	a4,sp,256
    83f4281e:	01d65693          	srli	a3,a2,0x1d
    83f42822:	ec07b707          	fld	fa4,-320(a5)
    83f42826:	977a                	add	a4,a4,t5
    83f42828:	ff8f0793          	addi	a5,t5,-8
    83f4282c:	0a10                	addi	a2,sp,272
    83f4282e:	97b2                	add	a5,a5,a2
    83f42830:	8f15                	sub	a4,a4,a3
    83f42832:	239c                	fld	fa5,0(a5)
    83f42834:	22e706d3          	fmv.d	fa3,fa4
    83f42838:	17e1                	addi	a5,a5,-8
    83f4283a:	02f77753          	fadd.d	fa4,fa4,fa5
    83f4283e:	0ae7f7d3          	fsub.d	fa5,fa5,fa4
    83f42842:	a798                	fsd	fa4,8(a5)
    83f42844:	02d7f7d3          	fadd.d	fa5,fa5,fa3
    83f42848:	ab9c                	fsd	fa5,16(a5)
    83f4284a:	fef714e3          	bne	a4,a5,83f42832 <__kernel_rem_pio2+0x5da>
    83f4284e:	4785                	li	a5,1
    83f42850:	f20007d3          	fmv.d.x	fa5,zero
    83f42854:	0467df63          	bge	a5,t1,83f428b2 <__kernel_rem_pio2+0x65a>
    83f42858:	ffe3069b          	addiw	a3,t1,-2
    83f4285c:	02069713          	slli	a4,a3,0x20
    83f42860:	0c9c                	addi	a5,sp,592
    83f42862:	97fa                	add	a5,a5,t5
    83f42864:	01d75693          	srli	a3,a4,0x1d
    83f42868:	0218                	addi	a4,sp,256
    83f4286a:	ec07b707          	fld	fa4,-320(a5)
    83f4286e:	977a                	add	a4,a4,t5
    83f42870:	ff8f0793          	addi	a5,t5,-8
    83f42874:	0a10                	addi	a2,sp,272
    83f42876:	97b2                	add	a5,a5,a2
    83f42878:	8f15                	sub	a4,a4,a3
    83f4287a:	239c                	fld	fa5,0(a5)
    83f4287c:	22e706d3          	fmv.d	fa3,fa4
    83f42880:	17e1                	addi	a5,a5,-8
    83f42882:	02f77753          	fadd.d	fa4,fa4,fa5
    83f42886:	0ae7f7d3          	fsub.d	fa5,fa5,fa4
    83f4288a:	a798                	fsd	fa4,8(a5)
    83f4288c:	02d7f7d3          	fadd.d	fa5,fa5,fa3
    83f42890:	ab9c                	fsd	fa5,16(a5)
    83f42892:	fee794e3          	bne	a5,a4,83f4287a <__kernel_rem_pio2+0x622>
    83f42896:	023c                	addi	a5,sp,264
    83f42898:	f20007d3          	fmv.d.x	fa5,zero
    83f4289c:	97fa                	add	a5,a5,t5
    83f4289e:	0a18                	addi	a4,sp,272
    83f428a0:	9f3a                	add	t5,t5,a4
    83f428a2:	8f95                	sub	a5,a5,a3
    83f428a4:	000f3707          	fld	fa4,0(t5)
    83f428a8:	1f61                	addi	t5,t5,-8
    83f428aa:	02e7f7d3          	fadd.d	fa5,fa5,fa4
    83f428ae:	ffe79be3          	bne	a5,t5,83f428a4 <__kernel_rem_pio2+0x64c>
    83f428b2:	26d2                	fld	fa3,272(sp)
    83f428b4:	2772                	fld	fa4,280(sp)
    83f428b6:	0a089263          	bnez	a7,83f4295a <__kernel_rem_pio2+0x702>
    83f428ba:	6782                	ld	a5,0(sp)
    83f428bc:	a394                	fsd	fa3,0(a5)
    83f428be:	a798                	fsd	fa4,8(a5)
    83f428c0:	ab9c                	fsd	fa5,16(a5)
    83f428c2:	bd61                	j	83f4275a <__kernel_rem_pio2+0x502>
    83f428c4:	fffa871b          	addiw	a4,s5,-1
    83f428c8:	070a                	slli	a4,a4,0x2
    83f428ca:	0c94                	addi	a3,sp,592
    83f428cc:	9736                	add	a4,a4,a3
    83f428ce:	dd072603          	lw	a2,-560(a4)
    83f428d2:	1626                	slli	a2,a2,0x29
    83f428d4:	9225                	srli	a2,a2,0x29
    83f428d6:	dcc72823          	sw	a2,-560(a4)
    83f428da:	b30d                	j	83f425fc <__kernel_rem_pio2+0x3a4>
    83f428dc:	57a1                	li	a5,-24
    83f428de:	4481                	li	s1,0
    83f428e0:	bc01                	j	83f422f0 <__kernel_rem_pio2+0x98>
    83f428e2:	f20007d3          	fmv.d.x	fa5,zero
    83f428e6:	357d                	addiw	a0,a0,-1
    83f428e8:	0e85                	addi	t4,t4,1
    83f428ea:	00f83027          	fsd	fa5,0(a6)
    83f428ee:	15e1                	addi	a1,a1,-8
    83f428f0:	0821                	addi	a6,a6,8
    83f428f2:	dff519e3          	bne	a0,t6,83f426e4 <__kernel_rem_pio2+0x48c>
    83f428f6:	bd0d                	j	83f42728 <__kernel_rem_pio2+0x4d0>
    83f428f8:	4781                	li	a5,0
    83f428fa:	b9f1                	j	83f425d6 <__kernel_rem_pio2+0x37e>
    83f428fc:	f20007d3          	fmv.d.x	fa5,zero
    83f42900:	0a1c                	addi	a5,sp,272
    83f42902:	9f3e                	add	t5,t5,a5
    83f42904:	023c                	addi	a5,sp,264
    83f42906:	000f3707          	fld	fa4,0(t5)
    83f4290a:	1f61                	addi	t5,t5,-8
    83f4290c:	02e7f7d3          	fadd.d	fa5,fa5,fa4
    83f42910:	ffe79be3          	bne	a5,t5,83f42906 <__kernel_rem_pio2+0x6ae>
    83f42914:	04089e63          	bnez	a7,83f42970 <__kernel_rem_pio2+0x718>
    83f42918:	6782                	ld	a5,0(sp)
    83f4291a:	2752                	fld	fa4,272(sp)
    83f4291c:	a39c                	fsd	fa5,0(a5)
    83f4291e:	0af777d3          	fsub.d	fa5,fa4,fa5
    83f42922:	00605f63          	blez	t1,83f42940 <__kernel_rem_pio2+0x6e8>
    83f42926:	0a38                	addi	a4,sp,280
    83f42928:	4785                	li	a5,1
    83f4292a:	2318                	fld	fa4,0(a4)
    83f4292c:	2785                	addiw	a5,a5,1
    83f4292e:	0721                	addi	a4,a4,8
    83f42930:	02e7f7d3          	fadd.d	fa5,fa5,fa4
    83f42934:	fef35be3          	bge	t1,a5,83f4292a <__kernel_rem_pio2+0x6d2>
    83f42938:	00088463          	beqz	a7,83f42940 <__kernel_rem_pio2+0x6e8>
    83f4293c:	22f797d3          	fneg.d	fa5,fa5
    83f42940:	6782                	ld	a5,0(sp)
    83f42942:	a79c                	fsd	fa5,8(a5)
    83f42944:	bd19                	j	83f4275a <__kernel_rem_pio2+0x502>
    83f42946:	c2051753          	fcvt.w.d	a4,fa0,rtz
    83f4294a:	002a9793          	slli	a5,s5,0x2
    83f4294e:	0c94                	addi	a3,sp,592
    83f42950:	97b6                	add	a5,a5,a3
    83f42952:	dce7a823          	sw	a4,-560(a5)
    83f42956:	8356                	mv	t1,s5
    83f42958:	b33d                	j	83f42686 <__kernel_rem_pio2+0x42e>
    83f4295a:	6782                	ld	a5,0(sp)
    83f4295c:	22d696d3          	fneg.d	fa3,fa3
    83f42960:	22e71753          	fneg.d	fa4,fa4
    83f42964:	22f797d3          	fneg.d	fa5,fa5
    83f42968:	a394                	fsd	fa3,0(a5)
    83f4296a:	a798                	fsd	fa4,8(a5)
    83f4296c:	ab9c                	fsd	fa5,16(a5)
    83f4296e:	b3f5                	j	83f4275a <__kernel_rem_pio2+0x502>
    83f42970:	22f79753          	fneg.d	fa4,fa5
    83f42974:	6782                	ld	a5,0(sp)
    83f42976:	a398                	fsd	fa4,0(a5)
    83f42978:	2752                	fld	fa4,272(sp)
    83f4297a:	0af777d3          	fsub.d	fa5,fa4,fa5
    83f4297e:	fa6044e3          	bgtz	t1,83f42926 <__kernel_rem_pio2+0x6ce>
    83f42982:	22f797d3          	fneg.d	fa5,fa5
    83f42986:	bf6d                	j	83f42940 <__kernel_rem_pio2+0x6e8>
    83f42988:	6722                	ld	a4,8(sp)
    83f4298a:	4789                	li	a5,2
    83f4298c:	00e7cb63          	blt	a5,a4,83f429a2 <__kernel_rem_pio2+0x74a>
    83f42990:	f20007d3          	fmv.d.x	fa5,zero
    83f42994:	f8e040e3          	bgtz	a4,83f42914 <__kernel_rem_pio2+0x6bc>
    83f42998:	dc0711e3          	bnez	a4,83f4275a <__kernel_rem_pio2+0x502>
    83f4299c:	da088de3          	beqz	a7,83f42756 <__kernel_rem_pio2+0x4fe>
    83f429a0:	bb4d                	j	83f42752 <__kernel_rem_pio2+0x4fa>
    83f429a2:	6722                	ld	a4,8(sp)
    83f429a4:	478d                	li	a5,3
    83f429a6:	f20007d3          	fmv.d.x	fa5,zero
    83f429aa:	f0f704e3          	beq	a4,a5,83f428b2 <__kernel_rem_pio2+0x65a>
    83f429ae:	b375                	j	83f4275a <__kernel_rem_pio2+0x502>

0000000083f429b0 <__kernel_sin>:
    83f429b0:	e20507d3          	fmv.x.d	a5,fa0
    83f429b4:	3e4006b7          	lui	a3,0x3e400
    83f429b8:	00179713          	slli	a4,a5,0x1
    83f429bc:	9305                	srli	a4,a4,0x21
    83f429be:	00d75663          	bge	a4,a3,83f429ca <__kernel_sin+0x1a>
    83f429c2:	c2051753          	fcvt.w.d	a4,fa0,rtz
    83f429c6:	2701                	sext.w	a4,a4
    83f429c8:	c749                	beqz	a4,83f42a52 <__kernel_sin+0xa2>
    83f429ca:	f20787d3          	fmv.d.x	fa5,a5
    83f429ce:	00010717          	auipc	a4,0x10
    83f429d2:	d6a73507          	fld	fa0,-662(a4) # 83f52738 <xISRStackTop+0x2a8>
    83f429d6:	00010717          	auipc	a4,0x10
    83f429da:	d6a73007          	fld	ft0,-662(a4) # 83f52740 <xISRStackTop+0x2b0>
    83f429de:	12f7f753          	fmul.d	fa4,fa5,fa5
    83f429e2:	00010717          	auipc	a4,0x10
    83f429e6:	d4e73787          	fld	fa5,-690(a4) # 83f52730 <xISRStackTop+0x2a0>
    83f429ea:	00010717          	auipc	a4,0x10
    83f429ee:	d5e73607          	fld	fa2,-674(a4) # 83f52748 <xISRStackTop+0x2b8>
    83f429f2:	00010717          	auipc	a4,0x10
    83f429f6:	d5e73687          	fld	fa3,-674(a4) # 83f52750 <xISRStackTop+0x2c0>
    83f429fa:	52f777c3          	fmadd.d	fa5,fa4,fa5,fa0
    83f429fe:	f2078553          	fmv.d.x	fa0,a5
    83f42a02:	12e57553          	fmul.d	fa0,fa0,fa4
    83f42a06:	02e7f7c3          	fmadd.d	fa5,fa5,fa4,ft0
    83f42a0a:	62e7f7c3          	fmadd.d	fa5,fa5,fa4,fa2
    83f42a0e:	6ae7f7c3          	fmadd.d	fa5,fa5,fa4,fa3
    83f42a12:	ed01                	bnez	a0,83f42a2a <__kernel_sin+0x7a>
    83f42a14:	00010717          	auipc	a4,0x10
    83f42a18:	d4473687          	fld	fa3,-700(a4) # 83f52758 <xISRStackTop+0x2c8>
    83f42a1c:	6af777c3          	fmadd.d	fa5,fa4,fa5,fa3
    83f42a20:	f2078753          	fmv.d.x	fa4,a5
    83f42a24:	72a7f543          	fmadd.d	fa0,fa5,fa0,fa4
    83f42a28:	8082                	ret
    83f42a2a:	12f577d3          	fmul.d	fa5,fa0,fa5
    83f42a2e:	00010717          	auipc	a4,0x10
    83f42a32:	86a73687          	fld	fa3,-1942(a4) # 83f52298 <__func__.1+0xa0>
    83f42a36:	00010717          	auipc	a4,0x10
    83f42a3a:	d2a73607          	fld	fa2,-726(a4) # 83f52760 <xISRStackTop+0x2d0>
    83f42a3e:	7ad5f7c7          	fmsub.d	fa5,fa1,fa3,fa5
    83f42a42:	5ae7f5c7          	fmsub.d	fa1,fa5,fa4,fa1
    83f42a46:	f20787d3          	fmv.d.x	fa5,a5
    83f42a4a:	5ac57543          	fmadd.d	fa0,fa0,fa2,fa1
    83f42a4e:	0aa7f553          	fsub.d	fa0,fa5,fa0
    83f42a52:	8082                	ret

0000000083f42a54 <finite>:
    83f42a54:	e2050553          	fmv.x.d	a0,fa0
    83f42a58:	801007b7          	lui	a5,0x80100
    83f42a5c:	0506                	slli	a0,a0,0x1
    83f42a5e:	9105                	srli	a0,a0,0x21
    83f42a60:	9d3d                	addw	a0,a0,a5
    83f42a62:	01f5551b          	srliw	a0,a0,0x1f
    83f42a66:	8082                	ret

0000000083f42a68 <nan>:
    83f42a68:	00010797          	auipc	a5,0x10
    83f42a6c:	d007b507          	fld	fa0,-768(a5) # 83f52768 <xISRStackTop+0x2d8>
    83f42a70:	8082                	ret

0000000083f42a72 <rint>:
    83f42a72:	e20507d3          	fmv.x.d	a5,fa0
    83f42a76:	454d                	li	a0,19
    83f42a78:	1141                	addi	sp,sp,-16
    83f42a7a:	4347d613          	srai	a2,a5,0x34
    83f42a7e:	7ff67613          	andi	a2,a2,2047
    83f42a82:	c016059b          	addiw	a1,a2,-1023
    83f42a86:	4207d713          	srai	a4,a5,0x20
    83f42a8a:	0007869b          	sext.w	a3,a5
    83f42a8e:	0007a893          	slti	a7,a5,0
    83f42a92:	0eb54d63          	blt	a0,a1,83f42b8c <rint+0x11a>
    83f42a96:	0605cd63          	bltz	a1,83f42b10 <rint+0x9e>
    83f42a9a:	00100637          	lui	a2,0x100
    83f42a9e:	367d                	addiw	a2,a2,-1
    83f42aa0:	40b6563b          	sraw	a2,a2,a1
    83f42aa4:	00c77833          	and	a6,a4,a2
    83f42aa8:	00d86833          	or	a6,a6,a3
    83f42aac:	2801                	sext.w	a6,a6
    83f42aae:	04080d63          	beqz	a6,83f42b08 <rint+0x96>
    83f42ab2:	0016561b          	srliw	a2,a2,0x1
    83f42ab6:	00c777b3          	and	a5,a4,a2
    83f42aba:	8edd                	or	a3,a3,a5
    83f42abc:	2681                	sext.w	a3,a3
    83f42abe:	ce99                	beqz	a3,83f42adc <rint+0x6a>
    83f42ac0:	800006b7          	lui	a3,0x80000
    83f42ac4:	00a58363          	beq	a1,a0,83f42aca <rint+0x58>
    83f42ac8:	4681                	li	a3,0
    83f42aca:	fff64613          	not	a2,a2
    83f42ace:	000407b7          	lui	a5,0x40
    83f42ad2:	8f71                	and	a4,a4,a2
    83f42ad4:	40b7d5bb          	sraw	a1,a5,a1
    83f42ad8:	8f4d                	or	a4,a4,a1
    83f42ada:	2701                	sext.w	a4,a4
    83f42adc:	1682                	slli	a3,a3,0x20
    83f42ade:	00389793          	slli	a5,a7,0x3
    83f42ae2:	0000e617          	auipc	a2,0xe
    83f42ae6:	16e60613          	addi	a2,a2,366 # 83f50c50 <TWO52>
    83f42aea:	9281                	srli	a3,a3,0x20
    83f42aec:	1702                	slli	a4,a4,0x20
    83f42aee:	97b2                	add	a5,a5,a2
    83f42af0:	8f55                	or	a4,a4,a3
    83f42af2:	2398                	fld	fa4,0(a5)
    83f42af4:	f20707d3          	fmv.d.x	fa5,a4
    83f42af8:	02f777d3          	fadd.d	fa5,fa4,fa5
    83f42afc:	a43e                	fsd	fa5,8(sp)
    83f42afe:	27a2                	fld	fa5,8(sp)
    83f42b00:	0ae7f7d3          	fsub.d	fa5,fa5,fa4
    83f42b04:	e20787d3          	fmv.x.d	a5,fa5
    83f42b08:	f2078553          	fmv.d.x	fa0,a5
    83f42b0c:	0141                	addi	sp,sp,16
    83f42b0e:	8082                	ret
    83f42b10:	800005b7          	lui	a1,0x80000
    83f42b14:	fff5c593          	not	a1,a1
    83f42b18:	00b77633          	and	a2,a4,a1
    83f42b1c:	8e55                	or	a2,a2,a3
    83f42b1e:	d66d                	beqz	a2,83f42b08 <rint+0x96>
    83f42b20:	883a                	mv	a6,a4
    83f42b22:	1732                	slli	a4,a4,0x2c
    83f42b24:	9331                	srli	a4,a4,0x2c
    83f42b26:	8ed9                	or	a3,a3,a4
    83f42b28:	40d0073b          	negw	a4,a3
    83f42b2c:	8f55                	or	a4,a4,a3
    83f42b2e:	00c7571b          	srliw	a4,a4,0xc
    83f42b32:	000806b7          	lui	a3,0x80
    83f42b36:	8f75                	and	a4,a4,a3
    83f42b38:	0000e617          	auipc	a2,0xe
    83f42b3c:	11860613          	addi	a2,a2,280 # 83f50c50 <TWO52>
    83f42b40:	088e                	slli	a7,a7,0x3
    83f42b42:	7681                	lui	a3,0xfffe0
    83f42b44:	00d876b3          	and	a3,a6,a3
    83f42b48:	98b2                	add	a7,a7,a2
    83f42b4a:	567d                	li	a2,-1
    83f42b4c:	9201                	srli	a2,a2,0x20
    83f42b4e:	8f55                	or	a4,a4,a3
    83f42b50:	8ff1                	and	a5,a5,a2
    83f42b52:	1702                	slli	a4,a4,0x20
    83f42b54:	8f5d                	or	a4,a4,a5
    83f42b56:	0008b707          	fld	fa4,0(a7) # ffffffffbff00000 <_end+0xffffffff3bf002c0>
    83f42b5a:	f20707d3          	fmv.d.x	fa5,a4
    83f42b5e:	800006b7          	lui	a3,0x80000
    83f42b62:	00d876b3          	and	a3,a6,a3
    83f42b66:	02f777d3          	fadd.d	fa5,fa4,fa5
    83f42b6a:	a43e                	fsd	fa5,8(sp)
    83f42b6c:	27a2                	fld	fa5,8(sp)
    83f42b6e:	0141                	addi	sp,sp,16
    83f42b70:	0ae7f7d3          	fsub.d	fa5,fa5,fa4
    83f42b74:	e2078753          	fmv.x.d	a4,fa5
    83f42b78:	02075793          	srli	a5,a4,0x20
    83f42b7c:	8fed                	and	a5,a5,a1
    83f42b7e:	8fd5                	or	a5,a5,a3
    83f42b80:	1782                	slli	a5,a5,0x20
    83f42b82:	8e79                	and	a2,a2,a4
    83f42b84:	8fd1                	or	a5,a5,a2
    83f42b86:	f2078553          	fmv.d.x	fa0,a5
    83f42b8a:	8082                	ret
    83f42b8c:	03300513          	li	a0,51
    83f42b90:	00b55b63          	bge	a0,a1,83f42ba6 <rint+0x134>
    83f42b94:	40000713          	li	a4,1024
    83f42b98:	f6e598e3          	bne	a1,a4,83f42b08 <rint+0x96>
    83f42b9c:	02a577d3          	fadd.d	fa5,fa0,fa0
    83f42ba0:	e20787d3          	fmv.x.d	a5,fa5
    83f42ba4:	b795                	j	83f42b08 <rint+0x96>
    83f42ba6:	bed6061b          	addiw	a2,a2,-1043
    83f42baa:	55fd                	li	a1,-1
    83f42bac:	00c5d5bb          	srlw	a1,a1,a2
    83f42bb0:	00b6f533          	and	a0,a3,a1
    83f42bb4:	2501                	sext.w	a0,a0
    83f42bb6:	8836                	mv	a6,a3
    83f42bb8:	d921                	beqz	a0,83f42b08 <rint+0x96>
    83f42bba:	0015d59b          	srliw	a1,a1,0x1
    83f42bbe:	00b6f7b3          	and	a5,a3,a1
    83f42bc2:	2781                	sext.w	a5,a5
    83f42bc4:	df81                	beqz	a5,83f42adc <rint+0x6a>
    83f42bc6:	fff5c593          	not	a1,a1
    83f42bca:	400007b7          	lui	a5,0x40000
    83f42bce:	0105f6b3          	and	a3,a1,a6
    83f42bd2:	40c7d63b          	sraw	a2,a5,a2
    83f42bd6:	8ed1                	or	a3,a3,a2
    83f42bd8:	2681                	sext.w	a3,a3
    83f42bda:	b709                	j	83f42adc <rint+0x6a>

0000000083f42bdc <scalbn>:
    83f42bdc:	e20507d3          	fmv.x.d	a5,fa0
    83f42be0:	4347d713          	srai	a4,a5,0x34
    83f42be4:	7ff77713          	andi	a4,a4,2047
    83f42be8:	4207d693          	srai	a3,a5,0x20
    83f42bec:	ef25                	bnez	a4,83f42c64 <scalbn+0x88>
    83f42bee:	1686                	slli	a3,a3,0x21
    83f42bf0:	9285                	srli	a3,a3,0x21
    83f42bf2:	8edd                	or	a3,a3,a5
    83f42bf4:	2681                	sext.w	a3,a3
    83f42bf6:	c6a5                	beqz	a3,83f42c5e <scalbn+0x82>
    83f42bf8:	00010717          	auipc	a4,0x10
    83f42bfc:	9b073787          	fld	fa5,-1616(a4) # 83f525a8 <xISRStackTop+0x118>
    83f42c00:	12f577d3          	fmul.d	fa5,fa0,fa5
    83f42c04:	7751                	lui	a4,0xffff4
    83f42c06:	cb070713          	addi	a4,a4,-848 # ffffffffffff3cb0 <_end+0xffffffff7bff3f70>
    83f42c0a:	e20787d3          	fmv.x.d	a5,fa5
    83f42c0e:	0ce54f63          	blt	a0,a4,83f42cec <scalbn+0x110>
    83f42c12:	4347d713          	srai	a4,a5,0x34
    83f42c16:	7ff77713          	andi	a4,a4,2047
    83f42c1a:	4207d693          	srai	a3,a5,0x20
    83f42c1e:	fca7071b          	addiw	a4,a4,-54
    83f42c22:	00e5063b          	addw	a2,a0,a4
    83f42c26:	7fe00593          	li	a1,2046
    83f42c2a:	8732                	mv	a4,a2
    83f42c2c:	04c5c763          	blt	a1,a2,83f42c7a <scalbn+0x9e>
    83f42c30:	08c04f63          	bgtz	a2,83f42cce <scalbn+0xf2>
    83f42c34:	fcb00593          	li	a1,-53
    83f42c38:	06b65063          	bge	a2,a1,83f42c98 <scalbn+0xbc>
    83f42c3c:	6731                	lui	a4,0xc
    83f42c3e:	35070713          	addi	a4,a4,848 # c350 <_EL1_STACK_SIZE+0xbb50>
    83f42c42:	02a74c63          	blt	a4,a0,83f42c7a <scalbn+0x9e>
    83f42c46:	f20787d3          	fmv.d.x	fa5,a5
    83f42c4a:	00010717          	auipc	a4,0x10
    83f42c4e:	a2673707          	fld	fa4,-1498(a4) # 83f52670 <xISRStackTop+0x1e0>
    83f42c52:	22f707d3          	fsgnj.d	fa5,fa4,fa5
    83f42c56:	12e7f7d3          	fmul.d	fa5,fa5,fa4
    83f42c5a:	e20787d3          	fmv.x.d	a5,fa5
    83f42c5e:	f2078553          	fmv.d.x	fa0,a5
    83f42c62:	8082                	ret
    83f42c64:	7ff00613          	li	a2,2047
    83f42c68:	fac71de3          	bne	a4,a2,83f42c22 <scalbn+0x46>
    83f42c6c:	02a577d3          	fadd.d	fa5,fa0,fa0
    83f42c70:	e20787d3          	fmv.x.d	a5,fa5
    83f42c74:	f2078553          	fmv.d.x	fa0,a5
    83f42c78:	8082                	ret
    83f42c7a:	f20787d3          	fmv.d.x	fa5,a5
    83f42c7e:	00010717          	auipc	a4,0x10
    83f42c82:	82273707          	fld	fa4,-2014(a4) # 83f524a0 <xISRStackTop+0x10>
    83f42c86:	22f707d3          	fsgnj.d	fa5,fa4,fa5
    83f42c8a:	12e7f7d3          	fmul.d	fa5,fa5,fa4
    83f42c8e:	e20787d3          	fmv.x.d	a5,fa5
    83f42c92:	f2078553          	fmv.d.x	fa0,a5
    83f42c96:	8082                	ret
    83f42c98:	0366071b          	addiw	a4,a2,54
    83f42c9c:	80100637          	lui	a2,0x80100
    83f42ca0:	167d                	addi	a2,a2,-1
    83f42ca2:	8ef1                	and	a3,a3,a2
    83f42ca4:	0147171b          	slliw	a4,a4,0x14
    83f42ca8:	8f55                	or	a4,a4,a3
    83f42caa:	56fd                	li	a3,-1
    83f42cac:	9281                	srli	a3,a3,0x20
    83f42cae:	1702                	slli	a4,a4,0x20
    83f42cb0:	8ff5                	and	a5,a5,a3
    83f42cb2:	8fd9                	or	a5,a5,a4
    83f42cb4:	f2078753          	fmv.d.x	fa4,a5
    83f42cb8:	00010717          	auipc	a4,0x10
    83f42cbc:	ab873787          	fld	fa5,-1352(a4) # 83f52770 <xISRStackTop+0x2e0>
    83f42cc0:	12e7f7d3          	fmul.d	fa5,fa5,fa4
    83f42cc4:	e20787d3          	fmv.x.d	a5,fa5
    83f42cc8:	f2078553          	fmv.d.x	fa0,a5
    83f42ccc:	8082                	ret
    83f42cce:	80100637          	lui	a2,0x80100
    83f42cd2:	167d                	addi	a2,a2,-1
    83f42cd4:	8ef1                	and	a3,a3,a2
    83f42cd6:	0147171b          	slliw	a4,a4,0x14
    83f42cda:	8f55                	or	a4,a4,a3
    83f42cdc:	56fd                	li	a3,-1
    83f42cde:	9281                	srli	a3,a3,0x20
    83f42ce0:	1702                	slli	a4,a4,0x20
    83f42ce2:	8ff5                	and	a5,a5,a3
    83f42ce4:	8fd9                	or	a5,a5,a4
    83f42ce6:	f2078553          	fmv.d.x	fa0,a5
    83f42cea:	8082                	ret
    83f42cec:	f2078753          	fmv.d.x	fa4,a5
    83f42cf0:	00010717          	auipc	a4,0x10
    83f42cf4:	98073787          	fld	fa5,-1664(a4) # 83f52670 <xISRStackTop+0x1e0>
    83f42cf8:	12f777d3          	fmul.d	fa5,fa4,fa5
    83f42cfc:	e20787d3          	fmv.x.d	a5,fa5
    83f42d00:	f2078553          	fmv.d.x	fa0,a5
    83f42d04:	8082                	ret

0000000083f42d06 <abs>:
    83f42d06:	41f5579b          	sraiw	a5,a0,0x1f
    83f42d0a:	8d3d                	xor	a0,a0,a5
    83f42d0c:	9d1d                	subw	a0,a0,a5
    83f42d0e:	8082                	ret

0000000083f42d10 <__errno>:
    83f42d10:	00010517          	auipc	a0,0x10
    83f42d14:	4a053503          	ld	a0,1184(a0) # 83f531b0 <_impure_ptr>
    83f42d18:	8082                	ret

0000000083f42d1a <memmove>:
    83f42d1a:	02a5f263          	bgeu	a1,a0,83f42d3e <memmove+0x24>
    83f42d1e:	00c587b3          	add	a5,a1,a2
    83f42d22:	00f57e63          	bgeu	a0,a5,83f42d3e <memmove+0x24>
    83f42d26:	00c50733          	add	a4,a0,a2
    83f42d2a:	ca5d                	beqz	a2,83f42de0 <memmove+0xc6>
    83f42d2c:	fff7c683          	lbu	a3,-1(a5) # 3fffffff <CVIMMAP_DRAM_SIZE+0x3bffffff>
    83f42d30:	17fd                	addi	a5,a5,-1
    83f42d32:	177d                	addi	a4,a4,-1
    83f42d34:	00d70023          	sb	a3,0(a4)
    83f42d38:	fef59ae3          	bne	a1,a5,83f42d2c <memmove+0x12>
    83f42d3c:	8082                	ret
    83f42d3e:	47fd                	li	a5,31
    83f42d40:	02c7e163          	bltu	a5,a2,83f42d62 <memmove+0x48>
    83f42d44:	87aa                	mv	a5,a0
    83f42d46:	fff60693          	addi	a3,a2,-1 # ffffffff800fffff <_end+0xfffffffefc1002bf>
    83f42d4a:	c245                	beqz	a2,83f42dea <memmove+0xd0>
    83f42d4c:	0685                	addi	a3,a3,1
    83f42d4e:	96be                	add	a3,a3,a5
    83f42d50:	0005c703          	lbu	a4,0(a1) # ffffffff80000000 <_end+0xfffffffefc0002c0>
    83f42d54:	0785                	addi	a5,a5,1
    83f42d56:	0585                	addi	a1,a1,1
    83f42d58:	fee78fa3          	sb	a4,-1(a5)
    83f42d5c:	fed79ae3          	bne	a5,a3,83f42d50 <memmove+0x36>
    83f42d60:	8082                	ret
    83f42d62:	00a5e7b3          	or	a5,a1,a0
    83f42d66:	8b9d                	andi	a5,a5,7
    83f42d68:	efad                	bnez	a5,83f42de2 <memmove+0xc8>
    83f42d6a:	fe060893          	addi	a7,a2,-32
    83f42d6e:	fe08f893          	andi	a7,a7,-32
    83f42d72:	02088893          	addi	a7,a7,32
    83f42d76:	01150833          	add	a6,a0,a7
    83f42d7a:	872e                	mv	a4,a1
    83f42d7c:	87aa                	mv	a5,a0
    83f42d7e:	6314                	ld	a3,0(a4)
    83f42d80:	02070713          	addi	a4,a4,32
    83f42d84:	02078793          	addi	a5,a5,32
    83f42d88:	fed7b023          	sd	a3,-32(a5)
    83f42d8c:	fe873683          	ld	a3,-24(a4)
    83f42d90:	fed7b423          	sd	a3,-24(a5)
    83f42d94:	ff073683          	ld	a3,-16(a4)
    83f42d98:	fed7b823          	sd	a3,-16(a5)
    83f42d9c:	ff873683          	ld	a3,-8(a4)
    83f42da0:	fed7bc23          	sd	a3,-8(a5)
    83f42da4:	fcf81de3          	bne	a6,a5,83f42d7e <memmove+0x64>
    83f42da8:	01867713          	andi	a4,a2,24
    83f42dac:	95c6                	add	a1,a1,a7
    83f42dae:	01f67813          	andi	a6,a2,31
    83f42db2:	cf0d                	beqz	a4,83f42dec <memmove+0xd2>
    83f42db4:	872e                	mv	a4,a1
    83f42db6:	88be                	mv	a7,a5
    83f42db8:	4e1d                	li	t3,7
    83f42dba:	00073303          	ld	t1,0(a4)
    83f42dbe:	0721                	addi	a4,a4,8
    83f42dc0:	40e806b3          	sub	a3,a6,a4
    83f42dc4:	0068b023          	sd	t1,0(a7)
    83f42dc8:	96ae                	add	a3,a3,a1
    83f42dca:	08a1                	addi	a7,a7,8
    83f42dcc:	fede67e3          	bltu	t3,a3,83f42dba <memmove+0xa0>
    83f42dd0:	ff880713          	addi	a4,a6,-8
    83f42dd4:	9b61                	andi	a4,a4,-8
    83f42dd6:	0721                	addi	a4,a4,8
    83f42dd8:	8a1d                	andi	a2,a2,7
    83f42dda:	97ba                	add	a5,a5,a4
    83f42ddc:	95ba                	add	a1,a1,a4
    83f42dde:	b7a5                	j	83f42d46 <memmove+0x2c>
    83f42de0:	8082                	ret
    83f42de2:	fff60693          	addi	a3,a2,-1
    83f42de6:	87aa                	mv	a5,a0
    83f42de8:	b795                	j	83f42d4c <memmove+0x32>
    83f42dea:	8082                	ret
    83f42dec:	8642                	mv	a2,a6
    83f42dee:	bfa1                	j	83f42d46 <memmove+0x2c>

0000000083f42df0 <__clzdi2>:
    83f42df0:	03800793          	li	a5,56
    83f42df4:	00f55733          	srl	a4,a0,a5
    83f42df8:	0ff77713          	andi	a4,a4,255
    83f42dfc:	e319                	bnez	a4,83f42e02 <__clzdi2+0x12>
    83f42dfe:	17e1                	addi	a5,a5,-8
    83f42e00:	fbf5                	bnez	a5,83f42df4 <__clzdi2+0x4>
    83f42e02:	04000713          	li	a4,64
    83f42e06:	8f1d                	sub	a4,a4,a5
    83f42e08:	00f55533          	srl	a0,a0,a5
    83f42e0c:	0000e797          	auipc	a5,0xe
    83f42e10:	e5478793          	addi	a5,a5,-428 # 83f50c60 <__clz_tab>
    83f42e14:	953e                	add	a0,a0,a5
    83f42e16:	00054503          	lbu	a0,0(a0)
    83f42e1a:	40a7053b          	subw	a0,a4,a0
    83f42e1e:	8082                	ret

0000000083f42e20 <main>:
uint8_t ucHeap[ configTOTAL_HEAP_SIZE ] __attribute__ ( ( section( ".heap" ) ) );
#endif
/*-----------------------------------------------------------*/

int main(void)
{
    83f42e20:	1141                	addi	sp,sp,-16
    83f42e22:	e406                	sd	ra,8(sp)
	pre_system_init();
    83f42e24:	670090ef          	jal	ra,83f4c494 <pre_system_init>
	printf("CVIRTOS Build Date:%s  (Time :%s) \n", __DATE__, __TIME__);
    83f42e28:	0000e617          	auipc	a2,0xe
    83f42e2c:	f3860613          	addi	a2,a2,-200 # 83f50d60 <__clz_tab+0x100>
    83f42e30:	0000e597          	auipc	a1,0xe
    83f42e34:	f4058593          	addi	a1,a1,-192 # 83f50d70 <__clz_tab+0x110>
    83f42e38:	0000e517          	auipc	a0,0xe
    83f42e3c:	f4850513          	addi	a0,a0,-184 # 83f50d80 <__clz_tab+0x120>
    83f42e40:	154090ef          	jal	ra,83f4bf94 <printf>
	/* Configure the hardware ready to run the demo. */
	prvSetupHardware();
#if ( configUSE_TRACE_FACILITY == 1 )
	vTraceEnable(TRC_START);
#endif
	post_system_init();
    83f42e44:	5d0090ef          	jal	ra,83f4c414 <post_system_init>

#ifdef CVIRTOS
	{
		main_cvirtos();
    83f42e48:	51a000ef          	jal	ra,83f43362 <main_cvirtos>
#error "Not correct running definition"
#endif

	/* Don't expect to reach here. */
	return 0;
}
    83f42e4c:	60a2                	ld	ra,8(sp)
    83f42e4e:	4501                	li	a0,0
    83f42e50:	0141                	addi	sp,sp,16
    83f42e52:	8082                	ret

0000000083f42e54 <vApplicationMallocFailedHook>:
#endif
}
/*-----------------------------------------------------------*/

void vApplicationMallocFailedHook(void)
{
    83f42e54:	1141                	addi	sp,sp,-16
    83f42e56:	e406                	sd	ra,8(sp)
	/* Called if a call to pvPortMalloc() fails because there is insufficient
	free memory available in the FreeRTOS heap.  pvPortMalloc() is called
	internally by FreeRTOS API functions that create tasks, queues, software
	timers, and semaphores.  The size of the FreeRTOS heap is set by the
	configTOTAL_HEAP_SIZE configuration constant in FreeRTOSConfig.h. */
	taskDISABLE_INTERRUPTS();
    83f42e58:	30047073          	csrci	mstatus,8
	dump_uart_disable();
    83f42e5c:	083090ef          	jal	ra,83f4c6de <dump_uart_disable>
	printf("vApplicationMallocFailedHook\n");
    83f42e60:	0000e517          	auipc	a0,0xe
    83f42e64:	f4850513          	addi	a0,a0,-184 # 83f50da8 <__clz_tab+0x148>
    83f42e68:	12c090ef          	jal	ra,83f4bf94 <printf>
	for (;;)
    83f42e6c:	a001                	j	83f42e6c <vApplicationMallocFailedHook+0x18>

0000000083f42e6e <vApplicationStackOverflowHook>:
		;
}
/*-----------------------------------------------------------*/

void vApplicationStackOverflowHook(TaskHandle_t pxTask, char *pcTaskName)
{
    83f42e6e:	1141                	addi	sp,sp,-16
    83f42e70:	e406                	sd	ra,8(sp)
    83f42e72:	e022                	sd	s0,0(sp)
    83f42e74:	842e                	mv	s0,a1
	(void)pcTaskName;
	(void)pxTask;
	dump_uart_disable();
    83f42e76:	069090ef          	jal	ra,83f4c6de <dump_uart_disable>
	printf("%s %s\n", __func__, pcTaskName);
    83f42e7a:	8622                	mv	a2,s0
    83f42e7c:	0000e597          	auipc	a1,0xe
    83f42e80:	f5458593          	addi	a1,a1,-172 # 83f50dd0 <__func__.4>
    83f42e84:	0000e517          	auipc	a0,0xe
    83f42e88:	f4450513          	addi	a0,a0,-188 # 83f50dc8 <__clz_tab+0x168>
    83f42e8c:	108090ef          	jal	ra,83f4bf94 <printf>
	/* Run time stack overflow checking is performed if
	configCHECK_FOR_STACK_OVERFLOW is defined to 1 or 2.  This hook
	function is called if a stack overflow is detected. */
	taskDISABLE_INTERRUPTS();
    83f42e90:	30047073          	csrci	mstatus,8
	for (;;)
    83f42e94:	a001                	j	83f42e94 <vApplicationStackOverflowHook+0x26>

0000000083f42e96 <vApplicationTickHook>:
		/* Only the comprehensive demo actually uses the tick hook. */
		extern void vFullDemoTickHook(void);
		vFullDemoTickHook();
	}
#endif
}
    83f42e96:	8082                	ret

0000000083f42e98 <vApplicationGetIdleTaskMemory>:
	static StaticTask_t xIdleTaskTCB;
	static StackType_t uxIdleTaskStack[configMINIMAL_STACK_SIZE];

	/* Pass out a pointer to the StaticTask_t structure in which the Idle task's
	state will be stored. */
	*ppxIdleTaskTCBBuffer = &xIdleTaskTCB;
    83f42e98:	00016797          	auipc	a5,0x16
    83f42e9c:	36878793          	addi	a5,a5,872 # 83f59200 <xIdleTaskTCB.3>
    83f42ea0:	e11c                	sd	a5,0(a0)

	/* Pass out the array that will be used as the Idle task's stack. */
	*ppxIdleTaskStackBuffer = uxIdleTaskStack;
    83f42ea2:	00010797          	auipc	a5,0x10
    83f42ea6:	35e78793          	addi	a5,a5,862 # 83f53200 <__data1_end>
    83f42eaa:	e19c                	sd	a5,0(a1)

	/* Pass out the size of the array pointed to by *ppxIdleTaskStackBuffer.
	Note that, as the array is necessarily of type StackType_t,
	configMINIMAL_STACK_SIZE is specified in words, not bytes. */
	*pulIdleTaskStackSize = configMINIMAL_STACK_SIZE;
    83f42eac:	40000793          	li	a5,1024
    83f42eb0:	c21c                	sw	a5,0(a2)
}
    83f42eb2:	8082                	ret

0000000083f42eb4 <vApplicationGetTimerTaskMemory>:
	static StaticTask_t xTimerTaskTCB;
	static StackType_t uxTimerTaskStack[configTIMER_TASK_STACK_DEPTH];

	/* Pass out a pointer to the StaticTask_t structure in which the Timer
	task's state will be stored. */
	*ppxTimerTaskTCBBuffer = &xTimerTaskTCB;
    83f42eb4:	00016797          	auipc	a5,0x16
    83f42eb8:	3f478793          	addi	a5,a5,1012 # 83f592a8 <xTimerTaskTCB.1>
    83f42ebc:	e11c                	sd	a5,0(a0)

	/* Pass out the array that will be used as the Timer task's stack. */
	*ppxTimerTaskStackBuffer = uxTimerTaskStack;
    83f42ebe:	00012797          	auipc	a5,0x12
    83f42ec2:	34278793          	addi	a5,a5,834 # 83f55200 <uxTimerTaskStack.0>
    83f42ec6:	e19c                	sd	a5,0(a1)

	/* Pass out the size of the array pointed to by *ppxTimerTaskStackBuffer.
	Note that, as the array is necessarily of type StackType_t,
	configMINIMAL_STACK_SIZE is specified in words, not bytes. */
	*pulTimerTaskStackSize = configTIMER_TASK_STACK_DEPTH;
    83f42ec8:	6785                	lui	a5,0x1
    83f42eca:	80078793          	addi	a5,a5,-2048 # 800 <_EL1_STACK_SIZE>
    83f42ece:	c21c                	sw	a5,0(a2)
}
    83f42ed0:	8082                	ret

0000000083f42ed2 <prvCmdQuRunTask>:

#ifdef FAST_IMAGE_ENABLE
extern JPEG_PIC encoded_pics[MAX_JPEG_NUM];
#endif
void prvCmdQuRunTask(void *pvParameters)
{
    83f42ed2:	7159                	addi	sp,sp,-112
    83f42ed4:	f45e                	sd	s7,40(sp)
	int send_to_cpu = SEND_TO_CPU1;

	unsigned int reg_base = MAILBOX_REG_BASE;

	/* set mcu_status to type1 running*/
	transfer_config.mcu_status = MCU_STATUS_RTOS_T1_RUNNING;
    83f42ed6:	0001ab97          	auipc	s7,0x1a
    83f42eda:	5aab8b93          	addi	s7,s7,1450 # 83f5d480 <transfer_config>
{
    83f42ede:	e0d2                	sd	s4,64(sp)

	if (transfer_config.conf_magic == C906_MAGIC_HEADER)
		send_to_cpu = SEND_TO_CPU1;
	else if (transfer_config.conf_magic == CA53_MAGIC_HEADER)
    83f42ee0:	000baa03          	lw	s4,0(s7)
    83f42ee4:	a55ad737          	lui	a4,0xa55ad
		send_to_cpu = SEND_TO_CPU0;
	/* to compatible code with linux side */
	cmdq = &rtos_cmdq;
	mbox_reg = (struct mailbox_set_register *) reg_base;
    83f42ee8:	019007b7          	lui	a5,0x1900
	else if (transfer_config.conf_magic == CA53_MAGIC_HEADER)
    83f42eec:	a5370713          	addi	a4,a4,-1453 # ffffffffa55aca53 <_end+0xffffffff215acd13>
    83f42ef0:	40ea0a33          	sub	s4,s4,a4
	mbox_done_reg = (struct mailbox_done_register *) (reg_base + 2);
    83f42ef4:	00278693          	addi	a3,a5,2 # 1900002 <CVIMMAP_FSBL_UNZIP_SIZE+0xa00002>
	mailbox_context = (unsigned long *) (MAILBOX_REG_BUFF);
    83f42ef8:	40078713          	addi	a4,a5,1024
	transfer_config.mcu_status = MCU_STATUS_RTOS_T1_RUNNING;
    83f42efc:	4615                	li	a2,5
{
    83f42efe:	e4ce                	sd	s3,72(sp)
    83f42f00:	f85a                	sd	s6,48(sp)
	mailbox_context = (unsigned long *) (MAILBOX_REG_BUFF);
    83f42f02:	0001d997          	auipc	s3,0x1d
    83f42f06:	ca698993          	addi	s3,s3,-858 # 83f5fba8 <mailbox_context>
	mbox_reg = (struct mailbox_set_register *) reg_base;
    83f42f0a:	0001db17          	auipc	s6,0x1d
    83f42f0e:	caeb0b13          	addi	s6,s6,-850 # 83f5fbb8 <mbox_reg>
    83f42f12:	00fb3023          	sd	a5,0(s6)
{
    83f42f16:	f486                	sd	ra,104(sp)
    83f42f18:	f0a2                	sd	s0,96(sp)
    83f42f1a:	eca6                	sd	s1,88(sp)
    83f42f1c:	e8ca                	sd	s2,80(sp)
    83f42f1e:	fc56                	sd	s5,56(sp)
    83f42f20:	f062                	sd	s8,32(sp)
    83f42f22:	ec66                	sd	s9,24(sp)
		send_to_cpu = SEND_TO_CPU0;
    83f42f24:	01403ab3          	snez	s5,s4
	transfer_config.mcu_status = MCU_STATUS_RTOS_T1_RUNNING;
    83f42f28:	02cb8323          	sb	a2,38(s7)
	mbox_done_reg = (struct mailbox_done_register *) (reg_base + 2);
    83f42f2c:	0001d797          	auipc	a5,0x1d
    83f42f30:	c8d7b223          	sd	a3,-892(a5) # 83f5fbb0 <mbox_done_reg>
	mailbox_context = (unsigned long *) (MAILBOX_REG_BUFF);
    83f42f34:	00e9b023          	sd	a4,0(s3)
{
    83f42f38:	e86a                	sd	s10,16(sp)

	cvi_spinlock_init();
    83f42f3a:	3b5090ef          	jal	ra,83f4caee <cvi_spinlock_init>
	else if (transfer_config.conf_magic == CA53_MAGIC_HEADER)
    83f42f3e:	8a56                	mv	s4,s5
	printf("prvCmdQuRunTask run\n");
    83f42f40:	0000e517          	auipc	a0,0xe
    83f42f44:	eb050513          	addi	a0,a0,-336 # 83f50df0 <__func__.4+0x20>
				break;
			case SYS_CMD_INFO_STOP_ISR_DONE:
				// stop interrupt in order to avoid losing frame
				if (rtos_cmdq.ip_id == IP_VI) {
					stop_ip |= STOP_CMD_DONE_VI;
					rtos_cmdq.ip_id = IP_VCODEC;
    83f42f48:	6c15                	lui	s8,0x5
						debug_printf("rtos_cmdqu_t->cmd_id = %d\n", rtos_cmdqu_t->cmd_id);
						debug_printf("rtos_cmdqu_t->block = %d\n", rtos_cmdqu_t->block);
						debug_printf("rtos_cmdqu_t->param_ptr addr=%x %x\n", &rtos_cmdqu_t->param_ptr, rtos_cmdqu_t->param_ptr);
						debug_printf("*ptr = %x\n", *ptr);
						// clear mailbox
						mbox_reg->cpu_mbox_set[send_to_cpu].cpu_mbox_int_clr.mbox_int_clr = (1 << valid);
    83f42f4a:	0a85                	addi	s5,s5,1
					if (rtos_cmdqu_t->resv.valid.linux_valid == 0 && rtos_cmdqu_t->resv.valid.rtos_valid == 0) {
    83f42f4c:	0ffff437          	lui	s0,0xffff
	printf("prvCmdQuRunTask run\n");
    83f42f50:	044090ef          	jal	ra,83f4bf94 <printf>
    83f42f54:	00010917          	auipc	s2,0x10
    83f42f58:	f7490913          	addi	s2,s2,-140 # 83f52ec8 <gTaskCtx>
					if (rtos_cmdqu_t->resv.valid.linux_valid == 0 && rtos_cmdqu_t->resv.valid.rtos_valid == 0) {
    83f42f5c:	0412                	slli	s0,s0,0x4
				for (valid = 0; valid < MAILBOX_MAX_NUM; valid++) {
    83f42f5e:	44a1                	li	s1,8
						mbox_reg->cpu_mbox_set[send_to_cpu].cpu_mbox_int_clr.mbox_int_clr = (1 << valid);
    83f42f60:	0a92                	slli	s5,s5,0x4
					rtos_cmdq.ip_id = IP_VCODEC;
    83f42f62:	301c0c93          	addi	s9,s8,769 # 5301 <_EL1_STACK_SIZE+0x4b01>
		xQueueReceive(gTaskCtx[E_QUEUE_CMDQU].queHandle, &rtos_cmdq, portMAX_DELAY);
    83f42f66:	1a893503          	ld	a0,424(s2)
    83f42f6a:	567d                	li	a2,-1
    83f42f6c:	002c                	addi	a1,sp,8
    83f42f6e:	4d90b0ef          	jal	ra,83f4ec46 <xQueueReceive>
		switch (rtos_cmdq.cmd_id) {
    83f42f72:	67a2                	ld	a5,8(sp)
    83f42f74:	4729                	li	a4,10
    83f42f76:	83a1                	srli	a5,a5,0x8
    83f42f78:	02f78793          	addi	a5,a5,47
    83f42f7c:	07f7f793          	andi	a5,a5,127
    83f42f80:	02f76063          	bltu	a4,a5,83f42fa0 <prvCmdQuRunTask+0xce>
    83f42f84:	0000e717          	auipc	a4,0xe
    83f42f88:	f1c70713          	addi	a4,a4,-228 # 83f50ea0 <__func__.4+0xd0>
    83f42f8c:	078a                	slli	a5,a5,0x2
    83f42f8e:	97ba                	add	a5,a5,a4
    83f42f90:	439c                	lw	a5,0(a5)
    83f42f92:	97ba                	add	a5,a5,a4
    83f42f94:	8782                	jr	a5
				if (rtos_cmdq.param_ptr >= MAX_JPEG_NUM) {
    83f42f96:	45b2                	lw	a1,12(sp)
    83f42f98:	47bd                	li	a5,15
    83f42f9a:	10b7ed63          	bltu	a5,a1,83f430b4 <prvCmdQuRunTask+0x1e2>
				rtos_cmdq.param_ptr = 0x0;
    83f42f9e:	c602                	sw	zero,12(sp)
				drv_spin_lock_irqsave(&mailbox_lock, flags);
    83f42fa0:	00010517          	auipc	a0,0x10
    83f42fa4:	21850513          	addi	a0,a0,536 # 83f531b8 <mailbox_lock>
				rtos_cmdqu_t = (cmdqu_t *) mailbox_context;
    83f42fa8:	0009bd03          	ld	s10,0(s3)
				drv_spin_lock_irqsave(&mailbox_lock, flags);
    83f42fac:	477090ef          	jal	ra,83f4cc22 <_hw_raw_spin_lock_irqsave>
				if (flags == MAILBOX_LOCK_FAILED) {
    83f42fb0:	57fd                	li	a5,-1
				drv_spin_lock_irqsave(&mailbox_lock, flags);
    83f42fb2:	85aa                	mv	a1,a0
				for (valid = 0; valid < MAILBOX_MAX_NUM; valid++) {
    83f42fb4:	4701                	li	a4,0
				if (flags == MAILBOX_LOCK_FAILED) {
    83f42fb6:	06f50b63          	beq	a0,a5,83f4302c <prvCmdQuRunTask+0x15a>
					if (rtos_cmdqu_t->resv.valid.linux_valid == 0 && rtos_cmdqu_t->resv.valid.rtos_valid == 0) {
    83f42fba:	000d3783          	ld	a5,0(s10)
    83f42fbe:	8fe1                	and	a5,a5,s0
    83f42fc0:	10078263          	beqz	a5,83f430c4 <prvCmdQuRunTask+0x1f2>
				for (valid = 0; valid < MAILBOX_MAX_NUM; valid++) {
    83f42fc4:	2705                	addiw	a4,a4,1
						// trigger mailbox valid to rtos
						mbox_reg->cpu_mbox_en[send_to_cpu].mbox_info |= (1 << valid);
						mbox_reg->mbox_set.mbox_set = (1 << valid);
						break;
					}
					rtos_cmdqu_t++;
    83f42fc6:	0d21                	addi	s10,s10,8
				for (valid = 0; valid < MAILBOX_MAX_NUM; valid++) {
    83f42fc8:	fe9719e3          	bne	a4,s1,83f42fba <prvCmdQuRunTask+0xe8>
				}
				drv_spin_unlock_irqrestore(&mailbox_lock, flags);
    83f42fcc:	00010517          	auipc	a0,0x10
    83f42fd0:	1ec50513          	addi	a0,a0,492 # 83f531b8 <mailbox_lock>
    83f42fd4:	4b5090ef          	jal	ra,83f4cc88 <_hw_raw_spin_unlock_irqrestore>
				if (valid >= MAILBOX_MAX_NUM) {
				    printf("No valid mailbox is available\n");
    83f42fd8:	0000e517          	auipc	a0,0xe
    83f42fdc:	ea850513          	addi	a0,a0,-344 # 83f50e80 <__func__.4+0xb0>
    83f42fe0:	7b5080ef          	jal	ra,83f4bf94 <printf>
				    return -1;
				}
				break;
		}
	}
}
    83f42fe4:	70a6                	ld	ra,104(sp)
    83f42fe6:	7406                	ld	s0,96(sp)
    83f42fe8:	64e6                	ld	s1,88(sp)
    83f42fea:	6946                	ld	s2,80(sp)
    83f42fec:	69a6                	ld	s3,72(sp)
    83f42fee:	6a06                	ld	s4,64(sp)
    83f42ff0:	7ae2                	ld	s5,56(sp)
    83f42ff2:	7b42                	ld	s6,48(sp)
    83f42ff4:	7ba2                	ld	s7,40(sp)
    83f42ff6:	7c02                	ld	s8,32(sp)
    83f42ff8:	6ce2                	ld	s9,24(sp)
    83f42ffa:	6d42                	ld	s10,16(sp)
    83f42ffc:	6165                	addi	sp,sp,112
    83f42ffe:	8082                	ret
				dump_uart_disable();
    83f43000:	6de090ef          	jal	ra,83f4c6de <dump_uart_disable>
				break;
    83f43004:	b78d                	j	83f42f66 <prvCmdQuRunTask+0x94>
				dump_uart_enable();
    83f43006:	6c0090ef          	jal	ra,83f4c6c6 <dump_uart_enable>
				break;
    83f4300a:	bfb1                	j	83f42f66 <prvCmdQuRunTask+0x94>
				rtos_cmdq.param_ptr = (unsigned int) dump_uart_msg();
    83f4300c:	6ea090ef          	jal	ra,83f4c6f6 <dump_uart_msg>
    83f43010:	c62a                	sw	a0,12(sp)
				drv_spin_lock_irqsave(&mailbox_lock, flags);
    83f43012:	00010517          	auipc	a0,0x10
    83f43016:	1a650513          	addi	a0,a0,422 # 83f531b8 <mailbox_lock>
				rtos_cmdqu_t = (cmdqu_t *) mailbox_context;
    83f4301a:	0009bd03          	ld	s10,0(s3)
				drv_spin_lock_irqsave(&mailbox_lock, flags);
    83f4301e:	405090ef          	jal	ra,83f4cc22 <_hw_raw_spin_lock_irqsave>
				if (flags == MAILBOX_LOCK_FAILED) {
    83f43022:	57fd                	li	a5,-1
				drv_spin_lock_irqsave(&mailbox_lock, flags);
    83f43024:	85aa                	mv	a1,a0
				for (valid = 0; valid < MAILBOX_MAX_NUM; valid++) {
    83f43026:	4701                	li	a4,0
				if (flags == MAILBOX_LOCK_FAILED) {
    83f43028:	f8f519e3          	bne	a0,a5,83f42fba <prvCmdQuRunTask+0xe8>
					printf("[%s][%d] drv_spin_lock_irqsave failed! ip_id = %d , cmd_id = %d\n" , cmdq->ip_id , cmdq->cmd_id);
    83f4302c:	6622                	ld	a2,8(sp)
    83f4302e:	00814583          	lbu	a1,8(sp)
    83f43032:	0000e517          	auipc	a0,0xe
    83f43036:	e0650513          	addi	a0,a0,-506 # 83f50e38 <__func__.4+0x68>
    83f4303a:	8221                	srli	a2,a2,0x8
    83f4303c:	07f67613          	andi	a2,a2,127
    83f43040:	755080ef          	jal	ra,83f4bf94 <printf>
					break;
    83f43044:	b70d                	j	83f42f66 <prvCmdQuRunTask+0x94>
				if (rtos_cmdq.ip_id == IP_VI) {
    83f43046:	00814703          	lbu	a4,8(sp)
					stop_ip |= STOP_CMD_DONE_VI;
    83f4304a:	0001d817          	auipc	a6,0x1d
    83f4304e:	b7680813          	addi	a6,a6,-1162 # 83f5fbc0 <stop_ip.0>
				if (rtos_cmdq.ip_id == IP_VI) {
    83f43052:	468d                	li	a3,3
					stop_ip |= STOP_CMD_DONE_VI;
    83f43054:	00082783          	lw	a5,0(a6)
				if (rtos_cmdq.ip_id == IP_VI) {
    83f43058:	0ed70563          	beq	a4,a3,83f43142 <prvCmdQuRunTask+0x270>
				if (rtos_cmdq.ip_id == IP_VCODEC)
    83f4305c:	4685                	li	a3,1
    83f4305e:	00d71663          	bne	a4,a3,83f4306a <prvCmdQuRunTask+0x198>
					stop_ip |= STOP_CMD_DONE_VCODE;
    83f43062:	0047e793          	ori	a5,a5,4
    83f43066:	00f82023          	sw	a5,0(a6)
				if (stop_ip != STOP_CMD_DONE_ALL)
    83f4306a:	4719                	li	a4,6
    83f4306c:	eee79de3          	bne	a5,a4,83f42f66 <prvCmdQuRunTask+0x94>
					rtos_cmdq.ip_id = IP_SYSTEM;
    83f43070:	00f10423          	sb	a5,8(sp)
    83f43074:	b735                	j	83f42fa0 <prvCmdQuRunTask+0xce>
				rtos_cmdq.ip_id = IP_VI;
    83f43076:	00815783          	lhu	a5,8(sp)
    83f4307a:	7761                	lui	a4,0xffff8
				xQueueSend(gTaskCtx[E_QUEUE_VI].queHandle, &rtos_cmdq, 0U);
    83f4307c:	0d093503          	ld	a0,208(s2)
				rtos_cmdq.ip_id = IP_VI;
    83f43080:	8ff9                	and	a5,a5,a4
    83f43082:	303c0713          	addi	a4,s8,771
    83f43086:	8fd9                	or	a5,a5,a4
				xQueueSend(gTaskCtx[E_QUEUE_VI].queHandle, &rtos_cmdq, 0U);
    83f43088:	4681                	li	a3,0
    83f4308a:	4601                	li	a2,0
    83f4308c:	002c                	addi	a1,sp,8
				rtos_cmdq.ip_id = IP_VI;
    83f4308e:	00f11423          	sh	a5,8(sp)
				stop_ip = 0;
    83f43092:	0001d797          	auipc	a5,0x1d
    83f43096:	b207a723          	sw	zero,-1234(a5) # 83f5fbc0 <stop_ip.0>
				xQueueSend(gTaskCtx[E_QUEUE_VI].queHandle, &rtos_cmdq, 0U);
    83f4309a:	1ad0b0ef          	jal	ra,83f4ea46 <xQueueGenericSend>
				break;
    83f4309e:	b5e1                	j	83f42f66 <prvCmdQuRunTask+0x94>
				rtos_cmdq.cmd_id = SYS_CMD_INFO_RTOS_INIT_DONE;
    83f430a0:	00914783          	lbu	a5,9(sp)
				rtos_cmdq.param_ptr = &transfer_config;
    83f430a4:	c65e                	sw	s7,12(sp)
				rtos_cmdq.cmd_id = SYS_CMD_INFO_RTOS_INIT_DONE;
    83f430a6:	f807f793          	andi	a5,a5,-128
    83f430aa:	0527e793          	ori	a5,a5,82
    83f430ae:	00f104a3          	sb	a5,9(sp)
				goto send_label;
    83f430b2:	b5fd                	j	83f42fa0 <prvCmdQuRunTask+0xce>
					printf("SYS_CMD_INFO_DUMP_JPG idx = %d, set idx to 0\n", rtos_cmdq.param_ptr);
    83f430b4:	0000e517          	auipc	a0,0xe
    83f430b8:	d5450513          	addi	a0,a0,-684 # 83f50e08 <__func__.4+0x38>
    83f430bc:	6d9080ef          	jal	ra,83f4bf94 <printf>
				rtos_cmdq.param_ptr = 0x0;
    83f430c0:	c602                	sw	zero,12(sp)
			    goto send_label;
    83f430c2:	bdf9                	j	83f42fa0 <prvCmdQuRunTask+0xce>
						cmdq->resv.valid.rtos_valid = 1;
    83f430c4:	4785                	li	a5,1
    83f430c6:	00f105a3          	sb	a5,11(sp)
						*ptr = ((cmdq->ip_id << 0) | (cmdq->cmd_id << 8) | (cmdq->block << 15) |
    83f430ca:	66a2                	ld	a3,8(sp)
								(cmdq->resv.valid.linux_valid << 16) |
    83f430cc:	00a14603          	lbu	a2,10(sp)
						*ptr = ((cmdq->ip_id << 0) | (cmdq->cmd_id << 8) | (cmdq->block << 15) |
    83f430d0:	00814503          	lbu	a0,8(sp)
    83f430d4:	0086d793          	srli	a5,a3,0x8
    83f430d8:	07f7f793          	andi	a5,a5,127
								(cmdq->resv.valid.linux_valid << 16) |
    83f430dc:	0106161b          	slliw	a2,a2,0x10
						*ptr = ((cmdq->ip_id << 0) | (cmdq->cmd_id << 8) | (cmdq->block << 15) |
    83f430e0:	0087979b          	slliw	a5,a5,0x8
    83f430e4:	82bd                	srli	a3,a3,0xf
    83f430e6:	8fd1                	or	a5,a5,a2
    83f430e8:	8a85                	andi	a3,a3,1
    83f430ea:	8fc9                	or	a5,a5,a0
    83f430ec:	00f6969b          	slliw	a3,a3,0xf
    83f430f0:	8fd5                	or	a5,a5,a3
								(cmdq->resv.valid.linux_valid << 16) |
    83f430f2:	010006b7          	lui	a3,0x1000
    83f430f6:	8fd5                	or	a5,a5,a3
						*ptr = ((cmdq->ip_id << 0) | (cmdq->cmd_id << 8) | (cmdq->block << 15) |
    83f430f8:	00fd2023          	sw	a5,0(s10)
						rtos_cmdqu_t->param_ptr = cmdq->param_ptr;
    83f430fc:	46b2                	lw	a3,12(sp)
						mbox_reg->cpu_mbox_set[send_to_cpu].cpu_mbox_int_clr.mbox_int_clr = (1 << valid);
    83f430fe:	4785                	li	a5,1
    83f43100:	00e7973b          	sllw	a4,a5,a4
						rtos_cmdqu_t->param_ptr = cmdq->param_ptr;
    83f43104:	00dd2223          	sw	a3,4(s10)
						mbox_reg->cpu_mbox_set[send_to_cpu].cpu_mbox_int_clr.mbox_int_clr = (1 << valid);
    83f43108:	000b3683          	ld	a3,0(s6)
    83f4310c:	0ff77613          	andi	a2,a4,255
    83f43110:	002a1793          	slli	a5,s4,0x2
    83f43114:	01568533          	add	a0,a3,s5
    83f43118:	00c50023          	sb	a2,0(a0)
						mbox_reg->cpu_mbox_en[send_to_cpu].mbox_info |= (1 << valid);
    83f4311c:	97b6                	add	a5,a5,a3
    83f4311e:	0007c683          	lbu	a3,0(a5)
				drv_spin_unlock_irqrestore(&mailbox_lock, flags);
    83f43122:	00010517          	auipc	a0,0x10
    83f43126:	09650513          	addi	a0,a0,150 # 83f531b8 <mailbox_lock>
						mbox_reg->cpu_mbox_en[send_to_cpu].mbox_info |= (1 << valid);
    83f4312a:	8f55                	or	a4,a4,a3
    83f4312c:	0ff77713          	andi	a4,a4,255
    83f43130:	00e78023          	sb	a4,0(a5)
						mbox_reg->mbox_set.mbox_set = (1 << valid);
    83f43134:	000b3783          	ld	a5,0(s6)
    83f43138:	06c78023          	sb	a2,96(a5)
				drv_spin_unlock_irqrestore(&mailbox_lock, flags);
    83f4313c:	34d090ef          	jal	ra,83f4cc88 <_hw_raw_spin_unlock_irqrestore>
				if (valid >= MAILBOX_MAX_NUM) {
    83f43140:	b51d                	j	83f42f66 <prvCmdQuRunTask+0x94>
					rtos_cmdq.ip_id = IP_VCODEC;
    83f43142:	00815703          	lhu	a4,8(sp)
    83f43146:	76e1                	lui	a3,0xffff8
					xQueueSend(gTaskCtx[E_QUEUE_VCODEC].queHandle, &rtos_cmdq, 0U);
    83f43148:	08893503          	ld	a0,136(s2)
					rtos_cmdq.ip_id = IP_VCODEC;
    83f4314c:	8f75                	and	a4,a4,a3
					stop_ip |= STOP_CMD_DONE_VI;
    83f4314e:	0027e793          	ori	a5,a5,2
					rtos_cmdq.ip_id = IP_VCODEC;
    83f43152:	01976733          	or	a4,a4,s9
					xQueueSend(gTaskCtx[E_QUEUE_VCODEC].queHandle, &rtos_cmdq, 0U);
    83f43156:	4681                	li	a3,0
    83f43158:	4601                	li	a2,0
    83f4315a:	002c                	addi	a1,sp,8
					stop_ip |= STOP_CMD_DONE_VI;
    83f4315c:	00f82023          	sw	a5,0(a6)
					rtos_cmdq.ip_id = IP_VCODEC;
    83f43160:	00e11423          	sh	a4,8(sp)
					xQueueSend(gTaskCtx[E_QUEUE_VCODEC].queHandle, &rtos_cmdq, 0U);
    83f43164:	0e30b0ef          	jal	ra,83f4ea46 <xQueueGenericSend>
					break;
    83f43168:	bbfd                	j	83f42f66 <prvCmdQuRunTask+0x94>

0000000083f4316a <prvQueueISR>:

void prvQueueISR(void)
{
    83f4316a:	711d                	addi	sp,sp,-96
    83f4316c:	e862                	sd	s8,16(sp)
	unsigned char valid_val;
	int i;
	cmdqu_t *cmdq;
	BaseType_t YieldRequired = pdFALSE;

	set_val = mbox_reg->cpu_mbox_set[RECEIVE_CPU].cpu_mbox_int_int.mbox_int;
    83f4316e:	0001dc17          	auipc	s8,0x1d
    83f43172:	a4ac0c13          	addi	s8,s8,-1462 # 83f5fbb8 <mbox_reg>
    83f43176:	000c3783          	ld	a5,0(s8)
{
    83f4317a:	ec86                	sd	ra,88(sp)
    83f4317c:	e8a2                	sd	s0,80(sp)
    83f4317e:	e4a6                	sd	s1,72(sp)
    83f43180:	e0ca                	sd	s2,64(sp)
    83f43182:	fc4e                	sd	s3,56(sp)
    83f43184:	f852                	sd	s4,48(sp)
    83f43186:	f456                	sd	s5,40(sp)
    83f43188:	f05a                	sd	s6,32(sp)
    83f4318a:	ec5e                	sd	s7,24(sp)
	set_val = mbox_reg->cpu_mbox_set[RECEIVE_CPU].cpu_mbox_int_int.mbox_int;
    83f4318c:	0387c403          	lbu	s0,56(a5)
	BaseType_t YieldRequired = pdFALSE;
    83f43190:	e002                	sd	zero,0(sp)
	set_val = mbox_reg->cpu_mbox_set[RECEIVE_CPU].cpu_mbox_int_int.mbox_int;
    83f43192:	0ff47413          	andi	s0,s0,255
	/* Now, we do not implement info back feature */
	// done_val = mbox_done_reg->cpu_mbox_done[RECEIVE_CPU].cpu_mbox_int_int.mbox_int;

	if (set_val) {
    83f43196:	c455                	beqz	s0,83f43242 <prvQueueISR+0xd8>
		for(i = 0; i < MAILBOX_MAX_NUM; i++) {
			valid_val = set_val  & (1 << i);
    83f43198:	0184141b          	slliw	s0,s0,0x18
    83f4319c:	4184541b          	sraiw	s0,s0,0x18
    83f431a0:	4b81                	li	s7,0
    83f431a2:	4485                	li	s1,1

			if (valid_val) {
				cmdqu_t rtos_cmdq;
				cmdq = (cmdqu_t *)(mailbox_context) + i;
    83f431a4:	0001d997          	auipc	s3,0x1d
    83f431a8:	a0498993          	addi	s3,s3,-1532 # 83f5fba8 <mailbox_context>
				*((unsigned long *) &rtos_cmdq) = *((unsigned long *)cmdq);
				/* need to clear mailbox interrupt before clear mailbox buffer */
				*((unsigned long*) cmdq) = 0;

				/* mailbox buffer context is send from linux*/
				if (rtos_cmdq.resv.valid.linux_valid == 1) {
    83f431ac:	4905                	li	s2,1
						printf("unknown ip_id =%d cmd_id=%d\n", rtos_cmdq.ip_id, rtos_cmdq.cmd_id);
						break;
					}
					portYIELD_FROM_ISR(YieldRequired);
				} else
					printf("rtos cmdq is not valid %d, ip=%d , cmd=%d\n",
    83f431ae:	0000ea97          	auipc	s5,0xe
    83f431b2:	d42a8a93          	addi	s5,s5,-702 # 83f50ef0 <__func__.4+0x120>
    83f431b6:	0000ea17          	auipc	s4,0xe
    83f431ba:	d66a0a13          	addi	s4,s4,-666 # 83f50f1c <__func__.4+0x14c>
						xQueueSendFromISR(gTaskCtx[E_QUEUE_CAMERA].queHandle, &rtos_cmdq, &YieldRequired);
    83f431be:	00010b17          	auipc	s6,0x10
    83f431c2:	d0ab0b13          	addi	s6,s6,-758 # 83f52ec8 <gTaskCtx>
			valid_val = set_val  & (1 << i);
    83f431c6:	017497bb          	sllw	a5,s1,s7
    83f431ca:	8fe1                	and	a5,a5,s0
    83f431cc:	0ff7f693          	andi	a3,a5,255
    83f431d0:	0187979b          	slliw	a5,a5,0x18
    83f431d4:	4187d79b          	sraiw	a5,a5,0x18
			if (valid_val) {
    83f431d8:	c2ad                	beqz	a3,83f4323a <prvQueueISR+0xd0>
				mbox_reg->cpu_mbox_set[RECEIVE_CPU].cpu_mbox_int_clr.mbox_int_clr = valid_val;
    83f431da:	000c3603          	ld	a2,0(s8)
				cmdq = (cmdqu_t *)(mailbox_context) + i;
    83f431de:	0009b703          	ld	a4,0(s3)
				mbox_reg->cpu_mbox_en[RECEIVE_CPU].mbox_info &= ~valid_val;
    83f431e2:	fff7c793          	not	a5,a5
				mbox_reg->cpu_mbox_set[RECEIVE_CPU].cpu_mbox_int_clr.mbox_int_clr = valid_val;
    83f431e6:	02d60823          	sb	a3,48(a2)
				mbox_reg->cpu_mbox_en[RECEIVE_CPU].mbox_info &= ~valid_val;
    83f431ea:	00864683          	lbu	a3,8(a2)
				cmdq = (cmdqu_t *)(mailbox_context) + i;
    83f431ee:	003b9593          	slli	a1,s7,0x3
    83f431f2:	972e                	add	a4,a4,a1
				mbox_reg->cpu_mbox_en[RECEIVE_CPU].mbox_info &= ~valid_val;
    83f431f4:	0ff6f693          	andi	a3,a3,255
    83f431f8:	8ff5                	and	a5,a5,a3
    83f431fa:	00f60423          	sb	a5,8(a2)
				*((unsigned long *) &rtos_cmdq) = *((unsigned long *)cmdq);
    83f431fe:	631c                	ld	a5,0(a4)
    83f43200:	e43e                	sd	a5,8(sp)
				*((unsigned long*) cmdq) = 0;
    83f43202:	00073023          	sd	zero,0(a4) # ffffffffffff8000 <_end+0xffffffff7bff82c0>
				if (rtos_cmdq.resv.valid.linux_valid == 1) {
    83f43206:	00a14783          	lbu	a5,10(sp)
    83f4320a:	01279d63          	bne	a5,s2,83f43224 <prvQueueISR+0xba>
					switch (rtos_cmdq.ip_id) {
    83f4320e:	00814583          	lbu	a1,8(sp)
    83f43212:	479d                	li	a5,7
    83f43214:	0cb7e363          	bltu	a5,a1,83f432da <prvQueueISR+0x170>
    83f43218:	00259793          	slli	a5,a1,0x2
    83f4321c:	97d2                	add	a5,a5,s4
    83f4321e:	439c                	lw	a5,0(a5)
    83f43220:	97d2                	add	a5,a5,s4
    83f43222:	8782                	jr	a5
						rtos_cmdq.resv.valid.rtos_valid, rtos_cmdq.ip_id, rtos_cmdq.cmd_id);
    83f43224:	66a2                	ld	a3,8(sp)
					printf("rtos cmdq is not valid %d, ip=%d , cmd=%d\n",
    83f43226:	00814603          	lbu	a2,8(sp)
    83f4322a:	00b14583          	lbu	a1,11(sp)
						rtos_cmdq.resv.valid.rtos_valid, rtos_cmdq.ip_id, rtos_cmdq.cmd_id);
    83f4322e:	82a1                	srli	a3,a3,0x8
					printf("rtos cmdq is not valid %d, ip=%d , cmd=%d\n",
    83f43230:	07f6f693          	andi	a3,a3,127
    83f43234:	8556                	mv	a0,s5
    83f43236:	55f080ef          	jal	ra,83f4bf94 <printf>
		for(i = 0; i < MAILBOX_MAX_NUM; i++) {
    83f4323a:	0b85                	addi	s7,s7,1
    83f4323c:	47a1                	li	a5,8
    83f4323e:	f8fb94e3          	bne	s7,a5,83f431c6 <prvQueueISR+0x5c>
			}
		}
	}
}
    83f43242:	60e6                	ld	ra,88(sp)
    83f43244:	6446                	ld	s0,80(sp)
    83f43246:	64a6                	ld	s1,72(sp)
    83f43248:	6906                	ld	s2,64(sp)
    83f4324a:	79e2                	ld	s3,56(sp)
    83f4324c:	7a42                	ld	s4,48(sp)
    83f4324e:	7aa2                	ld	s5,40(sp)
    83f43250:	7b02                	ld	s6,32(sp)
    83f43252:	6be2                	ld	s7,24(sp)
    83f43254:	6c42                	ld	s8,16(sp)
    83f43256:	6125                	addi	sp,sp,96
    83f43258:	8082                	ret
						xQueueSendFromISR(gTaskCtx[E_QUEUE_CAMERA].queHandle, &rtos_cmdq, &YieldRequired);
    83f4325a:	118b3503          	ld	a0,280(s6)
    83f4325e:	4681                	li	a3,0
    83f43260:	860a                	mv	a2,sp
    83f43262:	002c                	addi	a1,sp,8
    83f43264:	1030b0ef          	jal	ra,83f4eb66 <xQueueGenericSendFromISR>
					portYIELD_FROM_ISR(YieldRequired);
    83f43268:	6782                	ld	a5,0(sp)
    83f4326a:	dbe1                	beqz	a5,83f4323a <prvQueueISR+0xd0>
    83f4326c:	2100c0ef          	jal	ra,83f4f47c <vTaskSwitchContext>
		for(i = 0; i < MAILBOX_MAX_NUM; i++) {
    83f43270:	0b85                	addi	s7,s7,1
    83f43272:	47a1                	li	a5,8
    83f43274:	f4fb99e3          	bne	s7,a5,83f431c6 <prvQueueISR+0x5c>
    83f43278:	b7e9                	j	83f43242 <prvQueueISR+0xd8>
						xQueueSendFromISR(gTaskCtx[E_QUEUE_ISP].queHandle, &rtos_cmdq, &YieldRequired);
    83f4327a:	040b3503          	ld	a0,64(s6)
    83f4327e:	4681                	li	a3,0
    83f43280:	860a                	mv	a2,sp
    83f43282:	002c                	addi	a1,sp,8
    83f43284:	0e30b0ef          	jal	ra,83f4eb66 <xQueueGenericSendFromISR>
						break;
    83f43288:	b7c5                	j	83f43268 <prvQueueISR+0xfe>
						xQueueSendFromISR(gTaskCtx[E_QUEUE_VCODEC].queHandle, &rtos_cmdq, &YieldRequired);
    83f4328a:	088b3503          	ld	a0,136(s6)
    83f4328e:	4681                	li	a3,0
    83f43290:	860a                	mv	a2,sp
    83f43292:	002c                	addi	a1,sp,8
    83f43294:	0d30b0ef          	jal	ra,83f4eb66 <xQueueGenericSendFromISR>
						break;
    83f43298:	bfc1                	j	83f43268 <prvQueueISR+0xfe>
						xQueueSendFromISR(gTaskCtx[E_QUEUE_VI].queHandle, &rtos_cmdq, &YieldRequired);
    83f4329a:	0d0b3503          	ld	a0,208(s6)
    83f4329e:	4681                	li	a3,0
    83f432a0:	860a                	mv	a2,sp
    83f432a2:	002c                	addi	a1,sp,8
    83f432a4:	0c30b0ef          	jal	ra,83f4eb66 <xQueueGenericSendFromISR>
						break;
    83f432a8:	b7c1                	j	83f43268 <prvQueueISR+0xfe>
						xQueueSendFromISR(gTaskCtx[E_QUEUE_RGN].queHandle, &rtos_cmdq, &YieldRequired);
    83f432aa:	160b3503          	ld	a0,352(s6)
    83f432ae:	4681                	li	a3,0
    83f432b0:	860a                	mv	a2,sp
    83f432b2:	002c                	addi	a1,sp,8
    83f432b4:	0b30b0ef          	jal	ra,83f4eb66 <xQueueGenericSendFromISR>
						break;
    83f432b8:	bf45                	j	83f43268 <prvQueueISR+0xfe>
						xQueueSendFromISR(gTaskCtx[E_QUEUE_AUDIO].queHandle, &rtos_cmdq, &YieldRequired);
    83f432ba:	1f0b3503          	ld	a0,496(s6)
    83f432be:	4681                	li	a3,0
    83f432c0:	860a                	mv	a2,sp
    83f432c2:	002c                	addi	a1,sp,8
    83f432c4:	0a30b0ef          	jal	ra,83f4eb66 <xQueueGenericSendFromISR>
						break;
    83f432c8:	b745                	j	83f43268 <prvQueueISR+0xfe>
						xQueueSendFromISR(gTaskCtx[E_QUEUE_CMDQU].queHandle, &rtos_cmdq, &YieldRequired);
    83f432ca:	1a8b3503          	ld	a0,424(s6)
    83f432ce:	4681                	li	a3,0
    83f432d0:	860a                	mv	a2,sp
    83f432d2:	002c                	addi	a1,sp,8
    83f432d4:	0930b0ef          	jal	ra,83f4eb66 <xQueueGenericSendFromISR>
						break;
    83f432d8:	bf41                	j	83f43268 <prvQueueISR+0xfe>
						printf("unknown ip_id =%d cmd_id=%d\n", rtos_cmdq.ip_id, rtos_cmdq.cmd_id);
    83f432da:	6622                	ld	a2,8(sp)
    83f432dc:	0000e517          	auipc	a0,0xe
    83f432e0:	bf450513          	addi	a0,a0,-1036 # 83f50ed0 <__func__.4+0x100>
    83f432e4:	8221                	srli	a2,a2,0x8
    83f432e6:	07f67613          	andi	a2,a2,127
    83f432ea:	4ab080ef          	jal	ra,83f4bf94 <printf>
						break;
    83f432ee:	bfad                	j	83f43268 <prvQueueISR+0xfe>

0000000083f432f0 <main_GetMODHandle>:
	if (handle_idx >= E_QUEUE_MAX)
    83f432f0:	4799                	li	a5,6
    83f432f2:	00a7ef63          	bltu	a5,a0,83f43310 <main_GetMODHandle+0x20>
	return gTaskCtx[handle_idx].queHandle;
    83f432f6:	1502                	slli	a0,a0,0x20
    83f432f8:	9101                	srli	a0,a0,0x20
    83f432fa:	00351793          	slli	a5,a0,0x3
    83f432fe:	953e                	add	a0,a0,a5
    83f43300:	050e                	slli	a0,a0,0x3
    83f43302:	00010797          	auipc	a5,0x10
    83f43306:	bc678793          	addi	a5,a5,-1082 # 83f52ec8 <gTaskCtx>
    83f4330a:	953e                	add	a0,a0,a5
    83f4330c:	6128                	ld	a0,64(a0)
    83f4330e:	8082                	ret
		return NULL;
    83f43310:	4501                	li	a0,0
}
    83f43312:	8082                	ret

0000000083f43314 <main_create_tasks>:
{
    83f43314:	1101                	addi	sp,sp,-32
    83f43316:	e822                	sd	s0,16(sp)
    83f43318:	e426                	sd	s1,8(sp)
    83f4331a:	ec06                	sd	ra,24(sp)
    83f4331c:	00010417          	auipc	s0,0x10
    83f43320:	bac40413          	addi	s0,s0,-1108 # 83f52ec8 <gTaskCtx>
    83f43324:	00010497          	auipc	s1,0x10
    83f43328:	d9c48493          	addi	s1,s1,-612 # 83f530c0 <nb_notch_coef.1>
		TASK_INIT(i);
    83f4332c:	03844503          	lbu	a0,56(s0)
    83f43330:	4601                	li	a2,0
    83f43332:	45a1                	li	a1,8
    83f43334:	6a60b0ef          	jal	ra,83f4e9da <xQueueGenericCreate>
    83f43338:	e028                	sd	a0,64(s0)
    83f4333a:	c919                	beqz	a0,83f43350 <main_create_tasks+0x3c>
    83f4333c:	7808                	ld	a0,48(s0)
    83f4333e:	85a2                	mv	a1,s0
    83f43340:	4781                	li	a5,0
    83f43342:	4681                	li	a3,0
    83f43344:	c511                	beqz	a0,83f43350 <main_create_tasks+0x3c>
    83f43346:	7418                	ld	a4,40(s0)
    83f43348:	02045603          	lhu	a2,32(s0)
    83f4334c:	56e0c0ef          	jal	ra,83f4f8ba <xTaskCreate>
	for (; i < ARRAY_SIZE(gTaskCtx); i++) {
    83f43350:	04840413          	addi	s0,s0,72
    83f43354:	fc941ce3          	bne	s0,s1,83f4332c <main_create_tasks+0x18>
}
    83f43358:	60e2                	ld	ra,24(sp)
    83f4335a:	6442                	ld	s0,16(sp)
    83f4335c:	64a2                	ld	s1,8(sp)
    83f4335e:	6105                	addi	sp,sp,32
    83f43360:	8082                	ret

0000000083f43362 <main_cvirtos>:
{
    83f43362:	1141                	addi	sp,sp,-16
	printf("create cvi task\n");
    83f43364:	0000e517          	auipc	a0,0xe
    83f43368:	bdc50513          	addi	a0,a0,-1060 # 83f50f40 <__func__.4+0x170>
{
    83f4336c:	e406                	sd	ra,8(sp)
	printf("create cvi task\n");
    83f4336e:	427080ef          	jal	ra,83f4bf94 <printf>
	request_irq(MBOX_INT_C906_2ND, prvQueueISR, 0, "mailbox", (void *)0);
    83f43372:	4701                	li	a4,0
    83f43374:	0000e697          	auipc	a3,0xe
    83f43378:	be468693          	addi	a3,a3,-1052 # 83f50f58 <__func__.4+0x188>
    83f4337c:	4601                	li	a2,0
    83f4337e:	00000597          	auipc	a1,0x0
    83f43382:	dec58593          	addi	a1,a1,-532 # 83f4316a <prvQueueISR>
    83f43386:	03d00513          	li	a0,61
    83f4338a:	12a090ef          	jal	ra,83f4c4b4 <request_irq>
	main_create_tasks();
    83f4338e:	f87ff0ef          	jal	ra,83f43314 <main_create_tasks>
	vTaskStartScheduler();
    83f43392:	5a40c0ef          	jal	ra,83f4f936 <vTaskStartScheduler>
    for (;;)
    83f43396:	a001                	j	83f43396 <main_cvirtos+0x34>

0000000083f43398 <prvRGNRunTask>:
#else
#define rgn_printf(...)
#endif

void prvRGNRunTask(void *pvParameters)
{
    83f43398:	7131                	addi	sp,sp,-192
	OSDC_Canvas_Attr_S canvas;
	OSDC_DRAW_OBJ_S *obj_vec = NULL;
	RGN_LINE_ATTR_S *line_attr = NULL;

	rgn_printf("%s run\n", __func__);
	xQueueRGN = main_GetMODHandle(E_QUEUE_RGN);
    83f4339a:	4511                	li	a0,4
{
    83f4339c:	fd06                	sd	ra,184(sp)
    83f4339e:	fcde                	sd	s7,120(sp)
    83f433a0:	f8e2                	sd	s8,112(sp)
    83f433a2:	f4e6                	sd	s9,104(sp)
    83f433a4:	f922                	sd	s0,176(sp)
    83f433a6:	f526                	sd	s1,168(sp)
    83f433a8:	f14a                	sd	s2,160(sp)
    83f433aa:	ed4e                	sd	s3,152(sp)
    83f433ac:	e952                	sd	s4,144(sp)
    83f433ae:	e556                	sd	s5,136(sp)
    83f433b0:	e15a                	sd	s6,128(sp)
    83f433b2:	f0ea                	sd	s10,96(sp)
    83f433b4:	ecee                	sd	s11,88(sp)
	xQueueRGN = main_GetMODHandle(E_QUEUE_RGN);
    83f433b6:	f3bff0ef          	jal	ra,83f432f0 <main_GetMODHandle>
    83f433ba:	87aa                	mv	a5,a0
    83f433bc:	0001dc97          	auipc	s9,0x1d
    83f433c0:	80cc8c93          	addi	s9,s9,-2036 # 83f5fbc8 <xQueueRGN>
	xQueueRGNCmdqu = main_GetMODHandle(E_QUEUE_CMDQU);
    83f433c4:	4515                	li	a0,5
	xQueueRGN = main_GetMODHandle(E_QUEUE_RGN);
    83f433c6:	00fcb023          	sd	a5,0(s9)
	xQueueRGNCmdqu = main_GetMODHandle(E_QUEUE_CMDQU);
    83f433ca:	f27ff0ef          	jal	ra,83f432f0 <main_GetMODHandle>
    83f433ce:	0001d797          	auipc	a5,0x1d
    83f433d2:	80278793          	addi	a5,a5,-2046 # 83f5fbd0 <xQueueRGNCmdqu>
		}
		vPortFree(line_attr);
		vPortFree(obj_vec);

WRONG_CMD_IP_ID:
		rtos_cmdq.ip_id  = -1;
    83f433d6:	6c21                	lui	s8,0x8
	xQueueRGNCmdqu = main_GetMODHandle(E_QUEUE_CMDQU);
    83f433d8:	e388                	sd	a0,0(a5)
		rtos_cmdq.ip_id  = -1;
    83f433da:	fffc0793          	addi	a5,s8,-1 # 7fff <_EL1_STACK_SIZE+0x77ff>
		if (rtos_cmdq.ip_id != IP_RGN) {
    83f433de:	4b91                	li	s7,4
		rtos_cmdq.ip_id  = -1;
    83f433e0:	ec3e                	sd	a5,24(sp)
    83f433e2:	a025                	j	83f4340a <prvRGNRunTask+0x72>
			xQueueSend(xQueueRGNCmdqu, &rtos_cmdq, 0U);
    83f433e4:	0001c797          	auipc	a5,0x1c
    83f433e8:	7ec78793          	addi	a5,a5,2028 # 83f5fbd0 <xQueueRGNCmdqu>
    83f433ec:	6388                	ld	a0,0(a5)
    83f433ee:	4681                	li	a3,0
    83f433f0:	4601                	li	a2,0
    83f433f2:	182c                	addi	a1,sp,56
    83f433f4:	6520b0ef          	jal	ra,83f4ea46 <xQueueGenericSend>
		rtos_cmdq.ip_id  = -1;
    83f433f8:	03815783          	lhu	a5,56(sp)
    83f433fc:	7761                	lui	a4,0xffff8
		rtos_cmdq.cmd_id = -1;
		rtos_cmdq.param_ptr = 0;
    83f433fe:	de02                	sw	zero,60(sp)
		rtos_cmdq.ip_id  = -1;
    83f43400:	8ff9                	and	a5,a5,a4
    83f43402:	6762                	ld	a4,24(sp)
    83f43404:	8fd9                	or	a5,a5,a4
    83f43406:	02f11c23          	sh	a5,56(sp)
		xQueueReceive(xQueueRGN, &rtos_cmdq, portMAX_DELAY);
    83f4340a:	000cb503          	ld	a0,0(s9)
    83f4340e:	567d                	li	a2,-1
    83f43410:	182c                	addi	a1,sp,56
    83f43412:	0350b0ef          	jal	ra,83f4ec46 <xQueueReceive>
		if (rtos_cmdq.ip_id != IP_RGN) {
    83f43416:	03814783          	lbu	a5,56(sp)
    83f4341a:	fd7795e3          	bne	a5,s7,83f433e4 <prvRGNRunTask+0x4c>
		canvas_cmpr_attr = (RGN_CANVAS_CMPR_ATTR_S *)rtos_cmdq.param_ptr;
    83f4341e:	03c16a83          	lwu	s5,60(sp)
		canvas.width = canvas_cmpr_attr->u32Width;
    83f43422:	000aa703          	lw	a4,0(s5)
		obj_num = canvas_cmpr_attr->u32ObjNum;
    83f43426:	014aa683          	lw	a3,20(s5)
		canvas.height = canvas_cmpr_attr->u32Height;
    83f4342a:	004aa783          	lw	a5,4(s5)
		canvas.width = canvas_cmpr_attr->u32Width;
    83f4342e:	c0ba                	sw	a4,64(sp)
		obj_num = canvas_cmpr_attr->u32ObjNum;
    83f43430:	f036                	sd	a3,32(sp)
		canvas.height = canvas_cmpr_attr->u32Height;
    83f43432:	c2be                	sw	a5,68(sp)
		obj_num = canvas_cmpr_attr->u32ObjNum;
    83f43434:	0ff6fb13          	andi	s6,a3,255
		obj_vec = (OSDC_DRAW_OBJ_S *)pvPortMalloc((obj_num ? obj_num : 1) * sizeof(OSDC_DRAW_OBJ_S));
    83f43438:	020b0563          	beqz	s6,83f43462 <prvRGNRunTask+0xca>
    83f4343c:	006b1513          	slli	a0,s6,0x6
    83f43440:	1440b0ef          	jal	ra,83f4e584 <pvPortMalloc>
    83f43444:	8a2a                	mv	s4,a0
		if (obj_vec == NULL) {
    83f43446:	d94d                	beqz	a0,83f433f8 <prvRGNRunTask+0x60>
		line_attr = (RGN_LINE_ATTR_S *)pvPortMalloc((obj_num ? obj_num : 1) * sizeof(RGN_LINE_ATTR_S));
    83f43448:	001b1513          	slli	a0,s6,0x1
    83f4344c:	955a                	add	a0,a0,s6
    83f4344e:	050e                	slli	a0,a0,0x3
    83f43450:	1340b0ef          	jal	ra,83f4e584 <pvPortMalloc>
    83f43454:	842a                	mv	s0,a0
		if (line_attr == NULL) {
    83f43456:	22051b63          	bnez	a0,83f4368c <prvRGNRunTask+0x2f4>
		vPortFree(obj_vec);
    83f4345a:	8552                	mv	a0,s4
    83f4345c:	28e0b0ef          	jal	ra,83f4e6ea <vPortFree>
    83f43460:	bf61                	j	83f433f8 <prvRGNRunTask+0x60>
		obj_vec = (OSDC_DRAW_OBJ_S *)pvPortMalloc((obj_num ? obj_num : 1) * sizeof(OSDC_DRAW_OBJ_S));
    83f43462:	04000513          	li	a0,64
    83f43466:	11e0b0ef          	jal	ra,83f4e584 <pvPortMalloc>
    83f4346a:	8a2a                	mv	s4,a0
		if (obj_vec == NULL) {
    83f4346c:	d551                	beqz	a0,83f433f8 <prvRGNRunTask+0x60>
		line_attr = (RGN_LINE_ATTR_S *)pvPortMalloc((obj_num ? obj_num : 1) * sizeof(RGN_LINE_ATTR_S));
    83f4346e:	4561                	li	a0,24
    83f43470:	1140b0ef          	jal	ra,83f4e584 <pvPortMalloc>
    83f43474:	842a                	mv	s0,a0
		if (line_attr == NULL) {
    83f43476:	d175                	beqz	a0,83f4345a <prvRGNRunTask+0xc2>
		obj_attr = (RGN_CMPR_OBJ_ATTR_S *)((CVI_U8 *)rtos_cmdq.param_ptr + sizeof(RGN_CANVAS_CMPR_ATTR_S));
    83f43478:	03c16783          	lwu	a5,60(sp)
    83f4347c:	4481                	li	s1,0
    83f4347e:	07e1                	addi	a5,a5,24
    83f43480:	f43e                	sd	a5,40(sp)
			for (i = 0; i < line_num; ++i) {
    83f43482:	4995                	li	s3,5
					if (i < line_num - 1) {
    83f43484:	fff4891b          	addiw	s2,s1,-1
			for (i = 0; i < line_num; ++i) {
    83f43488:	01840d13          	addi	s10,s0,24
    83f4348c:	4d81                	li	s11,0
    83f4348e:	ec85                	bnez	s1,83f434c6 <prvRGNRunTask+0x12e>
    83f43490:	a059                	j	83f43516 <prvRGNRunTask+0x17e>
								= line_attr[i].stPointStart.s32Y;
    83f43492:	fecd2503          	lw	a0,-20(s10)
					if (i < line_num - 1) {
    83f43496:	000d859b          	sext.w	a1,s11
				if (delta_x < line_attr[i].u32Thick) {
    83f4349a:	000c071b          	sext.w	a4,s8
								= line_attr[i].stPointStart.s32Y;
    83f4349e:	fead2a23          	sw	a0,-12(s10)
					if (i < line_num - 1) {
    83f434a2:	1325d163          	bge	a1,s2,83f435c4 <prvRGNRunTask+0x22c>
						line_attr[i + 1].stPointStart.s32Y = line_attr[i].stPointEnd.s32Y
    83f434a6:	00ad2223          	sw	a0,4(s10)
				if (delta_x < line_attr[i].u32Thick) {
    83f434aa:	00c77863          	bgeu	a4,a2,83f434ba <prvRGNRunTask+0x122>
								= line_attr[i].stPointStart.s32X;
    83f434ae:	fe8d2703          	lw	a4,-24(s10)
    83f434b2:	feed2823          	sw	a4,-16(s10)
						line_attr[i + 1].stPointStart.s32X = line_attr[i].stPointEnd.s32X
    83f434b6:	00ed2023          	sw	a4,0(s10)
			for (i = 0; i < line_num; ++i) {
    83f434ba:	0d85                	addi	s11,s11,1
    83f434bc:	000d871b          	sext.w	a4,s11
    83f434c0:	0d61                	addi	s10,s10,24
    83f434c2:	04975a63          	bge	a4,s1,83f43516 <prvRGNRunTask+0x17e>
				delta_x = abs(line_attr[i].stPointStart.s32X - line_attr[i].stPointEnd.s32X);
    83f434c6:	ff0d2703          	lw	a4,-16(s10)
    83f434ca:	fe8d2503          	lw	a0,-24(s10)
    83f434ce:	9d19                	subw	a0,a0,a4
    83f434d0:	837ff0ef          	jal	ra,83f42d06 <abs>
				delta_y = abs(line_attr[i].stPointStart.s32Y - line_attr[i].stPointEnd.s32Y);
    83f434d4:	ff4d2603          	lw	a2,-12(s10)
    83f434d8:	fecd2583          	lw	a1,-20(s10)
				delta_x = abs(line_attr[i].stPointStart.s32X - line_attr[i].stPointEnd.s32X);
    83f434dc:	8c2a                	mv	s8,a0
				delta_y = abs(line_attr[i].stPointStart.s32Y - line_attr[i].stPointEnd.s32Y);
    83f434de:	40c5853b          	subw	a0,a1,a2
    83f434e2:	825ff0ef          	jal	ra,83f42d06 <abs>
				if (delta_y < line_attr[i].u32Thick) {
    83f434e6:	ff8d2603          	lw	a2,-8(s10)
    83f434ea:	2501                	sext.w	a0,a0
    83f434ec:	fac563e3          	bltu	a0,a2,83f43492 <prvRGNRunTask+0xfa>
				if (delta_x < line_attr[i].u32Thick) {
    83f434f0:	000c071b          	sext.w	a4,s8
    83f434f4:	fcc773e3          	bgeu	a4,a2,83f434ba <prvRGNRunTask+0x122>
					if (i < line_num - 1) {
    83f434f8:	000d871b          	sext.w	a4,s11
    83f434fc:	fb2749e3          	blt	a4,s2,83f434ae <prvRGNRunTask+0x116>
								= line_attr[i].stPointStart.s32X;
    83f43500:	fe8d2703          	lw	a4,-24(s10)
			for (i = 0; i < line_num; ++i) {
    83f43504:	0d85                	addi	s11,s11,1
    83f43506:	0d61                	addi	s10,s10,24
								= line_attr[i].stPointStart.s32X;
    83f43508:	fced2c23          	sw	a4,-40(s10)
						line_attr[0].stPointStart.s32X = line_attr[i].stPointEnd.s32X
    83f4350c:	c018                	sw	a4,0(s0)
			for (i = 0; i < line_num; ++i) {
    83f4350e:	000d871b          	sext.w	a4,s11
    83f43512:	fa974ae3          	blt	a4,s1,83f434c6 <prvRGNRunTask+0x12e>
			delta_x = abs(line_attr[0].stPointStart.s32X - line_attr[0].stPointEnd.s32X);
    83f43516:	441c                	lw	a5,8(s0)
    83f43518:	4008                	lw	a0,0(s0)
    83f4351a:	9d1d                	subw	a0,a0,a5
    83f4351c:	feaff0ef          	jal	ra,83f42d06 <abs>
			delta_y = abs(line_attr[0].stPointStart.s32Y - line_attr[0].stPointEnd.s32Y);
    83f43520:	4054                	lw	a3,4(s0)
    83f43522:	4458                	lw	a4,12(s0)
			delta_x = abs(line_attr[0].stPointStart.s32X - line_attr[0].stPointEnd.s32X);
    83f43524:	8d2a                	mv	s10,a0
			delta_y = abs(line_attr[0].stPointStart.s32Y - line_attr[0].stPointEnd.s32Y);
    83f43526:	40e6853b          	subw	a0,a3,a4
    83f4352a:	fdcff0ef          	jal	ra,83f42d06 <abs>
			if ((delta_x > line_attr[0].u32Thick || delta_x == 0) &&
    83f4352e:	4818                	lw	a4,16(s0)
    83f43530:	000d069b          	sext.w	a3,s10
    83f43534:	00d76463          	bltu	a4,a3,83f4353c <prvRGNRunTask+0x1a4>
    83f43538:	000d1763          	bnez	s10,83f43546 <prvRGNRunTask+0x1ae>
    83f4353c:	0005079b          	sext.w	a5,a0
    83f43540:	00f76663          	bltu	a4,a5,83f4354c <prvRGNRunTask+0x1b4>
					(delta_y > line_attr[0].u32Thick || delta_y == 0))
    83f43544:	c501                	beqz	a0,83f4354c <prvRGNRunTask+0x1b4>
		while (j++ < 5) {
    83f43546:	39fd                	addiw	s3,s3,-1
    83f43548:	f40990e3          	bnez	s3,83f43488 <prvRGNRunTask+0xf0>
		if (obj_num) {
    83f4354c:	0a0b1e63          	bnez	s6,83f43608 <prvRGNRunTask+0x270>
		switch (canvas_cmpr_attr->enPixelFormat) {
    83f43550:	00caa783          	lw	a5,12(s5)
    83f43554:	4719                	li	a4,6
    83f43556:	1ae78863          	beq	a5,a4,83f43706 <prvRGNRunTask+0x36e>
    83f4355a:	03000713          	li	a4,48
    83f4355e:	1ae78163          	beq	a5,a4,83f43700 <prvRGNRunTask+0x368>
    83f43562:	4715                	li	a4,5
    83f43564:	18e78c63          	beq	a5,a4,83f436fc <prvRGNRunTask+0x364>
			canvas.format = OSD_ARGB1555;
    83f43568:	4795                	li	a5,5
    83f4356a:	c4be                	sw	a5,72(sp)
		switch (rtos_cmdq.cmd_id) {
    83f4356c:	77e2                	ld	a5,56(sp)
    83f4356e:	83a1                	srli	a5,a5,0x8
    83f43570:	07f7f793          	andi	a5,a5,127
    83f43574:	cfb1                	beqz	a5,83f435d0 <prvRGNRunTask+0x238>
    83f43576:	4705                	li	a4,1
    83f43578:	04e79263          	bne	a5,a4,83f435bc <prvRGNRunTask+0x224>
			bs_size = CVI_OSDC_EstCmprCanvasSize(&canvas, &obj_vec[0], obj_num);
    83f4357c:	02014603          	lbu	a2,32(sp)
			pvAddr = (void *)rtos_cmdq.param_ptr;
    83f43580:	54f2                	lw	s1,60(sp)
			bs_size = CVI_OSDC_EstCmprCanvasSize(&canvas, &obj_vec[0], obj_num);
    83f43582:	85d2                	mv	a1,s4
    83f43584:	0088                	addi	a0,sp,64
    83f43586:	76e090ef          	jal	ra,83f4ccf4 <CVI_OSDC_EstCmprCanvasSize>
    83f4358a:	0005079b          	sext.w	a5,a0
			flush_dcache_range((uintptr_t)pvAddr, ALIGN(sizeof(RGN_CANVAS_CMPR_ATTR_S), 64));
    83f4358e:	02049513          	slli	a0,s1,0x20
			canvas_cmpr_attr->u32BsSize = bs_size;
    83f43592:	00faa823          	sw	a5,16(s5)
			flush_dcache_range((uintptr_t)pvAddr, ALIGN(sizeof(RGN_CANVAS_CMPR_ATTR_S), 64));
    83f43596:	04000593          	li	a1,64
    83f4359a:	9101                	srli	a0,a0,0x20
			bs_size = CVI_OSDC_EstCmprCanvasSize(&canvas, &obj_vec[0], obj_num);
    83f4359c:	da3e                	sw	a5,52(sp)
			flush_dcache_range((uintptr_t)pvAddr, ALIGN(sizeof(RGN_CANVAS_CMPR_ATTR_S), 64));
    83f4359e:	1bb080ef          	jal	ra,83f4bf58 <flush_dcache_range>
			xQueueSend(xQueueRGNCmdqu, &rtos_cmdq, 0U);
    83f435a2:	0001c797          	auipc	a5,0x1c
    83f435a6:	62e78793          	addi	a5,a5,1582 # 83f5fbd0 <xQueueRGNCmdqu>
    83f435aa:	6388                	ld	a0,0(a5)
    83f435ac:	4681                	li	a3,0
    83f435ae:	4601                	li	a2,0
    83f435b0:	182c                	addi	a1,sp,56
			rtos_cmdq.ip_id  = IP_RGN;
    83f435b2:	03710c23          	sb	s7,56(sp)
			rtos_cmdq.param_ptr = 0;
    83f435b6:	de02                	sw	zero,60(sp)
			xQueueSend(xQueueRGNCmdqu, &rtos_cmdq, 0U);
    83f435b8:	48e0b0ef          	jal	ra,83f4ea46 <xQueueGenericSend>
		vPortFree(line_attr);
    83f435bc:	8522                	mv	a0,s0
    83f435be:	12c0b0ef          	jal	ra,83f4e6ea <vPortFree>
    83f435c2:	bd61                	j	83f4345a <prvRGNRunTask+0xc2>
						line_attr[0].stPointStart.s32Y = line_attr[i].stPointEnd.s32Y
    83f435c4:	c048                	sw	a0,4(s0)
				if (delta_x < line_attr[i].u32Thick) {
    83f435c6:	ff8d2603          	lw	a2,-8(s10)
    83f435ca:	f2c76be3          	bltu	a4,a2,83f43500 <prvRGNRunTask+0x168>
    83f435ce:	b5f5                	j	83f434ba <prvRGNRunTask+0x122>
			pvAddr = (void *)rtos_cmdq.param_ptr;
    83f435d0:	03c16483          	lwu	s1,60(sp)
			status = CVI_OSDC_DrawCmprCanvas(&canvas, &obj_vec[0], obj_num ? obj_num : 0, pvAddr,
    83f435d4:	010aa703          	lw	a4,16(s5)
    83f435d8:	02014603          	lbu	a2,32(sp)
    83f435dc:	185c                	addi	a5,sp,52
    83f435de:	86a6                	mv	a3,s1
    83f435e0:	85d2                	mv	a1,s4
    83f435e2:	0088                	addi	a0,sp,64
    83f435e4:	714090ef          	jal	ra,83f4ccf8 <CVI_OSDC_DrawCmprCanvas>
			if (status != 1) {
    83f435e8:	4785                	li	a5,1
    83f435ea:	14f50063          	beq	a0,a5,83f4372a <prvRGNRunTask+0x392>
				*(unsigned int *)pvAddr = 0xffffffff;
    83f435ee:	57fd                	li	a5,-1
    83f435f0:	c09c                	sw	a5,0(s1)
				*((unsigned int *)pvAddr + 1) = bs_size;
    83f435f2:	57d2                	lw	a5,52(sp)
    83f435f4:	c0dc                	sw	a5,4(s1)
			flush_dcache_range((uintptr_t)pvAddr, ALIGN(bs_size, 64));
    83f435f6:	03f7879b          	addiw	a5,a5,63
    83f435fa:	fc07f593          	andi	a1,a5,-64
    83f435fe:	2581                	sext.w	a1,a1
    83f43600:	8526                	mv	a0,s1
    83f43602:	157080ef          	jal	ra,83f4bf58 <flush_dcache_range>
    83f43606:	bf71                	j	83f435a2 <prvRGNRunTask+0x20a>
			for (i = 0, j = 0; i < obj_num; ++i) {
    83f43608:	02014783          	lbu	a5,32(sp)
    83f4360c:	d3b1                	beqz	a5,83f43550 <prvRGNRunTask+0x1b8>
    83f4360e:	79a2                	ld	s3,40(sp)
    83f43610:	0796                	slli	a5,a5,0x5
    83f43612:	8b52                	mv	s6,s4
    83f43614:	00f984b3          	add	s1,s3,a5
    83f43618:	4901                	li	s2,0
