
/root/.jenkins/workspace/cv180x_v4.0.0_release_build/fsbl/build/cv1800c_wevb_0009a_spinor/bl2/bl2.elf:     file format elf64-littleriscv
/root/.jenkins/workspace/cv180x_v4.0.0_release_build/fsbl/build/cv1800c_wevb_0009a_spinor/bl2/bl2.elf
architecture: riscv:rv64, flags 0x00000112:
EXEC_P, HAS_SYMS, D_PAGED
start address 0x000000003bc00000

Program Header:
    LOAD off    0x0000000000001000 vaddr 0x000000003bc00000 paddr 0x000000003bc00000 align 2**12
         filesz 0x000000000000b700 memsz 0x0000000000013410 flags rwx
   STACK off    0x0000000000000000 vaddr 0x0000000000000000 paddr 0x0000000000000000 align 2**4
         filesz 0x0000000000000000 memsz 0x0000000000000000 flags rw-

Sections:
Idx Name          Size      VMA               LMA               File off  Algn
  0 ro            0000b434  000000003bc00000  000000003bc00000  00001000  2**3
                  CONTENTS, ALLOC, LOAD, READONLY, CODE
  1 .data         000002cc  000000003bc0b434  000000003bc0b434  0000c434  2**3
                  CONTENTS, ALLOC, LOAD, DATA
  2 stacks        00002000  000000003bc0b700  000000003bc0b700  0000c700  2**0
                  ALLOC
  3 .bss          00005c10  000000003bc0d800  000000003bc0d800  0000c700  2**9
                  ALLOC
  4 .debug_info   00068732  0000000000000000  0000000000000000  0000c700  2**0
                  CONTENTS, READONLY, DEBUGGING
  5 .debug_abbrev 00004de5  0000000000000000  0000000000000000  00074e32  2**0
                  CONTENTS, READONLY, DEBUGGING
  6 .debug_aranges 00001e80  0000000000000000  0000000000000000  00079c20  2**4
                  CONTENTS, READONLY, DEBUGGING
  7 .debug_macro  00009b13  0000000000000000  0000000000000000  0007baa0  2**0
                  CONTENTS, READONLY, DEBUGGING
  8 .debug_line   00075d63  0000000000000000  0000000000000000  000855b3  2**0
                  CONTENTS, READONLY, DEBUGGING
  9 .debug_str    0002394c  0000000000000000  0000000000000000  000fb316  2**0
                  CONTENTS, READONLY, DEBUGGING
 10 .comment      0000001d  0000000000000000  0000000000000000  0011ec62  2**0
                  CONTENTS, READONLY
 11 .debug_ranges 0002f790  0000000000000000  0000000000000000  0011ec7f  2**0
                  CONTENTS, READONLY, DEBUGGING
 12 .debug_frame  000047b8  0000000000000000  0000000000000000  0014e410  2**3
                  CONTENTS, READONLY, DEBUGGING
 13 .debug_loc    000c12a0  0000000000000000  0000000000000000  00152bc8  2**0
                  CONTENTS, READONLY, DEBUGGING
SYMBOL TABLE:
000000003bc00000 l    d  ro	0000000000000000 ro
000000003bc0b434 l    d  .data	0000000000000000 .data
000000003bc0b700 l    d  stacks	0000000000000000 stacks
000000003bc0d800 l    d  .bss	0000000000000000 .bss
0000000000000000 l    d  .debug_info	0000000000000000 .debug_info
0000000000000000 l    d  .debug_abbrev	0000000000000000 .debug_abbrev
0000000000000000 l    d  .debug_aranges	0000000000000000 .debug_aranges
0000000000000000 l    d  .debug_macro	0000000000000000 .debug_macro
0000000000000000 l    d  .debug_line	0000000000000000 .debug_line
0000000000000000 l    d  .debug_str	0000000000000000 .debug_str
0000000000000000 l    d  .comment	0000000000000000 .comment
0000000000000000 l    d  .debug_ranges	0000000000000000 .debug_ranges
0000000000000000 l    d  .debug_frame	0000000000000000 .debug_frame
0000000000000000 l    d  .debug_loc	0000000000000000 .debug_loc
0000000000000000 l    df *ABS*	0000000000000000 /root/.jenkins/workspace/cv180x_v4.0.0_release_build/fsbl/build/cv1800c_wevb_0009a_spinor/bl2/bl2_entrypoint.o
000000003bc00020 l       ro	0000000000000000 bl2_entrypoint_real
000000003bc00144 l       ro	0000000000000000 trap_vector
000000003bc0012c l       ro	0000000000000000 bss_clear
000000003bc00144 l       ro	0000000000000000 die
0000000000000000 l    df *ABS*	0000000000000000 cpu_helper.c
0000000000000000 l    df *ABS*	0000000000000000 cache.c
0000000000000000 l    df *ABS*	0000000000000000 delay_timer.c
0000000000000000 l    df *ABS*	0000000000000000 bl2_helper.c
000000003bc132c8 l     O .bss	0000000000000030 fw_dynamic_info
0000000000000000 l    df *ABS*	0000000000000000 uart_dw.c
0000000000000000 l    df *ABS*	0000000000000000 tf_printf.c
000000003bc002d6 l     F ro	0000000000000082 unsigned_num_print
0000000000000000 l    df *ABS*	0000000000000000 platform.c
0000000000000000 l    df *ABS*	0000000000000000 security.c
0000000000000000 l    df *ABS*	0000000000000000 misc.c
0000000000000000 l    df *ABS*	0000000000000000 mem.c
0000000000000000 l    df *ABS*	0000000000000000 putchar.c
0000000000000000 l    df *ABS*	0000000000000000 strcmp.c
0000000000000000 l    df *ABS*	0000000000000000 strlen.c
0000000000000000 l    df *ABS*	0000000000000000 platform_device.c
0000000000000000 l    df *ABS*	0000000000000000 bl2_main.c
000000003bc00c06 l     F ro	000000000000001a read_time_ms
000000003bc0d800 l     O .bss	0000000000001000 fip_param2
000000003bc0e800 l     O .bss	0000000000004000 sram_union_buf
0000000000000000 l    df *ABS*	0000000000000000 decompress.c
000000003bc014b6 l     F ro	0000000000000002 SzFree
000000003bc014b8 l     F ro	0000000000000042 SzAlloc
000000003bc132f8 l     O .bss	0000000000000008 comp_alloc_buf
000000003bc13300 l     O .bss	0000000000000008 comp_alloc_size
000000003bc0a788 l     O ro	0000000000000008 __func__.0
000000003bc0a790 l     O ro	0000000000000010 __func__.1
0000000000000000 l    df *ABS*	0000000000000000 cps_cvi.c
0000000000000000 l    df *ABS*	0000000000000000 usb_tty.c
000000003bc01748 l     F ro	0000000000000002 resume
000000003bc0174a l     F ro	0000000000000038 requestMemAlloc
000000003bc01782 l     F ro	0000000000000002 requestMemFree
000000003bc01784 l     F ro	000000000000001c acm_complete_set_line_coding
000000003bc017a0 l     F ro	0000000000000014 reset
000000003bc017b4 l     F ro	000000000000002e disconnect
000000003bc017e2 l     F ro	0000000000000026 unbind
000000003bc01808 l     F ro	0000000000000042 bind
000000003bc0184a l     F ro	0000000000000052 get_unicode_string
000000003bc0189c l     F ro	0000000000000234 bulkOutCmpl
000000003bc01b56 l     F ro	0000000000000050 bulkInCmpl
000000003bc01ad0 l     F ro	000000000000005c getDescAcm
000000003bc01b2c l     F ro	000000000000002a reqComplete
000000003bc01ba6 l     F ro	0000000000000442 setup
000000003bc01fe8 l     F ro	0000000000000002 suspend
000000003bc13404 l     O .bss	0000000000000001 ack_idx.6
000000003bc13310 l     O .bss	0000000000000008 bulkBuf
000000003bc13318 l     O .bss	0000000000000008 bulkInReq
000000003bc13320 l     O .bss	0000000000000008 bulkOutReq
000000003bc13328 l     O .bss	0000000000000008 cmdBuf
000000003bc13406 l     O .bss	0000000000000001 configBreak
000000003bc13407 l     O .bss	0000000000000001 configValue
000000003bc13330 l     O .bss	0000000000000008 ep0Buff
000000003bc13338 l     O .bss	0000000000000008 ep0Req
000000003bc13340 l     O .bss	0000000000000008 epIn
000000003bc13348 l     O .bss	0000000000000008 epOut
000000003bc13350 l     O .bss	0000000000000008 fip_buf
000000003bc133e0 l     O .bss	0000000000000004 fip_tx_offset
000000003bc133e4 l     O .bss	0000000000000004 fip_tx_size
000000003bc13408 l     O .bss	0000000000000001 flagEnterDL
000000003bc13409 l     O .bss	0000000000000001 flagReboot
000000003bc1340a l     O .bss	0000000000000001 is_serial_patched.3
000000003bc1340b l     O .bss	0000000000000001 mem_alloc_cnt
000000003bc13358 l     O .bss	000000000000001c productDesc
000000003bc13378 l     O .bss	0000000000000010 serial.2
000000003bc13388 l     O .bss	000000000000001c serialDesc
000000003bc133e8 l     O .bss	0000000000000004 transfer_size
000000003bc133ec l     O .bss	0000000000000004 ts
000000003bc133a8 l     O .bss	0000000000000010 vendorDesc
000000003bc0b448 l     O .data	0000000000000009 ConfDesc
000000003bc0b458 l     O .data	0000000000000008 acm_buf
000000003bc0b460 l     O .data	0000000000000005 acm_call_mgmt_descriptor
000000003bc0b468 l     O .data	0000000000000009 acm_control_interface_desc
000000003bc0b478 l     O .data	0000000000000009 acm_data_interface_desc
000000003bc0b488 l     O .data	0000000000000004 acm_descriptor
000000003bc0b490 l     O .data	0000000000000007 acm_fs_in_desc
000000003bc0b498 l     O .data	0000000000000007 acm_fs_notify_desc
000000003bc0b4a0 l     O .data	0000000000000007 acm_fs_out_desc
000000003bc0b4a8 l     O .data	0000000000000005 acm_header_desc
000000003bc0b4b0 l     O .data	0000000000000007 acm_hs_in_desc
000000003bc0b4b8 l     O .data	0000000000000007 acm_hs_notify_desc
000000003bc0b4c0 l     O .data	0000000000000007 acm_hs_out_desc
000000003bc0b4c8 l     O .data	0000000000000005 acm_union_desc
000000003bc0b4d0 l     O .data	0000000000000005 bosDesc
000000003bc0b4d8 l     O .data	0000000000000008 bulkBufAlloc
000000003bc0b4e0 l     O .data	0000000000000007 capabilityExtDesc
000000003bc0b4e8 l     O .data	0000000000000008 cb0_buf
000000003bc0b4f0 l     O .data	0000000000000008 cb1_buf
000000003bc0b4f8 l     O .data	0000000000000008 cb2_buf
000000003bc0b500 l     O .data	0000000000000008 cmdBufAlloc
000000003bc0b508 l     O .data	0000000000000050 descriptorsFs
000000003bc0b558 l     O .data	0000000000000050 descriptorsHs
000000003bc0b5a8 l     O .data	0000000000000012 devHsDesc
000000003bc0b5c0 l     O .data	0000000000000050 drv_obj
000000003bc0b610 l     O .data	0000000000000008 ep0BuffAlloc
000000003bc0b618 l     O .data	0000000000000058 g_driver
000000003bc0b670 l     O .data	0000000000000008 handler
000000003bc0b678 l     O .data	0000000000000004 languageDesc
000000003bc0b680 l     O .data	000000000000000a qualifierDesc
000000003bc0b690 l     O .data	0000000000000008 rsp_buf
000000003bc0b698 l     O .data	0000000000000008 setup_buf
000000003bc0ab80 l     O ro	0000000000000005 __func__.0
000000003bc0ab88 l     O ro	0000000000000007 __func__.1
000000003bc0ab90 l     O ro	000000000000000b __func__.4
000000003bc0aba0 l     O ro	0000000000000006 __func__.5
0000000000000000 l    df *ABS*	0000000000000000 dwc2_udc_otg.c
000000003bc0274e l     F ro	0000000000000016 dwc2_fifo_status
000000003bc02764 l     F ro	000000000000003a dwc2_free_request
000000003bc0279e l     F ro	0000000000000048 pullup
000000003bc027e6 l     F ro	0000000000000038 dwc2_alloc_request
000000003bc0281e l     F ro	00000000000000a0 dwc2_ep_enable
000000003bc028be l     F ro	0000000000000002 dwc2_fifo_flush
000000003bc02952 l     F ro	0000000000000054 dwc2_dequeue
000000003bc02ab4 l     F ro	000000000000003c wakeup
000000003bc02b36 l     F ro	0000000000000090 dwc2_hsotg_txfifo_flush.constprop.0
000000003bc02bc6 l     F ro	000000000000005e kill_all_requests.isra.0
000000003bc02c7a l     F ro	00000000000000da dwc2_hsotg_init_fifo.constprop.0
000000003bc02d54 l     F ro	00000000000001a6 _dwc2_ep_disable.isra.0
000000003bc02efa l     F ro	0000000000000020 dwc2_ep_disable
000000003bc0b6a0 l     O .data	0000000000000050 dwc2_ep_ops
000000003bc0ad90 l     O ro	0000000000000012 __func__.0
000000003bc0ada8 l     O ro	0000000000000011 __func__.1
000000003bc0adc0 l     O ro	0000000000000013 __func__.2
000000003bc0add8 l     O ro	0000000000000018 __func__.3
000000003bc0adf0 l     O ro	0000000000000015 __func__.4
000000003bc0ae08 l     O ro	0000000000000009 driver_name
000000003bc0ae18 l     O ro	0000000000000048 dwc2_udc_ops
000000003bc0ae60 l     O ro	000000000000000c ep0name
000000003bc0ae70 l     O ro	000000000000000b ep1name
000000003bc0ae80 l     O ro	000000000000000c ep2name
000000003bc0ae90 l     O ro	000000000000000a ep3name
0000000000000000 l    df *ABS*	0000000000000000 dwc2_udc_otg_xfer_dma.c
000000003bc034ac l     F ro	000000000000008e set_max_pktsize
000000003bc0353a l     F ro	000000000000005e dwc2_udc_ep_clear_stall
000000003bc03598 l     F ro	0000000000000062 dwc2_udc_ep_set_stall
000000003bc035fa l     F ro	0000000000000080 dwc2_ep0_complete_out
000000003bc0367a l     F ro	000000000000007e dwc2_udc_ep0_zlp
000000003bc036f8 l     F ro	0000000000000068 dwc2_udc_ep0_set_stall.isra.0
000000003bc03760 l     F ro	00000000000000aa setdma_rx.isra.0
000000003bc0380a l     F ro	00000000000000fc complete_rx
000000003bc03960 l     F ro	000000000000015c setdma_tx
000000003bc0b6f0 l     O .data	0000000000000004 ep0_fifo_size
000000003bc0b6f4 l     O .data	0000000000000004 ep_fifo_size
0000000000000000 l    df *ABS*	0000000000000000 cv_usb.c
0000000000000000 l    df *ABS*	0000000000000000 crc16.c
000000003bc0af18 l     O ro	0000000000000200 crc16_tab
0000000000000000 l    df *ABS*	0000000000000000 LzmaDec.c
000000003bc04738 l     F ro	0000000000000072 LzmaDec_WriteRem
000000003bc047aa l     F ro	000000000000138a LzmaDec_DecodeReal2
000000003bc05b34 l     F ro	00000000000004e8 LzmaDec_TryDummy
000000003bc062c8 l     F ro	0000000000000066 LzmaDec_AllocateProbs2.isra.0
0000000000000000 l    df *ABS*	0000000000000000 lz4_all.c
000000003bc06452 l     F ro	0000000000000024 LZ4F_readLE32
000000003bc06476 l     F ro	0000000000000276 LZ4_decompress_safe_withSmallPrefix
000000003bc066ec l     F ro	0000000000000110 LZ4F_updateDict
000000003bc0703a l     F ro	00000000000001a4 LZ4F_decodeHeader
000000003bc0b158 l     O ro	0000000000000020 blockSizes.0
000000003bc0b178 l     O ro	0000000000000020 dec64table
000000003bc0b198 l     O ro	0000000000000020 inc32table
0000000000000000 l    df *ABS*	0000000000000000 xxhash.c
000000003bc079ea l     F ro	000000000000002c XXH32_avalanche
000000003bc07a16 l     F ro	0000000000000016 XXH_read32
000000003bc07a2c l     F ro	000000000000033a XXH32_finalize.constprop.0
0000000000000000 l    df *ABS*	0000000000000000 ddr.c
0000000000000000 l    df *ABS*	0000000000000000 ddr_pkg_info.c
0000000000000000 l    df *ABS*	0000000000000000 ddr_sys_bring_up.c
0000000000000000 l    df *ABS*	0000000000000000 ddr_sys.c
0000000000000000 l    df *ABS*	0000000000000000 phy_pll_init.c
0000000000000000 l    df *ABS*	0000000000000000 cvx16_pinmux.c
0000000000000000 l    df *ABS*	0000000000000000 cvx16_dram_cap_check.c
0000000000000000 l    df *ABS*	0000000000000000 ddrc_init.c
0000000000000000 l    df *ABS*	0000000000000000 phy_init.c
0000000000000000 l    df *ABS*	0000000000000000 
000000003bc083f6 g     F ro	000000000000000a get_ddr_vendor
000000003bc001b4 g     F ro	000000000000000a mdelay
000000003bc08400 g     F ro	0000000000000050 axi_mon_start_all
000000003bc0215c g     F ro	0000000000000006 AcmIsr
000000003bc13400 g     O .bss	0000000000000004 tar_freq
000000003bc0b440 g     O .data	0000000000000008 time_records
0000000004400100 g       *ABS*	0000000000000000 p_rom_api_cryptodma_aes_decrypt
000000003bc133f8 g     O .bss	0000000000000004 freq_in
000000003bc00d30 g     F ro	00000000000000ae load_ddr_param
000000003bc0a010 g     O ro	0000000000000010 version_string
0000000004400080 g       *ABS*	0000000000000000 p_rom_api_flash_init
000000003bc00994 g     F ro	0000000000000004 dec_verify_image
000000003bc03c9e g     F ro	00000000000000b2 dwc2_udc_ep_activate
000000003bc00aec g     F ro	0000000000000052 putchar_l
000000003bc01610 g     F ro	0000000000000002 LZ4_free
000000003bc045d6 g     F ro	0000000000000018 dwc2_ep0_kick
0000000004400020 g       *ABS*	0000000000000000 p_rom_api_get_boot_src
000000003bc03906 g     F ro	0000000000000016 dwc2_udc_pre_setup
000000003bc00292 g     F ro	0000000000000002 jump_to_loader_2nd
000000003bc0021a g     F ro	0000000000000078 jump_to_monitor
000000003bc13280 g     O .bss	0000000000000010 rsp_bufArr
000000003bc133d8 g     O .bss	0000000000000008 reg_step
000000003bc133b8 g     O .bss	0000000000000008 reg
000000003bc03b4c g     F ro	0000000000000048 dwc2_set_address
000000003bc00acc g     F ro	0000000000000020 memmove
000000003bc08674 g     F ro	000000000000004e cvx16_bist_wr_prbs_init
000000003bc12880 g     O .bss	0000000000000200 bulkBufAllocArr
000000003bc067fc g     F ro	000000000000026e LZ4_decompress_safe
000000003bc13405 g     O .bss	0000000000000001 acm_configValue
000000003bc08c5a g     F ro	0000000000000044 cvx16_ddr_phy_power_on_seq1
000000003bc06030 g     F ro	000000000000027c LzmaDec_DecodeToDic
000000003bc08722 g     F ro	0000000000000046 cvx16_bist_rdglvl_init
000000003bc09ff0 g     O ro	000000000000001a build_message
000000003bc0921e g     F ro	0000000000000182 cvx16_wdqlvl_req
000000003bc0b440 g       .data	0000000000000000 __DATA_START__
000000003bc004f2 g     F ro	00000000000000c8 __system_reset
000000003bc00834 g     F ro	0000000000000044 switch_rtc_mode_2nd_stage
000000003bc01338 g     F ro	00000000000000e6 load_rest
000000003bc04706 g     F ro	0000000000000032 crc16_ccitt
000000003bc08d72 g     F ro	0000000000000028 cvx16_set_dfi_init_complete
000000003bc08d20 g     F ro	0000000000000038 cvx16_wait_for_dfi_init_complete
000000003bc03b00 g     F ro	000000000000004c dwc2_write_fifo_ep0
000000003bc12b00 g     O .bss	0000000000000080 cb1_bufArr
000000003bc08e4a g     F ro	0000000000000002 cvx16_wrlvl_req
000000003bc02af0 g     F ro	0000000000000046 dwc2_hsotg_wait_bit_set
000000003bc090ae g     F ro	0000000000000170 cvx16_rdlvl_req
000000003bc00a6c g     F ro	0000000000000060 memcpy
000000003bc08852 g     F ro	00000000000000b0 cvx16_bist_wdqlvl_init
000000003bc028c2 g     F ro	000000000000000a dwc2_get_ep0_name
000000003bc02a90 g     F ro	0000000000000024 dwc2_hsotg_clear_bit
000000003bc03bbc g     F ro	0000000000000040 dwc2_ep0_write
000000003bc028c0 g     F ro	0000000000000002 dwc2_log_write
000000003bc02a6e g     F ro	0000000000000022 dwc2_hsotg_set_bit
000000003bc132c0 g     O .bss	0000000000000008 setup_bufArr
000000003bc099c8 g     F ro	000000000000002e ctrl_init_low_patch
000000003bc0601c g     F ro	0000000000000014 LzmaDec_Init
000000003bc0100a g     F ro	0000000000000126 load_monitor
000000003bc1340f g     O .bss	0000000000000001 pkg
000000003bc0d700 g       stacks	0000000000000000 __STACKS_END__
000000003bc08b4c g     F ro	0000000000000016 cvx16_clk_div40
000000003bc005ba g     F ro	0000000000000032 panic_handler
000000003bc029a6 g     F ro	000000000000002e dwc2_nuke
000000003bc001e2 g     F ro	000000000000002a get_random_from_timer
000000003bc0979a g     F ro	0000000000000002 cvx16_dram_cap_check
000000003bc08962 g     F ro	000000000000006a cvx16_bist_start_check
000000003bc133fc g     O .bss	0000000000000004 mod_freq
000000003bc00b6c g     F ro	000000000000007c gpio_in_value
00000000044000e0 g       *ABS*	0000000000000000 p_rom_api_verify_rsa
000000003bc093a0 g     F ro	000000000000001a cvx16_en_rec_vol_mode
000000003bc0020c g     F ro	000000000000000e read_count_tick
000000003bc08f78 g     F ro	0000000000000070 cvx16_clk_gating_enable
000000003bc016c0 g     F ro	000000000000007e decompress
000000003bc086c2 g     F ro	0000000000000060 cvx16_bist_wr_sram_init
0000000000005c10 g       *ABS*	0000000000000000 __BSS_SIZE__
000000003bc001be g     F ro	0000000000000024 get_timer
000000003bc08ce6 g     F ro	000000000000003a cvx16_ddr_phy_power_on_seq3
000000003bc031a8 g     F ro	0000000000000156 usb_gadget_register_driver
000000003bc002a4 g     F ro	000000000000001e console_putc
000000003bc133f0 g     O .bss	0000000000000004 rddata
000000003bc08b62 g     F ro	00000000000000f8 cvx16_chg_pll_freq
000000003bc00294 g     F ro	0000000000000010 _uart_putc
000000003bc00156 g     F ro	0000000000000024 flush_dcache_range
000000003bc12a80 g     O .bss	0000000000000080 cb0_bufArr
000000003bc0068e g     F ro	000000000000018e sys_pll_nd
000000003bc00832 g     F ro	0000000000000002 switch_rtc_mode_1st_stage
000000003bc00878 g     F ro	00000000000000bc set_rtc_en_registers
000000003bc00c60 g     F ro	00000000000000d0 load_param2
000000003bc0720e g     F ro	00000000000007dc LZ4F_decompress
000000003bc09460 g     F ro	000000000000033a cvx16_pinmux
000000003bc08a72 g     F ro	0000000000000068 cvx16_dll_cal
000000003bc02162 g     F ro	0000000000000138 acm_app_init
000000003bc022d6 g     F ro	0000000000000478 AcmApp
000000003bc08f2e g     F ro	000000000000004a cvx16_clk_gating_disable
000000003bc071de g     F ro	0000000000000030 LZ4F_createDecompressionContext
000000003bc0173e g     F ro	0000000000000006 DWC2_UncachedRead32
000000003bc022a6 g     F ro	0000000000000030 get_usb_polling_timeout_value
000000003bc03b94 g     F ro	0000000000000028 dwc2_ep0_read
000000003bc12e00 g     O .bss	0000000000000080 ep0BuffAllocArr
000000003bc03460 g     F ro	000000000000004c usb_gadget_handle_interrupts
000000003bc13410 g       .bss	0000000000000000 __BL2_END__
000000003bc08c9e g     F ro	0000000000000048 cvx16_ddr_phy_power_on_seq2
000000003bc08d9a g     F ro	000000000000002c cvx16_INT_ISR_08
000000003bc06cd4 g     F ro	0000000000000316 LZ4_decompress_safe_forceExtDict
000000003bc01fea g     F ro	00000000000000a2 convert_buf_addr
000000003bc06378 g     F ro	0000000000000030 LzmaDec_AllocateProbs
000000003bc08e92 g     F ro	000000000000009c cvx16_pll_init
000000003bc0141e g     F ro	0000000000000098 bl2_main
000000003bc0b700 g       .data	0000000000000000 __DATA_END__
000000003bc062ac g     F ro	000000000000001c LzmaDec_FreeProbs
000000003bc014fa g     F ro	00000000000000e8 decompress_lzma
000000003bc0017a g     F ro	0000000000000010 trig_simulation_timer
000000003bc08902 g     F ro	0000000000000060 cvx16_bist_wdmlvl_init
000000003bc0018a g     F ro	000000000000002a udelay
000000003bc08d58 g     F ro	000000000000001a cvx16_polling_dfi_init_start
000000003bc02912 g     F ro	0000000000000040 dwc2_done
000000003bc08768 g     F ro	00000000000000ea cvx16_bist_rdlvl_init
000000003bc1340e g     O .bss	0000000000000001 ddr_vendor
00000000044000a0 g       *ABS*	0000000000000000 p_rom_api_image_crc
000000003bc00c20 g     F ro	0000000000000040 load_image_by_usb
000000003bc00000 g       ro	0000000000000000 bl2_entrypoint
000000003bc01130 g     F ro	0000000000000208 load_loader_2nd
000000003bc02c24 g     F ro	0000000000000056 dwc2_disconnect
000000003bc03310 g     F ro	0000000000000150 dwc2_udc_probe
000000003bc00934 g     F ro	0000000000000060 init_comm_info
000000003bc133f4 g     O .bss	0000000000000004 dev_freq
000000003bc045ee g     F ro	00000000000000d8 dwc2_queue
000000003bc00680 g     F ro	000000000000000e sys_switch_all_to_pll
000000003bc13410 g       .bss	0000000000000000 __BSS_END__
000000003bc081c8 g     F ro	000000000000022e read_ddr_pkg_info
000000003bc12800 g     O .bss	0000000000000080 acm_bufArr
0000000004400040 g       *ABS*	0000000000000000 p_rom_api_set_boot_src
000000003bc0632e g     F ro	000000000000004a LzmaProps_Decode
000000003bc08e4c g     F ro	0000000000000020 cvx16_setting_check
000000003bc00ea4 g     F ro	0000000000000166 load_blcp_2nd
000000003bc133d0 g     O .bss	0000000000000008 reg_span
000000003bc08ada g     F ro	000000000000005c cvx16_clk_normal
000000003bc0229a g     F ro	000000000000000c usb_vbus_det
000000003bc00a12 g     F ro	000000000000005a memset
000000003bc03c3c g     F ro	0000000000000062 dwc2_udc_set_halt
000000003bc07f82 g     F ro	00000000000001d2 XXH32_update
000000003bc0a170 g     O ro	0000000000000025 hex2ascii_data
000000003bc099f6 g     F ro	000000000000021c ctrl_init_update_by_dram_size
000000003bc03d50 g     F ro	0000000000000346 dwc2_handle_ep0
000000003bc00b3e g     F ro	000000000000001c strcmp
000000003bc07f2c g     F ro	0000000000000056 XXH32_reset
000000003bc07d66 g     F ro	00000000000001c6 XXH32
000000003bc089cc g     F ro	00000000000000a6 cvx16_rdvld_train
000000003bc0979c g     F ro	00000000000001fe ddrc_init
000000003bc06a6a g     F ro	000000000000026a LZ4_decompress_safe_withPrefix64k
000000003bc00358 g     F ro	000000000000019a tf_printf
000000003bc029d4 g     F ro	000000000000009a usb_gadget_unregister_driver
000000003bc015e8 g     F ro	0000000000000028 LZ4_calloc
000000003bc002c2 g     F ro	0000000000000014 console_flush
000000003bc0208c g     F ro	00000000000000d0 print_buf_addr
000000003bc0b434 g       ro	0000000000000000 __RO_END__
000000003bc12b80 g     O .bss	0000000000000080 cb2_bufArr
0000000004400060 g       *ABS*	0000000000000000 p_rom_api_load_image
000000003bc07010 g     F ro	000000000000000c LZ4F_isError
000000003bc0d800 g       .bss	0000000000000000 __BSS_START__
000000003bc03bfc g     F ro	0000000000000040 dwc2_udc_set_nak
000000003bc00000 g       ro	0000000000000000 __RO_START__
000000003bc08fe8 g     F ro	00000000000000c6 cvx16_rdglvl_req
000000003bc032fe g     F ro	0000000000000012 dwc2_phy_to_log_ep
000000003bc00998 g     F ro	000000000000007a ntostr
000000003bc046c6 g     F ro	0000000000000040 usb_polling
000000003bc08dc6 g     F ro	000000000000001c cvx16_polling_synp_normal_mode
000000003bc06fea g     F ro	0000000000000026 LZ4_decompress_safe_usingDict
000000003bc015e2 g     F ro	0000000000000006 LZ4_malloc
000000003bc093ba g     F ro	0000000000000022 ctrl_init_detect_dram_size
00000000044000c0 g       *ABS*	0000000000000000 p_rom_api_get_number_of_retries
000000003bc0014c g     F ro	000000000000000a sync_cache
000000003bc00636 g     F ro	000000000000004a setup_dl_flag
000000003bc005ec g     F ro	000000000000004a reset_c906l
000000003bc133c8 g     O .bss	0000000000000008 reg_set
000000003bc063a8 g     F ro	00000000000000aa LzmaDecode
000000003bc00be8 g     F ro	000000000000001e usb_id_det
000000003bc0b700 g       stacks	0000000000000000 __STACKS_START__
000000003bc0b6f8 g     O .data	0000000000000002 cv_usb_vid
000000003bc0081c g     F ro	0000000000000016 sys_pll_init
000000003bc03abc g     F ro	0000000000000044 dwc2_ep_fifo_read
000000003bc0b6fc g     O .data	0000000000000004 ddr_data_rate
000000003bc12e80 g     O .bss	0000000000000400 handlerArr
000000003bc08de2 g     F ro	0000000000000068 cvx16_dfi_ca_park_prbs
000000003bc04096 g     F ro	0000000000000540 dwc2_udc_irq
000000003bc12c00 g     O .bss	0000000000000200 cmdBufAllocArr
000000003bc00b5a g     F ro	0000000000000012 strlen
000000003bc1340d g     O .bss	0000000000000001 ddr_type
000000003bc08450 g     F ro	0000000000000224 ddr_sys_bring_up
000000003bc08154 g     F ro	0000000000000040 XXH32_digest
000000003bc08194 g     F ro	0000000000000034 ddr_init
000000003bc0391c g     F ro	0000000000000044 dwc2_ep_fifo_write
000000003bc01612 g     F ro	00000000000000ae decompress_lz4
000000003bc0701c g     F ro	000000000000001e LZ4F_getBlockSize
000000003bc1340c g     O .bss	0000000000000001 ddr_capacity
000000003bc13308 g     O .bss	0000000000000008 acm
000000003bc01744 g     F ro	0000000000000004 DWC2_UncachedWrite32
000000003bc133c0 g     O .bss	0000000000000008 the_controller
000000003bc08e6c g     F ro	0000000000000026 cvx16_set_dfi_init_start
000000003bc0999a g     F ro	000000000000002e ctrl_init_high_patch
000000003bc00dde g     F ro	00000000000000c6 load_ddr
000000003bc028cc g     F ro	0000000000000046 udc_reinit
000000003bc08b36 g     F ro	0000000000000016 cvx16_clk_div2
000000003bc09c12 g     F ro	00000000000003da phy_init
000000003bc093dc g     F ro	0000000000000084 pll_init
000000003bc02f1a g     F ro	000000000000028e dwc2_reconfig_usbd



Disassembly of section ro:

000000003bc00000 <__RO_START__>:
    3bc00000:	0200006f          	j	3bc00020 <bl2_entrypoint_real>
	...

000000003bc00020 <bl2_entrypoint_real>:
    3bc00020:	05900e1b          	addiw	t3,zero,89
    3bc00024:	019e1e13          	slli	t3,t3,0x19
    3bc00028:	03000eb7          	lui	t4,0x3000
    3bc0002c:	084e8e9b          	addiw	t4,t4,132
    3bc00030:	01cea023          	sw	t3,0(t4) # 3000000 <__BSS_SIZE__+0x2ffa3f0>
    3bc00034:	00000093          	li	ra,0
    3bc00038:	00000113          	li	sp,0
    3bc0003c:	00000193          	li	gp,0
    3bc00040:	00000213          	li	tp,0
    3bc00044:	00000293          	li	t0,0
    3bc00048:	00000313          	li	t1,0
    3bc0004c:	00000393          	li	t2,0
    3bc00050:	00000413          	li	s0,0
    3bc00054:	00000493          	li	s1,0
    3bc00058:	00000513          	li	a0,0
    3bc0005c:	00000593          	li	a1,0
    3bc00060:	00000613          	li	a2,0
    3bc00064:	00000693          	li	a3,0
    3bc00068:	00000713          	li	a4,0
    3bc0006c:	00000793          	li	a5,0
    3bc00070:	00000813          	li	a6,0
    3bc00074:	00000893          	li	a7,0
    3bc00078:	00000913          	li	s2,0
    3bc0007c:	00000993          	li	s3,0
    3bc00080:	00000a13          	li	s4,0
    3bc00084:	00000a93          	li	s5,0
    3bc00088:	00000b13          	li	s6,0
    3bc0008c:	00000b93          	li	s7,0
    3bc00090:	00000c13          	li	s8,0
    3bc00094:	00000c93          	li	s9,0
    3bc00098:	00000d13          	li	s10,0
    3bc0009c:	00000d93          	li	s11,0
    3bc000a0:	00000e13          	li	t3,0
    3bc000a4:	00000e93          	li	t4,0
    3bc000a8:	00000f13          	li	t5,0
    3bc000ac:	00000f93          	li	t6,0
    3bc000b0:	34001073          	csrw	mscratch,zero
    3bc000b4:	00000297          	auipc	t0,0x0
    3bc000b8:	09028293          	addi	t0,t0,144 # 3bc00144 <die>
    3bc000bc:	30529073          	csrw	mtvec,t0
    3bc000c0:	000181b7          	lui	gp,0x18
    3bc000c4:	0c71819b          	addiw	gp,gp,199
    3bc000c8:	00f19193          	slli	gp,gp,0xf
    3bc000cc:	7c019073          	csrw	mxstatus,gp
    3bc000d0:	702001b7          	lui	gp,0x70200
    3bc000d4:	ffc1819b          	addiw	gp,gp,-4
    3bc000d8:	00100213          	li	tp,1
    3bc000dc:	0041a023          	sw	tp,0(gp) # 70200000 <__BL2_END__+0x345ecbf0>
    3bc000e0:	03300193          	li	gp,51
    3bc000e4:	7c21b073          	csrc	mcor,gp
    3bc000e8:	01100193          	li	gp,17
    3bc000ec:	7c21a073          	csrs	mcor,gp
    3bc000f0:	00100193          	li	gp,1
    3bc000f4:	7c11a073          	csrs	mhcr,gp
    3bc000f8:	03300193          	li	gp,51
    3bc000fc:	7c21b073          	csrc	mcor,gp
    3bc00100:	01200193          	li	gp,18
    3bc00104:	7c21a073          	csrs	mcor,gp
    3bc00108:	00200193          	li	gp,2
    3bc0010c:	7c11a073          	csrs	mhcr,gp
    3bc00110:	0000d117          	auipc	sp,0xd
    3bc00114:	5f010113          	addi	sp,sp,1520 # 3bc0d700 <__STACKS_END__>
    3bc00118:	0000d697          	auipc	a3,0xd
    3bc0011c:	6e868693          	addi	a3,a3,1768 # 3bc0d800 <__BSS_START__>
    3bc00120:	00013717          	auipc	a4,0x13
    3bc00124:	2f070713          	addi	a4,a4,752 # 3bc13410 <__BL2_END__>
    3bc00128:	40d70733          	sub	a4,a4,a3

000000003bc0012c <bss_clear>:
    3bc0012c:	0006b023          	sd	zero,0(a3)
    3bc00130:	00868693          	addi	a3,a3,8
    3bc00134:	ff870713          	addi	a4,a4,-8
    3bc00138:	fe071ae3          	bnez	a4,3bc0012c <bss_clear>
    3bc0013c:	2e2010ef          	jal	ra,3bc0141e <bl2_main>
    3bc00140:	0040006f          	j	3bc00144 <die>

000000003bc00144 <die>:
    3bc00144:	4760006f          	j	3bc005ba <panic_handler>
    3bc00148:	ffdff06f          	j	3bc00144 <die>

000000003bc0014c <sync_cache>:
    3bc0014c:	0100000b          	icache.iall
    3bc00150:	01a0000b          	sync.i
    3bc00154:	8082                	ret

000000003bc00156 <flush_dcache_range>:
    3bc00156:	87aa                	mv	a5,a0
    3bc00158:	03f58593          	addi	a1,a1,63
    3bc0015c:	95be                	add	a1,a1,a5
    3bc0015e:	fc057513          	andi	a0,a0,-64
    3bc00162:	fc05f593          	andi	a1,a1,-64
    3bc00166:	00b56563          	bltu	a0,a1,3bc00170 <flush_dcache_range+0x1a>
    3bc0016a:	0190000b          	sync.s
    3bc0016e:	8082                	ret
    3bc00170:	02b5000b          	dcache.cipa	a0
    3bc00174:	04050513          	addi	a0,a0,64
    3bc00178:	b7fd                	j	3bc00166 <flush_dcache_range+0x10>

000000003bc0017a <trig_simulation_timer>:
    3bc0017a:	47e5                	li	a5,25
    3bc0017c:	02a787bb          	mulw	a5,a5,a0
    3bc00180:	03000737          	lui	a4,0x3000
    3bc00184:	08f72423          	sw	a5,136(a4) # 3000088 <__BSS_SIZE__+0x2ffa478>
    3bc00188:	8082                	ret

000000003bc0018a <udelay>:
    3bc0018a:	c0102773          	rdtime	a4
    3bc0018e:	47e5                	li	a5,25
    3bc00190:	02a786bb          	mulw	a3,a5,a0
    3bc00194:	fff74713          	not	a4,a4
    3bc00198:	030007b7          	lui	a5,0x3000
    3bc0019c:	2701                	sext.w	a4,a4
    3bc0019e:	08d7a423          	sw	a3,136(a5) # 3000088 <__BSS_SIZE__+0x2ffa478>
    3bc001a2:	c01027f3          	rdtime	a5
    3bc001a6:	fff7c793          	not	a5,a5
    3bc001aa:	40f707bb          	subw	a5,a4,a5
    3bc001ae:	fed7eae3          	bltu	a5,a3,3bc001a2 <udelay+0x18>
    3bc001b2:	8082                	ret

000000003bc001b4 <mdelay>:
    3bc001b4:	3e800793          	li	a5,1000
    3bc001b8:	02a7853b          	mulw	a0,a5,a0
    3bc001bc:	b7f9                	j	3bc0018a <udelay>

000000003bc001be <get_timer>:
    3bc001be:	e519                	bnez	a0,3bc001cc <get_timer+0xe>
    3bc001c0:	c0102573          	rdtime	a0
    3bc001c4:	fff54513          	not	a0,a0
    3bc001c8:	2501                	sext.w	a0,a0
    3bc001ca:	8082                	ret
    3bc001cc:	c01027f3          	rdtime	a5
    3bc001d0:	fff7c793          	not	a5,a5
    3bc001d4:	9d1d                	subw	a0,a0,a5
    3bc001d6:	6799                	lui	a5,0x6
    3bc001d8:	1a87879b          	addiw	a5,a5,424
    3bc001dc:	02f5553b          	divuw	a0,a0,a5
    3bc001e0:	8082                	ret

000000003bc001e2 <get_random_from_timer>:
    3bc001e2:	e519                	bnez	a0,3bc001f0 <get_random_from_timer+0xe>
    3bc001e4:	c0102573          	rdtime	a0
    3bc001e8:	fff54513          	not	a0,a0
    3bc001ec:	2501                	sext.w	a0,a0
    3bc001ee:	8082                	ret
    3bc001f0:	c01027f3          	rdtime	a5
    3bc001f4:	fff7c793          	not	a5,a5
    3bc001f8:	9d1d                	subw	a0,a0,a5
    3bc001fa:	47e5                	li	a5,25
    3bc001fc:	02f5553b          	divuw	a0,a0,a5
    3bc00200:	67e1                	lui	a5,0x18
    3bc00202:	6a07879b          	addiw	a5,a5,1696
    3bc00206:	02f5753b          	remuw	a0,a0,a5
    3bc0020a:	8082                	ret

000000003bc0020c <read_count_tick>:
    3bc0020c:	c0102573          	rdtime	a0
    3bc00210:	47e5                	li	a5,25
    3bc00212:	02f55533          	divu	a0,a0,a5
    3bc00216:	2501                	sext.w	a0,a0
    3bc00218:	8082                	ret

000000003bc0021a <jump_to_monitor>:
    3bc0021a:	1101                	addi	sp,sp,-32
    3bc0021c:	494257b7          	lui	a5,0x49425
    3bc00220:	e822                	sd	s0,16(sp)
    3bc00222:	34f78793          	addi	a5,a5,847 # 4942534f <__BL2_END__+0xd811f3f>
    3bc00226:	00013417          	auipc	s0,0x13
    3bc0022a:	0a240413          	addi	s0,s0,162 # 3bc132c8 <fw_dynamic_info>
    3bc0022e:	e426                	sd	s1,8(sp)
    3bc00230:	e01c                	sd	a5,0(s0)
    3bc00232:	010014b7          	lui	s1,0x1001
    3bc00236:	4785                	li	a5,1
    3bc00238:	e04a                	sd	s2,0(sp)
    3bc0023a:	00749613          	slli	a2,s1,0x7
    3bc0023e:	892a                	mv	s2,a0
    3bc00240:	ec1c                	sd	a5,24(s0)
    3bc00242:	0000a517          	auipc	a0,0xa
    3bc00246:	dde50513          	addi	a0,a0,-546 # 3bc0a020 <version_string+0x10>
    3bc0024a:	57fd                	li	a5,-1
    3bc0024c:	ec06                	sd	ra,24(sp)
    3bc0024e:	f41c                	sd	a5,40(s0)
    3bc00250:	e80c                	sd	a1,16(s0)
    3bc00252:	106000ef          	jal	ra,3bc00358 <tf_printf>
    3bc00256:	03000593          	li	a1,48
    3bc0025a:	8522                	mv	a0,s0
    3bc0025c:	efbff0ef          	jal	ra,3bc00156 <flush_dcache_range>
    3bc00260:	fadff0ef          	jal	ra,3bc0020c <read_count_tick>
    3bc00264:	3e800793          	li	a5,1000
    3bc00268:	3e75051b          	addiw	a0,a0,999
    3bc0026c:	02f5553b          	divuw	a0,a0,a5
    3bc00270:	8622                	mv	a2,s0
    3bc00272:	0000b797          	auipc	a5,0xb
    3bc00276:	1ce7b783          	ld	a5,462(a5) # 3bc0b440 <time_records>
    3bc0027a:	6442                	ld	s0,16(sp)
    3bc0027c:	60e2                	ld	ra,24(sp)
    3bc0027e:	00749593          	slli	a1,s1,0x7
    3bc00282:	64a2                	ld	s1,8(sp)
    3bc00284:	00a79723          	sh	a0,14(a5)
    3bc00288:	87ca                	mv	a5,s2
    3bc0028a:	6902                	ld	s2,0(sp)
    3bc0028c:	4501                	li	a0,0
    3bc0028e:	6105                	addi	sp,sp,32
    3bc00290:	8782                	jr	a5

000000003bc00292 <jump_to_loader_2nd>:
    3bc00292:	8082                	ret

000000003bc00294 <_uart_putc>:
    3bc00294:	04140737          	lui	a4,0x4140
    3bc00298:	4b5c                	lw	a5,20(a4)
    3bc0029a:	0207f793          	andi	a5,a5,32
    3bc0029e:	dfed                	beqz	a5,3bc00298 <_uart_putc+0x4>
    3bc002a0:	c308                	sw	a0,0(a4)
    3bc002a2:	8082                	ret

000000003bc002a4 <console_putc>:
    3bc002a4:	1141                	addi	sp,sp,-16
    3bc002a6:	e022                	sd	s0,0(sp)
    3bc002a8:	e406                	sd	ra,8(sp)
    3bc002aa:	47a9                	li	a5,10
    3bc002ac:	842a                	mv	s0,a0
    3bc002ae:	00f51563          	bne	a0,a5,3bc002b8 <console_putc+0x14>
    3bc002b2:	4535                	li	a0,13
    3bc002b4:	fe1ff0ef          	jal	ra,3bc00294 <_uart_putc>
    3bc002b8:	8522                	mv	a0,s0
    3bc002ba:	6402                	ld	s0,0(sp)
    3bc002bc:	60a2                	ld	ra,8(sp)
    3bc002be:	0141                	addi	sp,sp,16
    3bc002c0:	bfd1                	j	3bc00294 <_uart_putc>

000000003bc002c2 <console_flush>:
    3bc002c2:	041406b7          	lui	a3,0x4140
    3bc002c6:	06000713          	li	a4,96
    3bc002ca:	4adc                	lw	a5,20(a3)
    3bc002cc:	0607f793          	andi	a5,a5,96
    3bc002d0:	fee79de3          	bne	a5,a4,3bc002ca <console_flush+0x8>
    3bc002d4:	8082                	ret

000000003bc002d6 <unsigned_num_print>:
    3bc002d6:	7139                	addi	sp,sp,-64
    3bc002d8:	f04a                	sd	s2,32(sp)
    3bc002da:	7c05b70b          	extu	a4,a1,31,0
    3bc002de:	fc06                	sd	ra,56(sp)
    3bc002e0:	f822                	sd	s0,48(sp)
    3bc002e2:	f426                	sd	s1,40(sp)
    3bc002e4:	8932                	mv	s2,a2
    3bc002e6:	4801                	li	a6,0
    3bc002e8:	45a5                	li	a1,9
    3bc002ea:	02e57633          	remu	a2,a0,a4
    3bc002ee:	0018041b          	addiw	s0,a6,1
    3bc002f2:	0ff67793          	andi	a5,a2,255
    3bc002f6:	04c5e063          	bltu	a1,a2,3bc00336 <unsigned_num_print+0x60>
    3bc002fa:	0307879b          	addiw	a5,a5,48
    3bc002fe:	0ff7f793          	andi	a5,a5,255
    3bc00302:	0030                	addi	a2,sp,8
    3bc00304:	0106578b          	srb	a5,a2,a6,0
    3bc00308:	02e557b3          	divu	a5,a0,a4
    3bc0030c:	0805                	addi	a6,a6,1
    3bc0030e:	02e57263          	bgeu	a0,a4,3bc00332 <unsigned_num_print+0x5c>
    3bc00312:	408684bb          	subw	s1,a3,s0
    3bc00316:	02904363          	bgtz	s1,3bc0033c <unsigned_num_print+0x66>
    3bc0031a:	54fd                	li	s1,-1
    3bc0031c:	147d                	addi	s0,s0,-1
    3bc0031e:	0004079b          	sext.w	a5,s0
    3bc00322:	02979463          	bne	a5,s1,3bc0034a <unsigned_num_print+0x74>
    3bc00326:	70e2                	ld	ra,56(sp)
    3bc00328:	7442                	ld	s0,48(sp)
    3bc0032a:	74a2                	ld	s1,40(sp)
    3bc0032c:	7902                	ld	s2,32(sp)
    3bc0032e:	6121                	addi	sp,sp,64
    3bc00330:	8082                	ret
    3bc00332:	853e                	mv	a0,a5
    3bc00334:	bf5d                	j	3bc002ea <unsigned_num_print+0x14>
    3bc00336:	0577879b          	addiw	a5,a5,87
    3bc0033a:	b7d1                	j	3bc002fe <unsigned_num_print+0x28>
    3bc0033c:	85ca                	mv	a1,s2
    3bc0033e:	03000513          	li	a0,48
    3bc00342:	7aa000ef          	jal	ra,3bc00aec <putchar_l>
    3bc00346:	34fd                	addiw	s1,s1,-1
    3bc00348:	b7f9                	j	3bc00316 <unsigned_num_print+0x40>
    3bc0034a:	003c                	addi	a5,sp,8
    3bc0034c:	8087c50b          	lrbu	a0,a5,s0,0
    3bc00350:	85ca                	mv	a1,s2
    3bc00352:	79a000ef          	jal	ra,3bc00aec <putchar_l>
    3bc00356:	b7d9                	j	3bc0031c <unsigned_num_print+0x46>

000000003bc00358 <tf_printf>:
    3bc00358:	7135                	addi	sp,sp,-160
    3bc0035a:	e8a2                	sd	s0,80(sp)
    3bc0035c:	e4a6                	sd	s1,72(sp)
    3bc0035e:	ec86                	sd	ra,88(sp)
    3bc00360:	e0ca                	sd	s2,64(sp)
    3bc00362:	fc4e                	sd	s3,56(sp)
    3bc00364:	f852                	sd	s4,48(sp)
    3bc00366:	f456                	sd	s5,40(sp)
    3bc00368:	f05a                	sd	s6,32(sp)
    3bc0036a:	f4ae                	sd	a1,104(sp)
    3bc0036c:	f8b2                	sd	a2,112(sp)
    3bc0036e:	fcb6                	sd	a3,120(sp)
    3bc00370:	e13a                	sd	a4,128(sp)
    3bc00372:	e53e                	sd	a5,136(sp)
    3bc00374:	e942                	sd	a6,144(sp)
    3bc00376:	ed46                	sd	a7,152(sp)
    3bc00378:	842a                	mv	s0,a0
    3bc0037a:	4489                	li	s1,2
    3bc0037c:	c11d                	beqz	a0,3bc003a2 <tf_printf+0x4a>
    3bc0037e:	00054703          	lbu	a4,0(a0)
    3bc00382:	4785                	li	a5,1
    3bc00384:	00f71f63          	bne	a4,a5,3bc003a2 <tf_printf+0x4a>
    3bc00388:	00154783          	lbu	a5,1(a0)
    3bc0038c:	4711                	li	a4,4
    3bc0038e:	fd07879b          	addiw	a5,a5,-48
    3bc00392:	0ff7f693          	andi	a3,a5,255
    3bc00396:	00d76663          	bltu	a4,a3,3bc003a2 <tf_printf+0x4a>
    3bc0039a:	0007849b          	sext.w	s1,a5
    3bc0039e:	00250413          	addi	s0,a0,2
    3bc003a2:	10bc                	addi	a5,sp,104
    3bc003a4:	ec3e                	sd	a5,24(sp)
    3bc003a6:	4a25                	li	s4,9
    3bc003a8:	4ad9                	li	s5,22
    3bc003aa:	0000a997          	auipc	s3,0xa
    3bc003ae:	ca298993          	addi	s3,s3,-862 # 3bc0a04c <version_string+0x3c>
    3bc003b2:	00044503          	lbu	a0,0(s0)
    3bc003b6:	e919                	bnez	a0,3bc003cc <tf_printf+0x74>
    3bc003b8:	60e6                	ld	ra,88(sp)
    3bc003ba:	6446                	ld	s0,80(sp)
    3bc003bc:	64a6                	ld	s1,72(sp)
    3bc003be:	6906                	ld	s2,64(sp)
    3bc003c0:	79e2                	ld	s3,56(sp)
    3bc003c2:	7a42                	ld	s4,48(sp)
    3bc003c4:	7aa2                	ld	s5,40(sp)
    3bc003c6:	7b02                	ld	s6,32(sp)
    3bc003c8:	610d                	addi	sp,sp,160
    3bc003ca:	8082                	ret
    3bc003cc:	02500793          	li	a5,37
    3bc003d0:	0405                	addi	s0,s0,1
    3bc003d2:	10f51c63          	bne	a0,a5,3bc004ea <tf_printf+0x192>
    3bc003d6:	4781                	li	a5,0
    3bc003d8:	4681                	li	a3,0
    3bc003da:	03000613          	li	a2,48
    3bc003de:	00044703          	lbu	a4,0(s0)
    3bc003e2:	00c70c63          	beq	a4,a2,3bc003fa <tf_printf+0xa2>
    3bc003e6:	f9c7071b          	addiw	a4,a4,-100
    3bc003ea:	0ff77713          	andi	a4,a4,255
    3bc003ee:	fceae5e3          	bltu	s5,a4,3bc003b8 <tf_printf+0x60>
    3bc003f2:	44e9c70b          	lrw	a4,s3,a4,2
    3bc003f6:	974e                	add	a4,a4,s3
    3bc003f8:	8702                	jr	a4
    3bc003fa:	00144703          	lbu	a4,1(s0)
    3bc003fe:	fd07071b          	addiw	a4,a4,-48
    3bc00402:	0ff77593          	andi	a1,a4,255
    3bc00406:	00ba6463          	bltu	s4,a1,3bc0040e <tf_printf+0xb6>
    3bc0040a:	0007069b          	sext.w	a3,a4
    3bc0040e:	0409                	addi	s0,s0,2
    3bc00410:	b7f9                	j	3bc003de <tf_printf+0x86>
    3bc00412:	6762                	ld	a4,24(sp)
    3bc00414:	4585                	li	a1,1
    3bc00416:	00870613          	addi	a2,a4,8 # 4140008 <__BSS_SIZE__+0x413a3f8>
    3bc0041a:	ec32                	sd	a2,24(sp)
    3bc0041c:	02f5d563          	bge	a1,a5,3bc00446 <tf_printf+0xee>
    3bc00420:	00073903          	ld	s2,0(a4)
    3bc00424:	00095b63          	bgez	s2,3bc0043a <tf_printf+0xe2>
    3bc00428:	85a6                	mv	a1,s1
    3bc0042a:	02d00513          	li	a0,45
    3bc0042e:	e436                	sd	a3,8(sp)
    3bc00430:	6bc000ef          	jal	ra,3bc00aec <putchar_l>
    3bc00434:	66a2                	ld	a3,8(sp)
    3bc00436:	41200933          	neg	s2,s2
    3bc0043a:	8626                	mv	a2,s1
    3bc0043c:	45a9                	li	a1,10
    3bc0043e:	854a                	mv	a0,s2
    3bc00440:	e97ff0ef          	jal	ra,3bc002d6 <unsigned_num_print>
    3bc00444:	a831                	j	3bc00460 <tf_printf+0x108>
    3bc00446:	ffe9                	bnez	a5,3bc00420 <tf_printf+0xc8>
    3bc00448:	00072903          	lw	s2,0(a4)
    3bc0044c:	bfe1                	j	3bc00424 <tf_printf+0xcc>
    3bc0044e:	67e2                	ld	a5,24(sp)
    3bc00450:	0007b903          	ld	s2,0(a5)
    3bc00454:	00878713          	addi	a4,a5,8
    3bc00458:	ec3a                	sd	a4,24(sp)
    3bc0045a:	00094503          	lbu	a0,0(s2)
    3bc0045e:	e119                	bnez	a0,3bc00464 <tf_printf+0x10c>
    3bc00460:	0405                	addi	s0,s0,1
    3bc00462:	bf81                	j	3bc003b2 <tf_printf+0x5a>
    3bc00464:	85a6                	mv	a1,s1
    3bc00466:	0905                	addi	s2,s2,1
    3bc00468:	684000ef          	jal	ra,3bc00aec <putchar_l>
    3bc0046c:	b7fd                	j	3bc0045a <tf_printf+0x102>
    3bc0046e:	67e2                	ld	a5,24(sp)
    3bc00470:	0000a917          	auipc	s2,0xa
    3bc00474:	bd890913          	addi	s2,s2,-1064 # 3bc0a048 <version_string+0x38>
    3bc00478:	0007bb03          	ld	s6,0(a5)
    3bc0047c:	00878713          	addi	a4,a5,8
    3bc00480:	ec3a                	sd	a4,24(sp)
    3bc00482:	000b1c63          	bnez	s6,3bc0049a <tf_printf+0x142>
    3bc00486:	8626                	mv	a2,s1
    3bc00488:	45c1                	li	a1,16
    3bc0048a:	855a                	mv	a0,s6
    3bc0048c:	bf55                	j	3bc00440 <tf_printf+0xe8>
    3bc0048e:	85a6                	mv	a1,s1
    3bc00490:	e436                	sd	a3,8(sp)
    3bc00492:	65a000ef          	jal	ra,3bc00aec <putchar_l>
    3bc00496:	66a2                	ld	a3,8(sp)
    3bc00498:	0905                	addi	s2,s2,1
    3bc0049a:	00094503          	lbu	a0,0(s2)
    3bc0049e:	f965                	bnez	a0,3bc0048e <tf_printf+0x136>
    3bc004a0:	b7dd                	j	3bc00486 <tf_printf+0x12e>
    3bc004a2:	6762                	ld	a4,24(sp)
    3bc004a4:	4585                	li	a1,1
    3bc004a6:	00870613          	addi	a2,a4,8
    3bc004aa:	ec32                	sd	a2,24(sp)
    3bc004ac:	00f5d663          	bge	a1,a5,3bc004b8 <tf_printf+0x160>
    3bc004b0:	6308                	ld	a0,0(a4)
    3bc004b2:	8626                	mv	a2,s1
    3bc004b4:	45c1                	li	a1,16
    3bc004b6:	b769                	j	3bc00440 <tf_printf+0xe8>
    3bc004b8:	ffe5                	bnez	a5,3bc004b0 <tf_printf+0x158>
    3bc004ba:	00076503          	lwu	a0,0(a4)
    3bc004be:	bfd5                	j	3bc004b2 <tf_printf+0x15a>
    3bc004c0:	0405                	addi	s0,s0,1
    3bc004c2:	4789                	li	a5,2
    3bc004c4:	bf29                	j	3bc003de <tf_printf+0x86>
    3bc004c6:	2785                	addiw	a5,a5,1
    3bc004c8:	0405                	addi	s0,s0,1
    3bc004ca:	bf11                	j	3bc003de <tf_printf+0x86>
    3bc004cc:	6762                	ld	a4,24(sp)
    3bc004ce:	4585                	li	a1,1
    3bc004d0:	00870613          	addi	a2,a4,8
    3bc004d4:	ec32                	sd	a2,24(sp)
    3bc004d6:	00f5d663          	bge	a1,a5,3bc004e2 <tf_printf+0x18a>
    3bc004da:	6308                	ld	a0,0(a4)
    3bc004dc:	8626                	mv	a2,s1
    3bc004de:	45a9                	li	a1,10
    3bc004e0:	b785                	j	3bc00440 <tf_printf+0xe8>
    3bc004e2:	ffe5                	bnez	a5,3bc004da <tf_printf+0x182>
    3bc004e4:	00076503          	lwu	a0,0(a4)
    3bc004e8:	bfd5                	j	3bc004dc <tf_printf+0x184>
    3bc004ea:	85a6                	mv	a1,s1
    3bc004ec:	600000ef          	jal	ra,3bc00aec <putchar_l>
    3bc004f0:	b5c9                	j	3bc003b2 <tf_printf+0x5a>

000000003bc004f2 <__system_reset>:
    3bc004f2:	7179                	addi	sp,sp,-48
    3bc004f4:	f022                	sd	s0,32(sp)
    3bc004f6:	be00e437          	lui	s0,0xbe00e
    3bc004fa:	f406                	sd	ra,40(sp)
    3bc004fc:	00340793          	addi	a5,s0,3 # ffffffffbe00e003 <__BL2_END__+0xffffffff823fabf3>
    3bc00500:	ec26                	sd	s1,24(sp)
    3bc00502:	e84a                	sd	s2,16(sp)
    3bc00504:	e44e                	sd	s3,8(sp)
    3bc00506:	0e000937          	lui	s2,0xe000
    3bc0050a:	862e                	mv	a2,a1
    3bc0050c:	00f92823          	sw	a5,16(s2) # e000010 <p_rom_api_cryptodma_aes_decrypt+0x9bfff10>
    3bc00510:	85aa                	mv	a1,a0
    3bc00512:	0000a517          	auipc	a0,0xa
    3bc00516:	b9650513          	addi	a0,a0,-1130 # 3bc0a0a8 <version_string+0x98>
    3bc0051a:	e3fff0ef          	jal	ra,3bc00358 <tf_printf>
    3bc0051e:	da5ff0ef          	jal	ra,3bc002c2 <console_flush>
    3bc00522:	be0034b7          	lui	s1,0xbe003
    3bc00526:	00148793          	addi	a5,s1,1 # ffffffffbe003001 <__BL2_END__+0xffffffff823efbf1>
    3bc0052a:	030009b7          	lui	s3,0x3000
    3bc0052e:	6505                	lui	a0,0x1
    3bc00530:	08f9a223          	sw	a5,132(s3) # 3000084 <__BSS_SIZE__+0x2ffa474>
    3bc00534:	38850513          	addi	a0,a0,904 # 1388 <__BSS_SIZE__-0x4888>
    3bc00538:	c7dff0ef          	jal	ra,3bc001b4 <mdelay>
    3bc0053c:	050267b7          	lui	a5,0x5026
    3bc00540:	4705                	li	a4,1
    3bc00542:	0ee7a023          	sw	a4,224(a5) # 50260e0 <p_rom_api_cryptodma_aes_decrypt+0xc25fe0>
    3bc00546:	0ce7a423          	sw	a4,200(a5)
    3bc0054a:	0489                	addi	s1,s1,2
    3bc0054c:	0899a223          	sw	s1,132(s3)
    3bc00550:	06400513          	li	a0,100
    3bc00554:	c37ff0ef          	jal	ra,3bc0018a <udelay>
    3bc00558:	050257b7          	lui	a5,0x5025
    3bc0055c:	672d                	lui	a4,0xb
    3bc0055e:	0a07a623          	sw	zero,172(a5) # 50250ac <p_rom_api_cryptodma_aes_decrypt+0xc24fac>
    3bc00562:	b1870713          	addi	a4,a4,-1256 # ab18 <__BSS_SIZE__+0x4f08>
    3bc00566:	c3d8                	sw	a4,4(a5)
    3bc00568:	00400737          	lui	a4,0x400
    3bc0056c:	04070713          	addi	a4,a4,64 # 400040 <__BSS_SIZE__+0x3fa430>
    3bc00570:	c798                	sw	a4,8(a5)
    3bc00572:	030107b7          	lui	a5,0x3010
    3bc00576:	06600713          	li	a4,102
    3bc0057a:	c3d8                	sw	a4,4(a5)
    3bc0057c:	02000713          	li	a4,32
    3bc00580:	cfd8                	sw	a4,28(a5)
    3bc00582:	07600713          	li	a4,118
    3bc00586:	c7d8                	sw	a4,12(a5)
    3bc00588:	4745                	li	a4,17
    3bc0058a:	c398                	sw	a4,0(a5)
    3bc0058c:	00394783          	lbu	a5,3(s2)
    3bc00590:	0407f793          	andi	a5,a5,64
    3bc00594:	c395                	beqz	a5,3bc005b8 <__system_reset+0xc6>
    3bc00596:	0411                	addi	s0,s0,4
    3bc00598:	00892823          	sw	s0,16(s2)
    3bc0059c:	050266b7          	lui	a3,0x5026
    3bc005a0:	470d                	li	a4,3
    3bc005a2:	0d46a783          	lw	a5,212(a3) # 50260d4 <p_rom_api_cryptodma_aes_decrypt+0xc25fd4>
    3bc005a6:	2781                	sext.w	a5,a5
    3bc005a8:	fee79de3          	bne	a5,a4,3bc005a2 <__system_reset+0xb0>
    3bc005ac:	000807b7          	lui	a5,0x80
    3bc005b0:	05025737          	lui	a4,0x5025
    3bc005b4:	07a1                	addi	a5,a5,8
    3bc005b6:	c71c                	sw	a5,8(a4)
    3bc005b8:	a001                	j	3bc005b8 <__system_reset+0xc6>

000000003bc005ba <panic_handler>:
    3bc005ba:	1141                	addi	sp,sp,-16
    3bc005bc:	be00e7b7          	lui	a5,0xbe00e
    3bc005c0:	e406                	sd	ra,8(sp)
    3bc005c2:	0e000737          	lui	a4,0xe000
    3bc005c6:	0789                	addi	a5,a5,2
    3bc005c8:	cb1c                	sw	a5,16(a4)
    3bc005ca:	0000879b          	sext.w	a5,ra
    3bc005ce:	8586                	mv	a1,ra
    3bc005d0:	0000a517          	auipc	a0,0xa
    3bc005d4:	af050513          	addi	a0,a0,-1296 # 3bc0a0c0 <version_string+0xb0>
    3bc005d8:	cb5c                	sw	a5,20(a4)
    3bc005da:	d7fff0ef          	jal	ra,3bc00358 <tf_printf>
    3bc005de:	55fd                	li	a1,-1
    3bc005e0:	0000a517          	auipc	a0,0xa
    3bc005e4:	af050513          	addi	a0,a0,-1296 # 3bc0a0d0 <version_string+0xc0>
    3bc005e8:	f0bff0ef          	jal	ra,3bc004f2 <__system_reset>

000000003bc005ec <reset_c906l>:
    3bc005ec:	1141                	addi	sp,sp,-16
    3bc005ee:	e022                	sd	s0,0(sp)
    3bc005f0:	842a                	mv	s0,a0
    3bc005f2:	0000a517          	auipc	a0,0xa
    3bc005f6:	ae650513          	addi	a0,a0,-1306 # 3bc0a0d8 <version_string+0xc8>
    3bc005fa:	e406                	sd	ra,8(sp)
    3bc005fc:	d5dff0ef          	jal	ra,3bc00358 <tf_printf>
    3bc00600:	03003737          	lui	a4,0x3003
    3bc00604:	535c                	lw	a5,36(a4)
    3bc00606:	6609                	lui	a2,0x2
    3bc00608:	60a2                	ld	ra,8(sp)
    3bc0060a:	2781                	sext.w	a5,a5
    3bc0060c:	fbf7f793          	andi	a5,a5,-65
    3bc00610:	d35c                	sw	a5,36(a4)
    3bc00612:	020b07b7          	lui	a5,0x20b0
    3bc00616:	43d4                	lw	a3,4(a5)
    3bc00618:	8ed1                	or	a3,a3,a2
    3bc0061a:	c3d4                	sw	a3,4(a5)
    3bc0061c:	0004069b          	sext.w	a3,s0
    3bc00620:	d394                	sw	a3,32(a5)
    3bc00622:	9401                	srai	s0,s0,0x20
    3bc00624:	d3c0                	sw	s0,36(a5)
    3bc00626:	535c                	lw	a5,36(a4)
    3bc00628:	6402                	ld	s0,0(sp)
    3bc0062a:	2781                	sext.w	a5,a5
    3bc0062c:	0407e793          	ori	a5,a5,64
    3bc00630:	d35c                	sw	a5,36(a4)
    3bc00632:	0141                	addi	sp,sp,16
    3bc00634:	8082                	ret

000000003bc00636 <setup_dl_flag>:
    3bc00636:	1141                	addi	sp,sp,-16
    3bc00638:	e406                	sd	ra,8(sp)
    3bc0063a:	c8800097          	auipc	ra,0xc8800
    3bc0063e:	9e6080e7          	jalr	-1562(ra) # 4400020 <p_rom_api_get_boot_src>
    3bc00642:	67b5                	lui	a5,0xd
    3bc00644:	2501                	sext.w	a0,a0
    3bc00646:	ea078713          	addi	a4,a5,-352 # cea0 <__BSS_SIZE__+0x7290>
    3bc0064a:	00e50a63          	beq	a0,a4,3bc0065e <setup_dl_flag+0x28>
    3bc0064e:	ea378793          	addi	a5,a5,-349
    3bc00652:	02f50063          	beq	a0,a5,3bc00672 <setup_dl_flag+0x3c>
    3bc00656:	0e0007b7          	lui	a5,0xe000
    3bc0065a:	c3c8                	sw	a0,4(a5)
    3bc0065c:	a801                	j	3bc0066c <setup_dl_flag+0x36>
    3bc0065e:	4d4757b7          	lui	a5,0x4d475
    3bc00662:	0e000737          	lui	a4,0xe000
    3bc00666:	e3278793          	addi	a5,a5,-462 # 4d474e32 <__BL2_END__+0x11861a22>
    3bc0066a:	c35c                	sw	a5,4(a4)
    3bc0066c:	60a2                	ld	ra,8(sp)
    3bc0066e:	0141                	addi	sp,sp,16
    3bc00670:	8082                	ret
    3bc00672:	4d4757b7          	lui	a5,0x4d475
    3bc00676:	0e000737          	lui	a4,0xe000
    3bc0067a:	e3178793          	addi	a5,a5,-463 # 4d474e31 <__BL2_END__+0x11861a21>
    3bc0067e:	b7f5                	j	3bc0066a <setup_dl_flag+0x34>

000000003bc00680 <sys_switch_all_to_pll>:
    3bc00680:	030027b7          	lui	a5,0x3002
    3bc00684:	0207a823          	sw	zero,48(a5) # 3002030 <__BSS_SIZE__+0x2ffc420>
    3bc00688:	0207aa23          	sw	zero,52(a5)
    3bc0068c:	8082                	ret

000000003bc0068e <sys_pll_nd>:
    3bc0068e:	7139                	addi	sp,sp,-64
    3bc00690:	0000a797          	auipc	a5,0xa
    3bc00694:	ab87b783          	ld	a5,-1352(a5) # 3bc0a148 <version_string+0x138>
    3bc00698:	e03e                	sd	a5,0(sp)
    3bc0069a:	0000a797          	auipc	a5,0xa
    3bc0069e:	ab67b783          	ld	a5,-1354(a5) # 3bc0a150 <version_string+0x140>
    3bc006a2:	e43e                	sd	a5,8(sp)
    3bc006a4:	0000a797          	auipc	a5,0xa
    3bc006a8:	ab47b783          	ld	a5,-1356(a5) # 3bc0a158 <version_string+0x148>
    3bc006ac:	e83e                	sd	a5,16(sp)
    3bc006ae:	0000a517          	auipc	a0,0xa
    3bc006b2:	a3250513          	addi	a0,a0,-1486 # 3bc0a0e0 <version_string+0xd0>
    3bc006b6:	0000a797          	auipc	a5,0xa
    3bc006ba:	aaa7b783          	ld	a5,-1366(a5) # 3bc0a160 <version_string+0x150>
    3bc006be:	f426                	sd	s1,40(sp)
    3bc006c0:	ec3e                	sd	a5,24(sp)
    3bc006c2:	fc06                	sd	ra,56(sp)
    3bc006c4:	f822                	sd	s0,48(sp)
    3bc006c6:	f04a                	sd	s2,32(sp)
    3bc006c8:	c91ff0ef          	jal	ra,3bc00358 <tf_printf>
    3bc006cc:	030027b7          	lui	a5,0x3002
    3bc006d0:	577d                	li	a4,-1
    3bc006d2:	5b84                	lw	s1,48(a5)
    3bc006d4:	03f00693          	li	a3,63
    3bc006d8:	db98                	sw	a4,48(a5)
    3bc006da:	dbd4                	sw	a3,52(a5)
    3bc006dc:	054887b7          	lui	a5,0x5488
    3bc006e0:	03003737          	lui	a4,0x3003
    3bc006e4:	10178793          	addi	a5,a5,257 # 5488101 <p_rom_api_cryptodma_aes_decrypt+0x1088001>
    3bc006e8:	80f72423          	sw	a5,-2040(a4) # 3002808 <__BSS_SIZE__+0x2ffcbf8>
    3bc006ec:	030037b7          	lui	a5,0x3003
    3bc006f0:	84d72023          	sw	a3,-1984(a4)
    3bc006f4:	2481                	sext.w	s1,s1
    3bc006f6:	4601                	li	a2,0
    3bc006f8:	85470713          	addi	a4,a4,-1964
    3bc006fc:	01010813          	addi	a6,sp,16
    3bc00700:	80c78513          	addi	a0,a5,-2036 # 300280c <__BSS_SIZE__+0x2ffcbfc>
    3bc00704:	45c1                	li	a1,16
    3bc00706:	4026468b          	lrw	a3,a2,sp,0
    3bc0070a:	c314                	sw	a3,0(a4)
    3bc0070c:	ffc72683          	lw	a3,-4(a4)
    3bc00710:	0741                	addi	a4,a4,16
    3bc00712:	2681                	sext.w	a3,a3
    3bc00714:	9abd                	andi	a3,a3,-17
    3bc00716:	0016e693          	ori	a3,a3,1
    3bc0071a:	fed72623          	sw	a3,-20(a4)
    3bc0071e:	4106468b          	lrw	a3,a2,a6,0
    3bc00722:	40a6568b          	srw	a3,a2,a0,0
    3bc00726:	0611                	addi	a2,a2,4
    3bc00728:	fcb61fe3          	bne	a2,a1,3bc00706 <sys_pll_nd+0x78>
    3bc0072c:	80078613          	addi	a2,a5,-2048
    3bc00730:	4218                	lw	a4,0(a2)
    3bc00732:	76bd                	lui	a3,0xfffef
    3bc00734:	eee68693          	addi	a3,a3,-274 # fffffffffffeeeee <__BL2_END__+0xffffffffc43dbade>
    3bc00738:	2701                	sext.w	a4,a4
    3bc0073a:	8f75                	and	a4,a4,a3
    3bc0073c:	c218                	sw	a4,0(a2)
    3bc0073e:	00448737          	lui	a4,0x448
    3bc00742:	90078613          	addi	a2,a5,-1792
    3bc00746:	10170713          	addi	a4,a4,257 # 448101 <__BSS_SIZE__+0x4424f1>
    3bc0074a:	c618                	sw	a4,8(a2)
    3bc0074c:	03002437          	lui	s0,0x3002
    3bc00750:	018006b7          	lui	a3,0x1800
    3bc00754:	6841                	lui	a6,0x10
    3bc00756:	d014                	sw	a3,32(s0)
    3bc00758:	30980593          	addi	a1,a6,777 # 10309 <__BSS_SIZE__+0xa6f9>
    3bc0075c:	10040693          	addi	a3,s0,256 # 3002100 <__BSS_SIZE__+0x2ffc4f0>
    3bc00760:	da8c                	sw	a1,48(a3)
    3bc00762:	000205b7          	lui	a1,0x20
    3bc00766:	20958593          	addi	a1,a1,521 # 20209 <__BSS_SIZE__+0x1a5f9>
    3bc0076a:	de8c                	sw	a1,56(a3)
    3bc0076c:	c658                	sw	a4,12(a2)
    3bc0076e:	00030637          	lui	a2,0x30
    3bc00772:	00960313          	addi	t1,a2,9 # 30009 <__BSS_SIZE__+0x2a3f9>
    3bc00776:	04642423          	sw	t1,72(s0)
    3bc0077a:	30960713          	addi	a4,a2,777
    3bc0077e:	00040537          	lui	a0,0x40
    3bc00782:	c878                	sw	a4,84(s0)
    3bc00784:	00080937          	lui	s2,0x80
    3bc00788:	00950713          	addi	a4,a0,9 # 40009 <__BSS_SIZE__+0x3a3f9>
    3bc0078c:	d078                	sw	a4,100(s0)
    3bc0078e:	00990893          	addi	a7,s2,9 # 80009 <__BSS_SIZE__+0x7a3f9>
    3bc00792:	08040713          	addi	a4,s0,128
    3bc00796:	01172423          	sw	a7,8(a4)
    3bc0079a:	001208b7          	lui	a7,0x120
    3bc0079e:	08a5                	addi	a7,a7,9
    3bc007a0:	01172c23          	sw	a7,24(a4)
    3bc007a4:	000f08b7          	lui	a7,0xf0
    3bc007a8:	08a5                	addi	a7,a7,9
    3bc007aa:	0316a023          	sw	a7,32(a3) # 1800020 <__BSS_SIZE__+0x17fa410>
    3bc007ae:	0825                	addi	a6,a6,9
    3bc007b0:	03072423          	sw	a6,40(a4)
    3bc007b4:	10960813          	addi	a6,a2,265
    3bc007b8:	07072223          	sw	a6,100(a4)
    3bc007bc:	30950513          	addi	a0,a0,777
    3bc007c0:	d768                	sw	a0,108(a4)
    3bc007c2:	00060537          	lui	a0,0x60
    3bc007c6:	04672423          	sw	t1,72(a4)
    3bc007ca:	20950513          	addi	a0,a0,521 # 60209 <__BSS_SIZE__+0x5a5f9>
    3bc007ce:	cb28                	sw	a0,80(a4)
    3bc007d0:	cf28                	sw	a0,88(a4)
    3bc007d2:	ca8c                	sw	a1,16(a3)
    3bc007d4:	20960613          	addi	a2,a2,521
    3bc007d8:	c2f0                	sw	a2,68(a3)
    3bc007da:	00050637          	lui	a2,0x50
    3bc007de:	0625                	addi	a2,a2,9
    3bc007e0:	df10                	sw	a2,56(a4)
    3bc007e2:	d6d0                	sw	a2,44(a3)
    3bc007e4:	88078793          	addi	a5,a5,-1920
    3bc007e8:	5398                	lw	a4,32(a5)
    3bc007ea:	10090913          	addi	s2,s2,256
    3bc007ee:	0124f933          	and	s2,s1,s2
    3bc007f2:	2701                	sext.w	a4,a4
    3bc007f4:	9b6d                	andi	a4,a4,-5
    3bc007f6:	d398                	sw	a4,32(a5)
    3bc007f8:	57d8                	lw	a4,44(a5)
    3bc007fa:	0c800513          	li	a0,200
    3bc007fe:	2701                	sext.w	a4,a4
    3bc00800:	9b65                	andi	a4,a4,-7
    3bc00802:	d7d8                	sw	a4,44(a5)
    3bc00804:	987ff0ef          	jal	ra,3bc0018a <udelay>
    3bc00808:	03242823          	sw	s2,48(s0)
    3bc0080c:	70e2                	ld	ra,56(sp)
    3bc0080e:	02042a23          	sw	zero,52(s0)
    3bc00812:	7442                	ld	s0,48(sp)
    3bc00814:	74a2                	ld	s1,40(sp)
    3bc00816:	7902                	ld	s2,32(sp)
    3bc00818:	6121                	addi	sp,sp,64
    3bc0081a:	8082                	ret

000000003bc0081c <sys_pll_init>:
    3bc0081c:	1141                	addi	sp,sp,-16
    3bc0081e:	e406                	sd	ra,8(sp)
    3bc00820:	e6fff0ef          	jal	ra,3bc0068e <sys_pll_nd>
    3bc00824:	60a2                	ld	ra,8(sp)
    3bc00826:	0000a517          	auipc	a0,0xa
    3bc0082a:	8ca50513          	addi	a0,a0,-1846 # 3bc0a0f0 <version_string+0xe0>
    3bc0082e:	0141                	addi	sp,sp,16
    3bc00830:	b625                	j	3bc00358 <tf_printf>

000000003bc00832 <switch_rtc_mode_1st_stage>:
    3bc00832:	8082                	ret

000000003bc00834 <switch_rtc_mode_2nd_stage>:
    3bc00834:	05025737          	lui	a4,0x5025
    3bc00838:	475c                	lw	a5,12(a4)
    3bc0083a:	471c                	lw	a5,8(a4)
    3bc0083c:	f40006b7          	lui	a3,0xf4000
    3bc00840:	bff68693          	addi	a3,a3,-1025 # fffffffff3fffbff <__BL2_END__+0xffffffffb83ec7ef>
    3bc00844:	2781                	sext.w	a5,a5
    3bc00846:	8ff5                	and	a5,a5,a3
    3bc00848:	0c0006b7          	lui	a3,0xc000
    3bc0084c:	8fd5                	or	a5,a5,a3
    3bc0084e:	c71c                	sw	a5,8(a4)
    3bc00850:	4685                	li	a3,1
    3bc00852:	050267b7          	lui	a5,0x5026
    3bc00856:	48d7a623          	sw	a3,1164(a5) # 502648c <p_rom_api_cryptodma_aes_decrypt+0xc2638c>
    3bc0085a:	4807a623          	sw	zero,1164(a5)
    3bc0085e:	471c                	lw	a5,8(a4)
    3bc00860:	0c0016b7          	lui	a3,0xc001
    3bc00864:	80068693          	addi	a3,a3,-2048 # c000800 <p_rom_api_cryptodma_aes_decrypt+0x7c00700>
    3bc00868:	2781                	sext.w	a5,a5
    3bc0086a:	8fd5                	or	a5,a5,a3
    3bc0086c:	c71c                	sw	a5,8(a4)
    3bc0086e:	0000a517          	auipc	a0,0xa
    3bc00872:	89250513          	addi	a0,a0,-1902 # 3bc0a100 <version_string+0xf0>
    3bc00876:	b4cd                	j	3bc00358 <tf_printf>

000000003bc00878 <set_rtc_en_registers>:
    3bc00878:	1141                	addi	sp,sp,-16
    3bc0087a:	e022                	sd	s0,0(sp)
    3bc0087c:	05026437          	lui	s0,0x5026
    3bc00880:	0f842583          	lw	a1,248(s0) # 50260f8 <p_rom_api_cryptodma_aes_decrypt+0xc25ff8>
    3bc00884:	0000a517          	auipc	a0,0xa
    3bc00888:	89450513          	addi	a0,a0,-1900 # 3bc0a118 <version_string+0x108>
    3bc0088c:	e406                	sd	ra,8(sp)
    3bc0088e:	2581                	sext.w	a1,a1
    3bc00890:	ac9ff0ef          	jal	ra,3bc00358 <tf_printf>
    3bc00894:	0fc42583          	lw	a1,252(s0)
    3bc00898:	0000a517          	auipc	a0,0xa
    3bc0089c:	89850513          	addi	a0,a0,-1896 # 3bc0a130 <version_string+0x120>
    3bc008a0:	2581                	sext.w	a1,a1
    3bc008a2:	ab7ff0ef          	jal	ra,3bc00358 <tf_printf>
    3bc008a6:	4785                	li	a5,1
    3bc008a8:	0cf42023          	sw	a5,192(s0)
    3bc008ac:	05026737          	lui	a4,0x5026
    3bc008b0:	4685                	li	a3,1
    3bc008b2:	0c072783          	lw	a5,192(a4) # 50260c0 <p_rom_api_cryptodma_aes_decrypt+0xc25fc0>
    3bc008b6:	2781                	sext.w	a5,a5
    3bc008b8:	fed79de3          	bne	a5,a3,3bc008b2 <set_rtc_en_registers+0x3a>
    3bc008bc:	0cd72623          	sw	a3,204(a4)
    3bc008c0:	05026737          	lui	a4,0x5026
    3bc008c4:	4685                	li	a3,1
    3bc008c6:	0cc72783          	lw	a5,204(a4) # 50260cc <p_rom_api_cryptodma_aes_decrypt+0xc25fcc>
    3bc008ca:	2781                	sext.w	a5,a5
    3bc008cc:	fed79de3          	bne	a5,a3,3bc008c6 <set_rtc_en_registers+0x4e>
    3bc008d0:	0cd72423          	sw	a3,200(a4)
    3bc008d4:	05026737          	lui	a4,0x5026
    3bc008d8:	4685                	li	a3,1
    3bc008da:	0c872783          	lw	a5,200(a4) # 50260c8 <p_rom_api_cryptodma_aes_decrypt+0xc25fc8>
    3bc008de:	2781                	sext.w	a5,a5
    3bc008e0:	fed79de3          	bne	a5,a3,3bc008da <set_rtc_en_registers+0x62>
    3bc008e4:	0ed72023          	sw	a3,224(a4)
    3bc008e8:	050266b7          	lui	a3,0x5026
    3bc008ec:	4705                	li	a4,1
    3bc008ee:	0e06a783          	lw	a5,224(a3) # 50260e0 <p_rom_api_cryptodma_aes_decrypt+0xc25fe0>
    3bc008f2:	2781                	sext.w	a5,a5
    3bc008f4:	fee79de3          	bne	a5,a4,3bc008ee <set_rtc_en_registers+0x76>
    3bc008f8:	05025737          	lui	a4,0x5025
    3bc008fc:	08070613          	addi	a2,a4,128 # 5025080 <p_rom_api_cryptodma_aes_decrypt+0xc24f80>
    3bc00900:	565c                	lw	a5,44(a2)
    3bc00902:	60a2                	ld	ra,8(sp)
    3bc00904:	6402                	ld	s0,0(sp)
    3bc00906:	2781                	sext.w	a5,a5
    3bc00908:	0017e793          	ori	a5,a5,1
    3bc0090c:	d65c                	sw	a5,44(a2)
    3bc0090e:	67ad                	lui	a5,0xb
    3bc00910:	b1878793          	addi	a5,a5,-1256 # ab18 <__BSS_SIZE__+0x4f08>
    3bc00914:	c35c                	sw	a5,4(a4)
    3bc00916:	471c                	lw	a5,8(a4)
    3bc00918:	7645                	lui	a2,0xffff1
    3bc0091a:	84060613          	addi	a2,a2,-1984 # ffffffffffff0840 <__BL2_END__+0xffffffffc43dd430>
    3bc0091e:	2781                	sext.w	a5,a5
    3bc00920:	8fd1                	or	a5,a5,a2
    3bc00922:	c71c                	sw	a5,8(a4)
    3bc00924:	0d06a783          	lw	a5,208(a3)
    3bc00928:	2781                	sext.w	a5,a5
    3bc0092a:	9bed                	andi	a5,a5,-5
    3bc0092c:	0cf6a823          	sw	a5,208(a3)
    3bc00930:	0141                	addi	sp,sp,16
    3bc00932:	8082                	ret

000000003bc00934 <init_comm_info>:
    3bc00934:	7139                	addi	sp,sp,-64
    3bc00936:	0000a797          	auipc	a5,0xa
    3bc0093a:	8327b783          	ld	a5,-1998(a5) # 3bc0a168 <version_string+0x158>
    3bc0093e:	e43e                	sd	a5,8(sp)
    3bc00940:	000827b7          	lui	a5,0x82
    3bc00944:	47378793          	addi	a5,a5,1139 # 82473 <__BSS_SIZE__+0x7c863>
    3bc00948:	07b2                	slli	a5,a5,0xc
    3bc0094a:	faf1578b          	sdd	a5,a5,(sp),1,4
    3bc0094e:	f03e                	sd	a5,32(sp)
    3bc00950:	6785                	lui	a5,0x1
    3bc00952:	10178793          	addi	a5,a5,257 # 1101 <__BSS_SIZE__-0x4b0f>
    3bc00956:	d43e                	sw	a5,40(sp)
    3bc00958:	478d                	li	a5,3
    3bc0095a:	02f10723          	sb	a5,46(sp)
    3bc0095e:	fc06                	sd	ra,56(sp)
    3bc00960:	4701                	li	a4,0
    3bc00962:	4781                	li	a5,0
    3bc00964:	002c                	addi	a1,sp,8
    3bc00966:	02400693          	li	a3,36
    3bc0096a:	80b7460b          	lrbu	a2,a4,a1,0
    3bc0096e:	0705                	addi	a4,a4,1
    3bc00970:	9fb1                	addw	a5,a5,a2
    3bc00972:	3c07b78b          	extu	a5,a5,15,0
    3bc00976:	fed71ae3          	bne	a4,a3,3bc0096a <init_comm_info+0x36>
    3bc0097a:	01900537          	lui	a0,0x1900
    3bc0097e:	02800613          	li	a2,40
    3bc00982:	40050513          	addi	a0,a0,1024 # 1900400 <__BSS_SIZE__+0x18fa7f0>
    3bc00986:	02f11623          	sh	a5,44(sp)
    3bc0098a:	0e2000ef          	jal	ra,3bc00a6c <memcpy>
    3bc0098e:	70e2                	ld	ra,56(sp)
    3bc00990:	6121                	addi	sp,sp,64
    3bc00992:	8082                	ret

000000003bc00994 <dec_verify_image>:
    3bc00994:	4501                	li	a0,0
    3bc00996:	8082                	ret

000000003bc00998 <ntostr>:
    3bc00998:	00050023          	sb	zero,0(a0)
    3bc0099c:	872a                	mv	a4,a0
    3bc0099e:	00009317          	auipc	t1,0x9
    3bc009a2:	7d230313          	addi	t1,t1,2002 # 3bc0a170 <hex2ascii_data>
    3bc009a6:	4e65                	li	t3,25
    3bc009a8:	02c5f7b3          	remu	a5,a1,a2
    3bc009ac:	80f3478b          	lrbu	a5,t1,a5,0
    3bc009b0:	ce91                	beqz	a3,3bc009cc <ntostr+0x34>
    3bc009b2:	f9f7881b          	addiw	a6,a5,-97
    3bc009b6:	0ff87813          	andi	a6,a6,255
    3bc009ba:	02000893          	li	a7,32
    3bc009be:	010e7363          	bgeu	t3,a6,3bc009c4 <ntostr+0x2c>
    3bc009c2:	4881                	li	a7,0
    3bc009c4:	411787bb          	subw	a5,a5,a7
    3bc009c8:	0ff7f793          	andi	a5,a5,255
    3bc009cc:	0817578b          	sbib	a5,(a4),1,0
    3bc009d0:	02c5d7b3          	divu	a5,a1,a2
    3bc009d4:	02c5f463          	bgeu	a1,a2,3bc009fc <ntostr+0x64>
    3bc009d8:	87aa                	mv	a5,a0
    3bc009da:	86ba                	mv	a3,a4
    3bc009dc:	02d7e263          	bltu	a5,a3,3bc00a00 <ntostr+0x68>
    3bc009e0:	fff50693          	addi	a3,a0,-1
    3bc009e4:	4781                	li	a5,0
    3bc009e6:	00d76863          	bltu	a4,a3,3bc009f6 <ntostr+0x5e>
    3bc009ea:	40a707b3          	sub	a5,a4,a0
    3bc009ee:	0785                	addi	a5,a5,1
    3bc009f0:	8385                	srli	a5,a5,0x1
    3bc009f2:	40f007b3          	neg	a5,a5
    3bc009f6:	00f70533          	add	a0,a4,a5
    3bc009fa:	8082                	ret
    3bc009fc:	85be                	mv	a1,a5
    3bc009fe:	b76d                	j	3bc009a8 <ntostr+0x10>
    3bc00a00:	0006c583          	lbu	a1,0(a3)
    3bc00a04:	0007c603          	lbu	a2,0(a5)
    3bc00a08:	1817d58b          	sbia	a1,(a5),1,0
    3bc00a0c:	19f6d60b          	sbia	a2,(a3),-1,0
    3bc00a10:	b7f1                	j	3bc009dc <ntostr+0x44>

000000003bc00a12 <memset>:
    3bc00a12:	0ff5f813          	andi	a6,a1,255
    3bc00a16:	87aa                	mv	a5,a0
    3bc00a18:	0077f713          	andi	a4,a5,7
    3bc00a1c:	c719                	beqz	a4,3bc00a2a <memset+0x18>
    3bc00a1e:	e211                	bnez	a2,3bc00a22 <memset+0x10>
    3bc00a20:	8082                	ret
    3bc00a22:	1817d80b          	sbia	a6,(a5),1,0
    3bc00a26:	167d                	addi	a2,a2,-1
    3bc00a28:	bfc5                	j	3bc00a18 <memset+0x6>
    3bc00a2a:	ca05                	beqz	a2,3bc00a5a <memset+0x48>
    3bc00a2c:	00009697          	auipc	a3,0x9
    3bc00a30:	76c6b683          	ld	a3,1900(a3) # 3bc0a198 <hex2ascii_data+0x28>
    3bc00a34:	0ff5f593          	andi	a1,a1,255
    3bc00a38:	02d585b3          	mul	a1,a1,a3
    3bc00a3c:	489d                	li	a7,7
    3bc00a3e:	4681                	li	a3,0
    3bc00a40:	40d60333          	sub	t1,a2,a3
    3bc00a44:	0068ec63          	bltu	a7,t1,3bc00a5c <memset+0x4a>
    3bc00a48:	00365693          	srli	a3,a2,0x3
    3bc00a4c:	55e1                	li	a1,-8
    3bc00a4e:	06d7978b          	addsl	a5,a5,a3,3
    3bc00a52:	20b6960b          	mula	a2,a3,a1
    3bc00a56:	00e61763          	bne	a2,a4,3bc00a64 <memset+0x52>
    3bc00a5a:	8082                	ret
    3bc00a5c:	60d7d58b          	srd	a1,a5,a3,0
    3bc00a60:	06a1                	addi	a3,a3,8
    3bc00a62:	bff9                	j	3bc00a40 <memset+0x2e>
    3bc00a64:	00e7d80b          	srb	a6,a5,a4,0
    3bc00a68:	0705                	addi	a4,a4,1
    3bc00a6a:	b7f5                	j	3bc00a56 <memset+0x44>

000000003bc00a6c <memcpy>:
    3bc00a6c:	00b547b3          	xor	a5,a0,a1
    3bc00a70:	8b9d                	andi	a5,a5,7
    3bc00a72:	e7a9                	bnez	a5,3bc00abc <memcpy+0x50>
    3bc00a74:	87aa                	mv	a5,a0
    3bc00a76:	0077f713          	andi	a4,a5,7
    3bc00a7a:	cb09                	beqz	a4,3bc00a8c <memcpy+0x20>
    3bc00a7c:	e211                	bnez	a2,3bc00a80 <memcpy+0x14>
    3bc00a7e:	8082                	ret
    3bc00a80:	9815c70b          	lbuia	a4,(a1),1,0
    3bc00a84:	167d                	addi	a2,a2,-1
    3bc00a86:	1817d70b          	sbia	a4,(a5),1,0
    3bc00a8a:	b7f5                	j	3bc00a76 <memcpy+0xa>
    3bc00a8c:	469d                	li	a3,7
    3bc00a8e:	e619                	bnez	a2,3bc00a9c <memcpy+0x30>
    3bc00a90:	8082                	ret
    3bc00a92:	60e5c80b          	lrd	a6,a1,a4,0
    3bc00a96:	60e7d80b          	srd	a6,a5,a4,0
    3bc00a9a:	0721                	addi	a4,a4,8
    3bc00a9c:	40e60833          	sub	a6,a2,a4
    3bc00aa0:	ff06e9e3          	bltu	a3,a6,3bc00a92 <memcpy+0x26>
    3bc00aa4:	00365713          	srli	a4,a2,0x3
    3bc00aa8:	56e1                	li	a3,-8
    3bc00aaa:	20d7160b          	mula	a2,a4,a3
    3bc00aae:	070e                	slli	a4,a4,0x3
    3bc00ab0:	97ba                	add	a5,a5,a4
    3bc00ab2:	95ba                	add	a1,a1,a4
    3bc00ab4:	4701                	li	a4,0
    3bc00ab6:	00e61563          	bne	a2,a4,3bc00ac0 <memcpy+0x54>
    3bc00aba:	8082                	ret
    3bc00abc:	87aa                	mv	a5,a0
    3bc00abe:	bfdd                	j	3bc00ab4 <memcpy+0x48>
    3bc00ac0:	80e5c68b          	lrbu	a3,a1,a4,0
    3bc00ac4:	00e7d68b          	srb	a3,a5,a4,0
    3bc00ac8:	0705                	addi	a4,a4,1
    3bc00aca:	b7f5                	j	3bc00ab6 <memcpy+0x4a>

000000003bc00acc <memmove>:
    3bc00acc:	40b50733          	sub	a4,a0,a1
    3bc00ad0:	87aa                	mv	a5,a0
    3bc00ad2:	00c76363          	bltu	a4,a2,3bc00ad8 <memmove+0xc>
    3bc00ad6:	bf59                	j	3bc00a6c <memcpy>
    3bc00ad8:	95b2                	add	a1,a1,a2
    3bc00ada:	9532                	add	a0,a0,a2
    3bc00adc:	00f51363          	bne	a0,a5,3bc00ae2 <memmove+0x16>
    3bc00ae0:	8082                	ret
    3bc00ae2:	89f5c70b          	lbuib	a4,(a1),-1,0
    3bc00ae6:	09f5570b          	sbib	a4,(a0),-1,0
    3bc00aea:	bfcd                	j	3bc00adc <memmove+0x10>

000000003bc00aec <putchar_l>:
    3bc00aec:	0e0007b7          	lui	a5,0xe000
    3bc00af0:	4794                	lw	a3,8(a5)
    3bc00af2:	1141                	addi	sp,sp,-16
    3bc00af4:	e022                	sd	s0,0(sp)
    3bc00af6:	e406                	sd	ra,8(sp)
    3bc00af8:	6709                	lui	a4,0x2
    3bc00afa:	842a                	mv	s0,a0
    3bc00afc:	00e6e463          	bltu	a3,a4,3bc00b04 <putchar_l+0x18>
    3bc00b00:	0007a423          	sw	zero,8(a5) # e000008 <p_rom_api_cryptodma_aes_decrypt+0x9bfff08>
    3bc00b04:	0e0007b7          	lui	a5,0xe000
    3bc00b08:	4798                	lw	a4,8(a5)
    3bc00b0a:	0017069b          	addiw	a3,a4,1
    3bc00b0e:	c794                	sw	a3,8(a5)
    3bc00b10:	0c0006b7          	lui	a3,0xc000
    3bc00b14:	10e6d40b          	surb	s0,a3,a4,0
    3bc00b18:	4709                	li	a4,2
    3bc00b1a:	00b74d63          	blt	a4,a1,3bc00b34 <putchar_l+0x48>
    3bc00b1e:	0007c783          	lbu	a5,0(a5) # e000000 <p_rom_api_cryptodma_aes_decrypt+0x9bfff00>
    3bc00b22:	8b91                	andi	a5,a5,4
    3bc00b24:	eb81                	bnez	a5,3bc00b34 <putchar_l+0x48>
    3bc00b26:	0ff47513          	andi	a0,s0,255
    3bc00b2a:	f7aff0ef          	jal	ra,3bc002a4 <console_putc>
    3bc00b2e:	00055363          	bgez	a0,3bc00b34 <putchar_l+0x48>
    3bc00b32:	547d                	li	s0,-1
    3bc00b34:	60a2                	ld	ra,8(sp)
    3bc00b36:	8522                	mv	a0,s0
    3bc00b38:	6402                	ld	s0,0(sp)
    3bc00b3a:	0141                	addi	sp,sp,16
    3bc00b3c:	8082                	ret

000000003bc00b3e <strcmp>:
    3bc00b3e:	4701                	li	a4,0
    3bc00b40:	80e5478b          	lrbu	a5,a0,a4,0
    3bc00b44:	80e5c68b          	lrbu	a3,a1,a4,0
    3bc00b48:	00d78563          	beq	a5,a3,3bc00b52 <strcmp+0x14>
    3bc00b4c:	40d7853b          	subw	a0,a5,a3
    3bc00b50:	8082                	ret
    3bc00b52:	0705                	addi	a4,a4,1
    3bc00b54:	f7f5                	bnez	a5,3bc00b40 <strcmp+0x2>
    3bc00b56:	4501                	li	a0,0
    3bc00b58:	8082                	ret

000000003bc00b5a <strlen>:
    3bc00b5a:	87aa                	mv	a5,a0
    3bc00b5c:	0007c703          	lbu	a4,0(a5)
    3bc00b60:	e701                	bnez	a4,3bc00b68 <strlen+0xe>
    3bc00b62:	40a78533          	sub	a0,a5,a0
    3bc00b66:	8082                	ret
    3bc00b68:	0785                	addi	a5,a5,1
    3bc00b6a:	bfcd                	j	3bc00b5c <strlen+0x2>

000000003bc00b6c <gpio_in_value>:
    3bc00b6c:	1101                	addi	sp,sp,-32
    3bc00b6e:	00c007b7          	lui	a5,0xc00
    3bc00b72:	e822                	sd	s0,16(sp)
    3bc00b74:	e426                	sd	s1,8(sp)
    3bc00b76:	e04a                	sd	s2,0(sp)
    3bc00b78:	1c55370b          	extu	a4,a0,7,5
    3bc00b7c:	4007879b          	addiw	a5,a5,1024
    3bc00b80:	0155541b          	srliw	s0,a0,0x15
    3bc00b84:	5105390b          	extu	s2,a0,20,16
    3bc00b88:	1045348b          	extu	s1,a0,4,4
    3bc00b8c:	3c85350b          	extu	a0,a0,15,8
    3bc00b90:	9d3d                	addw	a0,a0,a5
    3bc00b92:	0025151b          	slliw	a0,a0,0x2
    3bc00b96:	ec06                	sd	ra,24(sp)
    3bc00b98:	7c05350b          	extu	a0,a0,31,0
    3bc00b9c:	c118                	sw	a4,0(a0)
    3bc00b9e:	4529                	li	a0,10
    3bc00ba0:	deaff0ef          	jal	ra,3bc0018a <udelay>
    3bc00ba4:	00447793          	andi	a5,s0,4
    3bc00ba8:	eb9d                	bnez	a5,3bc00bde <gpio_in_value+0x72>
    3bc00baa:	678d                	lui	a5,0x3
    3bc00bac:	881d                	andi	s0,s0,7
    3bc00bae:	0207879b          	addiw	a5,a5,32
    3bc00bb2:	9c3d                	addw	s0,s0,a5
    3bc00bb4:	00c4141b          	slliw	s0,s0,0xc
    3bc00bb8:	0504041b          	addiw	s0,s0,80
    3bc00bbc:	7c04340b          	extu	s0,s0,31,0
    3bc00bc0:	4008                	lw	a0,0(s0)
    3bc00bc2:	0125553b          	srlw	a0,a0,s2
    3bc00bc6:	00157793          	andi	a5,a0,1
    3bc00bca:	853e                	mv	a0,a5
    3bc00bcc:	c099                	beqz	s1,3bc00bd2 <gpio_in_value+0x66>
    3bc00bce:	0017c513          	xori	a0,a5,1
    3bc00bd2:	60e2                	ld	ra,24(sp)
    3bc00bd4:	6442                	ld	s0,16(sp)
    3bc00bd6:	64a2                	ld	s1,8(sp)
    3bc00bd8:	6902                	ld	s2,0(sp)
    3bc00bda:	6105                	addi	sp,sp,32
    3bc00bdc:	8082                	ret
    3bc00bde:	05021437          	lui	s0,0x5021
    3bc00be2:	05040413          	addi	s0,s0,80 # 5021050 <p_rom_api_cryptodma_aes_decrypt+0xc20f50>
    3bc00be6:	bfd9                	j	3bc00bbc <gpio_in_value+0x50>

000000003bc00be8 <usb_id_det>:
    3bc00be8:	030507b7          	lui	a5,0x3050
    3bc00bec:	1047a783          	lw	a5,260(a5) # 3050104 <__BSS_SIZE__+0x304a4f4>
    3bc00bf0:	0007851b          	sext.w	a0,a5
    3bc00bf4:	8b91                	andi	a5,a5,4
    3bc00bf6:	c391                	beqz	a5,3bc00bfa <usb_id_det+0x12>
    3bc00bf8:	bf95                	j	3bc00b6c <gpio_in_value>
    3bc00bfa:	030007b7          	lui	a5,0x3000
    3bc00bfe:	43c8                	lw	a0,4(a5)
    3bc00c00:	2085350b          	extu	a0,a0,8,8
    3bc00c04:	8082                	ret

000000003bc00c06 <read_time_ms>:
    3bc00c06:	1141                	addi	sp,sp,-16
    3bc00c08:	e406                	sd	ra,8(sp)
    3bc00c0a:	e02ff0ef          	jal	ra,3bc0020c <read_count_tick>
    3bc00c0e:	60a2                	ld	ra,8(sp)
    3bc00c10:	3e75051b          	addiw	a0,a0,999
    3bc00c14:	3e800793          	li	a5,1000
    3bc00c18:	02f5553b          	divuw	a0,a0,a5
    3bc00c1c:	0141                	addi	sp,sp,16
    3bc00c1e:	8082                	ret

000000003bc00c20 <load_image_by_usb>:
    3bc00c20:	7179                	addi	sp,sp,-48
    3bc00c22:	8732                	mv	a4,a2
    3bc00c24:	2601                	sext.w	a2,a2
    3bc00c26:	f022                	sd	s0,32(sp)
    3bc00c28:	ec26                	sd	s1,24(sp)
    3bc00c2a:	e03a                	sd	a4,0(sp)
    3bc00c2c:	f406                	sd	ra,40(sp)
    3bc00c2e:	84aa                	mv	s1,a0
    3bc00c30:	e42e                	sd	a1,8(sp)
    3bc00c32:	295030ef          	jal	ra,3bc046c6 <usb_polling>
    3bc00c36:	4785                	li	a5,1
    3bc00c38:	f8d1470b          	ldd	a4,a3,(sp),0,4
    3bc00c3c:	5479                	li	s0,-2
    3bc00c3e:	00f51363          	bne	a0,a5,3bc00c44 <load_image_by_usb+0x24>
    3bc00c42:	4401                	li	s0,0
    3bc00c44:	8626                	mv	a2,s1
    3bc00c46:	85a2                	mv	a1,s0
    3bc00c48:	00009517          	auipc	a0,0x9
    3bc00c4c:	55850513          	addi	a0,a0,1368 # 3bc0a1a0 <hex2ascii_data+0x30>
    3bc00c50:	f08ff0ef          	jal	ra,3bc00358 <tf_printf>
    3bc00c54:	70a2                	ld	ra,40(sp)
    3bc00c56:	8522                	mv	a0,s0
    3bc00c58:	7402                	ld	s0,32(sp)
    3bc00c5a:	64e2                	ld	s1,24(sp)
    3bc00c5c:	6145                	addi	sp,sp,48
    3bc00c5e:	8082                	ret

000000003bc00c60 <load_param2>:
    3bc00c60:	1101                	addi	sp,sp,-32
    3bc00c62:	0000d617          	auipc	a2,0xd
    3bc00c66:	b9e60613          	addi	a2,a2,-1122 # 3bc0d800 <__BSS_START__>
    3bc00c6a:	e42a                	sd	a0,8(sp)
    3bc00c6c:	6585                	lui	a1,0x1
    3bc00c6e:	00009517          	auipc	a0,0x9
    3bc00c72:	55250513          	addi	a0,a0,1362 # 3bc0a1c0 <hex2ascii_data+0x50>
    3bc00c76:	ec06                	sd	ra,24(sp)
    3bc00c78:	e822                	sd	s0,16(sp)
    3bc00c7a:	edeff0ef          	jal	ra,3bc00358 <tf_printf>
    3bc00c7e:	c87ff097          	auipc	ra,0xc87ff
    3bc00c82:	3a2080e7          	jalr	930(ra) # 4400020 <p_rom_api_get_boot_src>
    3bc00c86:	67b5                	lui	a5,0xd
    3bc00c88:	2501                	sext.w	a0,a0
    3bc00c8a:	ea378793          	addi	a5,a5,-349 # cea3 <__BSS_SIZE__+0x7293>
    3bc00c8e:	66a2                	ld	a3,8(sp)
    3bc00c90:	6605                	lui	a2,0x1
    3bc00c92:	04f51463          	bne	a0,a5,3bc00cda <load_param2+0x7a>
    3bc00c96:	3c0027b7          	lui	a5,0x3c002
    3bc00c9a:	0e07a583          	lw	a1,224(a5) # 3c0020e0 <__BL2_END__+0x3eecd0>
    3bc00c9e:	0000d517          	auipc	a0,0xd
    3bc00ca2:	b6250513          	addi	a0,a0,-1182 # 3bc0d800 <__BSS_START__>
    3bc00ca6:	f7bff0ef          	jal	ra,3bc00c20 <load_image_by_usb>
    3bc00caa:	02054463          	bltz	a0,3bc00cd2 <load_param2+0x72>
    3bc00cae:	0000d417          	auipc	s0,0xd
    3bc00cb2:	b5240413          	addi	s0,s0,-1198 # 3bc0d800 <__BSS_START__>
    3bc00cb6:	6018                	ld	a4,0(s0)
    3bc00cb8:	0000a797          	auipc	a5,0xa
    3bc00cbc:	9607b783          	ld	a5,-1696(a5) # 3bc0a618 <hex2ascii_data+0x4a8>
    3bc00cc0:	02f70a63          	beq	a4,a5,3bc00cf4 <load_param2+0x94>
    3bc00cc4:	00009517          	auipc	a0,0x9
    3bc00cc8:	51450513          	addi	a0,a0,1300 # 3bc0a1d8 <hex2ascii_data+0x68>
    3bc00ccc:	e8cff0ef          	jal	ra,3bc00358 <tf_printf>
    3bc00cd0:	557d                	li	a0,-1
    3bc00cd2:	60e2                	ld	ra,24(sp)
    3bc00cd4:	6442                	ld	s0,16(sp)
    3bc00cd6:	6105                	addi	sp,sp,32
    3bc00cd8:	8082                	ret
    3bc00cda:	3c0027b7          	lui	a5,0x3c002
    3bc00cde:	0e07a583          	lw	a1,224(a5) # 3c0020e0 <__BL2_END__+0x3eecd0>
    3bc00ce2:	0000d517          	auipc	a0,0xd
    3bc00ce6:	b1e50513          	addi	a0,a0,-1250 # 3bc0d800 <__BSS_START__>
    3bc00cea:	c87ff097          	auipc	ra,0xc87ff
    3bc00cee:	376080e7          	jalr	886(ra) # 4400060 <p_rom_api_load_image>
    3bc00cf2:	bf65                	j	3bc00caa <load_param2+0x4a>
    3bc00cf4:	6585                	lui	a1,0x1
    3bc00cf6:	15d1                	addi	a1,a1,-12
    3bc00cf8:	0000d517          	auipc	a0,0xd
    3bc00cfc:	b1450513          	addi	a0,a0,-1260 # 3bc0d80c <__BSS_START__+0xc>
    3bc00d00:	c87ff097          	auipc	ra,0xc87ff
    3bc00d04:	3a0080e7          	jalr	928(ra) # 44000a0 <p_rom_api_image_crc>
    3bc00d08:	4410                	lw	a2,8(s0)
    3bc00d0a:	0005059b          	sext.w	a1,a0
    3bc00d0e:	00b60963          	beq	a2,a1,3bc00d20 <load_param2+0xc0>
    3bc00d12:	00009517          	auipc	a0,0x9
    3bc00d16:	4de50513          	addi	a0,a0,1246 # 3bc0a1f0 <hex2ascii_data+0x80>
    3bc00d1a:	e3eff0ef          	jal	ra,3bc00358 <tf_printf>
    3bc00d1e:	bf4d                	j	3bc00cd0 <load_param2+0x70>
    3bc00d20:	00009517          	auipc	a0,0x9
    3bc00d24:	4f050513          	addi	a0,a0,1264 # 3bc0a210 <hex2ascii_data+0xa0>
    3bc00d28:	e30ff0ef          	jal	ra,3bc00358 <tf_printf>
    3bc00d2c:	4501                	li	a0,0
    3bc00d2e:	b755                	j	3bc00cd2 <load_param2+0x72>

000000003bc00d30 <load_ddr_param>:
    3bc00d30:	1101                	addi	sp,sp,-32
    3bc00d32:	e822                	sd	s0,16(sp)
    3bc00d34:	0000d417          	auipc	s0,0xd
    3bc00d38:	acc40413          	addi	s0,s0,-1332 # 3bc0d800 <__BSS_START__>
    3bc00d3c:	4c10                	lw	a2,24(s0)
    3bc00d3e:	484c                	lw	a1,20(s0)
    3bc00d40:	e42a                	sd	a0,8(sp)
    3bc00d42:	00009517          	auipc	a0,0x9
    3bc00d46:	4d650513          	addi	a0,a0,1238 # 3bc0a218 <hex2ascii_data+0xa8>
    3bc00d4a:	ec06                	sd	ra,24(sp)
    3bc00d4c:	e0cff0ef          	jal	ra,3bc00358 <tf_printf>
    3bc00d50:	4c18                	lw	a4,24(s0)
    3bc00d52:	6791                	lui	a5,0x4
    3bc00d54:	66a2                	ld	a3,8(sp)
    3bc00d56:	00f76363          	bltu	a4,a5,3bc00d5c <load_ddr_param+0x2c>
    3bc00d5a:	cc1c                	sw	a5,24(s0)
    3bc00d5c:	e436                	sd	a3,8(sp)
    3bc00d5e:	c87ff097          	auipc	ra,0xc87ff
    3bc00d62:	2c2080e7          	jalr	706(ra) # 4400020 <p_rom_api_get_boot_src>
    3bc00d66:	67b5                	lui	a5,0xd
    3bc00d68:	2501                	sext.w	a0,a0
    3bc00d6a:	ea378793          	addi	a5,a5,-349 # cea3 <__BSS_SIZE__+0x7293>
    3bc00d6e:	66a2                	ld	a3,8(sp)
    3bc00d70:	01846603          	lwu	a2,24(s0)
    3bc00d74:	484c                	lw	a1,20(s0)
    3bc00d76:	04f51363          	bne	a0,a5,3bc00dbc <load_ddr_param+0x8c>
    3bc00d7a:	0000e517          	auipc	a0,0xe
    3bc00d7e:	a8650513          	addi	a0,a0,-1402 # 3bc0e800 <sram_union_buf>
    3bc00d82:	e9fff0ef          	jal	ra,3bc00c20 <load_image_by_usb>
    3bc00d86:	02054763          	bltz	a0,3bc00db4 <load_ddr_param+0x84>
    3bc00d8a:	4c0c                	lw	a1,24(s0)
    3bc00d8c:	0000e517          	auipc	a0,0xe
    3bc00d90:	a7450513          	addi	a0,a0,-1420 # 3bc0e800 <sram_union_buf>
    3bc00d94:	c87ff097          	auipc	ra,0xc87ff
    3bc00d98:	30c080e7          	jalr	780(ra) # 44000a0 <p_rom_api_image_crc>
    3bc00d9c:	4810                	lw	a2,16(s0)
    3bc00d9e:	0005059b          	sext.w	a1,a0
    3bc00da2:	02b60663          	beq	a2,a1,3bc00dce <load_ddr_param+0x9e>
    3bc00da6:	00009517          	auipc	a0,0x9
    3bc00daa:	48a50513          	addi	a0,a0,1162 # 3bc0a230 <hex2ascii_data+0xc0>
    3bc00dae:	daaff0ef          	jal	ra,3bc00358 <tf_printf>
    3bc00db2:	557d                	li	a0,-1
    3bc00db4:	60e2                	ld	ra,24(sp)
    3bc00db6:	6442                	ld	s0,16(sp)
    3bc00db8:	6105                	addi	sp,sp,32
    3bc00dba:	8082                	ret
    3bc00dbc:	0000e517          	auipc	a0,0xe
    3bc00dc0:	a4450513          	addi	a0,a0,-1468 # 3bc0e800 <sram_union_buf>
    3bc00dc4:	c87ff097          	auipc	ra,0xc87ff
    3bc00dc8:	29c080e7          	jalr	668(ra) # 4400060 <p_rom_api_load_image>
    3bc00dcc:	bf6d                	j	3bc00d86 <load_ddr_param+0x56>
    3bc00dce:	00009517          	auipc	a0,0x9
    3bc00dd2:	48a50513          	addi	a0,a0,1162 # 3bc0a258 <hex2ascii_data+0xe8>
    3bc00dd6:	d82ff0ef          	jal	ra,3bc00358 <tf_printf>
    3bc00dda:	4501                	li	a0,0
    3bc00ddc:	bfe1                	j	3bc00db4 <load_ddr_param+0x84>

000000003bc00dde <load_ddr>:
    3bc00dde:	7179                	addi	sp,sp,-48
    3bc00de0:	ec26                	sd	s1,24(sp)
    3bc00de2:	74cd                	lui	s1,0xffff3
    3bc00de4:	e84a                	sd	s2,16(sp)
    3bc00de6:	e44e                	sd	s3,8(sp)
    3bc00de8:	e052                	sd	s4,0(sp)
    3bc00dea:	f406                	sd	ra,40(sp)
    3bc00dec:	f022                	sd	s0,32(sp)
    3bc00dee:	1604849b          	addiw	s1,s1,352
    3bc00df2:	4995                	li	s3,5
    3bc00df4:	4a05                	li	s4,1
    3bc00df6:	00009917          	auipc	s2,0x9
    3bc00dfa:	46a90913          	addi	s2,s2,1130 # 3bc0a260 <hex2ascii_data+0xf0>
    3bc00dfe:	4401                	li	s0,0
    3bc00e00:	c87ff097          	auipc	ra,0xc87ff
    3bc00e04:	2c0080e7          	jalr	704(ra) # 44000c0 <p_rom_api_get_number_of_retries>
    3bc00e08:	00a45e63          	bge	s0,a0,3bc00e24 <load_ddr+0x46>
    3bc00e0c:	8522                	mv	a0,s0
    3bc00e0e:	e53ff0ef          	jal	ra,3bc00c60 <load_param2>
    3bc00e12:	00055463          	bgez	a0,3bc00e1a <load_ddr+0x3c>
    3bc00e16:	2405                	addiw	s0,s0,1
    3bc00e18:	b7e5                	j	3bc00e00 <load_ddr+0x22>
    3bc00e1a:	8522                	mv	a0,s0
    3bc00e1c:	f15ff0ef          	jal	ra,3bc00d30 <load_ddr_param>
    3bc00e20:	fe054be3          	bltz	a0,3bc00e16 <load_ddr+0x38>
    3bc00e24:	c87ff097          	auipc	ra,0xc87ff
    3bc00e28:	29c080e7          	jalr	668(ra) # 44000c0 <p_rom_api_get_number_of_retries>
    3bc00e2c:	02a45f63          	bge	s0,a0,3bc00e6a <load_ddr+0x8c>
    3bc00e30:	dd7ff0ef          	jal	ra,3bc00c06 <read_time_ms>
    3bc00e34:	0000a417          	auipc	s0,0xa
    3bc00e38:	60c40413          	addi	s0,s0,1548 # 3bc0b440 <time_records>
    3bc00e3c:	601c                	ld	a5,0(s0)
    3bc00e3e:	00a79123          	sh	a0,2(a5)
    3bc00e42:	0000e517          	auipc	a0,0xe
    3bc00e46:	9be50513          	addi	a0,a0,-1602 # 3bc0e800 <sram_union_buf>
    3bc00e4a:	34a070ef          	jal	ra,3bc08194 <ddr_init>
    3bc00e4e:	db9ff0ef          	jal	ra,3bc00c06 <read_time_ms>
    3bc00e52:	601c                	ld	a5,0(s0)
    3bc00e54:	70a2                	ld	ra,40(sp)
    3bc00e56:	7402                	ld	s0,32(sp)
    3bc00e58:	00a79223          	sh	a0,4(a5)
    3bc00e5c:	64e2                	ld	s1,24(sp)
    3bc00e5e:	6942                	ld	s2,16(sp)
    3bc00e60:	69a2                	ld	s3,8(sp)
    3bc00e62:	6a02                	ld	s4,0(sp)
    3bc00e64:	4501                	li	a0,0
    3bc00e66:	6145                	addi	sp,sp,48
    3bc00e68:	8082                	ret
    3bc00e6a:	c87ff097          	auipc	ra,0xc87ff
    3bc00e6e:	1b6080e7          	jalr	438(ra) # 4400020 <p_rom_api_get_boot_src>
    3bc00e72:	9d25                	addw	a0,a0,s1
    3bc00e74:	85a2                	mv	a1,s0
    3bc00e76:	00a9ef63          	bltu	s3,a0,3bc00e94 <load_ddr+0xb6>
    3bc00e7a:	00aa1533          	sll	a0,s4,a0
    3bc00e7e:	02957513          	andi	a0,a0,41
    3bc00e82:	c909                	beqz	a0,3bc00e94 <load_ddr+0xb6>
    3bc00e84:	854a                	mv	a0,s2
    3bc00e86:	cd2ff0ef          	jal	ra,3bc00358 <tf_printf>
    3bc00e8a:	c87ff097          	auipc	ra,0xc87ff
    3bc00e8e:	1f6080e7          	jalr	502(ra) # 4400080 <p_rom_api_flash_init>
    3bc00e92:	b7b5                	j	3bc00dfe <load_ddr+0x20>
    3bc00e94:	00009517          	auipc	a0,0x9
    3bc00e98:	3f450513          	addi	a0,a0,1012 # 3bc0a288 <hex2ascii_data+0x118>
    3bc00e9c:	cbcff0ef          	jal	ra,3bc00358 <tf_printf>
    3bc00ea0:	f1aff0ef          	jal	ra,3bc005ba <panic_handler>

000000003bc00ea4 <load_blcp_2nd>:
    3bc00ea4:	7179                	addi	sp,sp,-48
    3bc00ea6:	e84a                	sd	s2,16(sp)
    3bc00ea8:	0000a917          	auipc	s2,0xa
    3bc00eac:	59890913          	addi	s2,s2,1432 # 3bc0b440 <time_records>
    3bc00eb0:	00093783          	ld	a5,0(s2)
    3bc00eb4:	f022                	sd	s0,32(sp)
    3bc00eb6:	0000d417          	auipc	s0,0xd
    3bc00eba:	94a40413          	addi	s0,s0,-1718 # 3bc0d800 <__BSS_START__>
    3bc00ebe:	0047d703          	lhu	a4,4(a5)
    3bc00ec2:	5414                	lw	a3,40(s0)
    3bc00ec4:	5450                	lw	a2,44(s0)
    3bc00ec6:	504c                	lw	a1,36(s0)
    3bc00ec8:	ec26                	sd	s1,24(sp)
    3bc00eca:	f406                	sd	ra,40(sp)
    3bc00ecc:	e44e                	sd	s3,8(sp)
    3bc00ece:	00e79323          	sh	a4,6(a5)
    3bc00ed2:	84aa                	mv	s1,a0
    3bc00ed4:	00009517          	auipc	a0,0x9
    3bc00ed8:	3dc50513          	addi	a0,a0,988 # 3bc0a2b0 <hex2ascii_data+0x140>
    3bc00edc:	c7cff0ef          	jal	ra,3bc00358 <tf_printf>
    3bc00ee0:	545c                	lw	a5,44(s0)
    3bc00ee2:	00009517          	auipc	a0,0x9
    3bc00ee6:	3e650513          	addi	a0,a0,998 # 3bc0a2c8 <hex2ascii_data+0x158>
    3bc00eea:	10078763          	beqz	a5,3bc00ff8 <load_blcp_2nd+0x154>
    3bc00eee:	800006b7          	lui	a3,0x80000
    3bc00ef2:	00f6863b          	addw	a2,a3,a5
    3bc00ef6:	04000737          	lui	a4,0x4000
    3bc00efa:	00e66b63          	bltu	a2,a4,3bc00f10 <load_blcp_2nd+0x6c>
    3bc00efe:	85be                	mv	a1,a5
    3bc00f00:	00009517          	auipc	a0,0x9
    3bc00f04:	3e050513          	addi	a0,a0,992 # 3bc0a2e0 <hex2ascii_data+0x170>
    3bc00f08:	c50ff0ef          	jal	ra,3bc00358 <tf_printf>
    3bc00f0c:	eaeff0ef          	jal	ra,3bc005ba <panic_handler>
    3bc00f10:	540c                	lw	a1,40(s0)
    3bc00f12:	9fad                	addw	a5,a5,a1
    3bc00f14:	9fb5                	addw	a5,a5,a3
    3bc00f16:	00e7e763          	bltu	a5,a4,3bc00f24 <load_blcp_2nd+0x80>
    3bc00f1a:	00009517          	auipc	a0,0x9
    3bc00f1e:	3f650513          	addi	a0,a0,1014 # 3bc0a310 <hex2ascii_data+0x1a0>
    3bc00f22:	b7dd                	j	3bc00f08 <load_blcp_2nd+0x64>
    3bc00f24:	c87ff097          	auipc	ra,0xc87ff
    3bc00f28:	0fc080e7          	jalr	252(ra) # 4400020 <p_rom_api_get_boot_src>
    3bc00f2c:	67b5                	lui	a5,0xd
    3bc00f2e:	0005071b          	sext.w	a4,a0
    3bc00f32:	ea378793          	addi	a5,a5,-349 # cea3 <__BSS_SIZE__+0x7293>
    3bc00f36:	504c                	lw	a1,36(s0)
    3bc00f38:	02846603          	lwu	a2,40(s0)
    3bc00f3c:	02c46503          	lwu	a0,44(s0)
    3bc00f40:	86a6                	mv	a3,s1
    3bc00f42:	04f71263          	bne	a4,a5,3bc00f86 <load_blcp_2nd+0xe2>
    3bc00f46:	cdbff0ef          	jal	ra,3bc00c20 <load_image_by_usb>
    3bc00f4a:	84aa                	mv	s1,a0
    3bc00f4c:	02054563          	bltz	a0,3bc00f76 <load_blcp_2nd+0xd2>
    3bc00f50:	540c                	lw	a1,40(s0)
    3bc00f52:	02c46503          	lwu	a0,44(s0)
    3bc00f56:	c87ff097          	auipc	ra,0xc87ff
    3bc00f5a:	14a080e7          	jalr	330(ra) # 44000a0 <p_rom_api_image_crc>
    3bc00f5e:	5010                	lw	a2,32(s0)
    3bc00f60:	0005059b          	sext.w	a1,a0
    3bc00f64:	02b60663          	beq	a2,a1,3bc00f90 <load_blcp_2nd+0xec>
    3bc00f68:	00009517          	auipc	a0,0x9
    3bc00f6c:	3d850513          	addi	a0,a0,984 # 3bc0a340 <hex2ascii_data+0x1d0>
    3bc00f70:	be8ff0ef          	jal	ra,3bc00358 <tf_printf>
    3bc00f74:	54fd                	li	s1,-1
    3bc00f76:	70a2                	ld	ra,40(sp)
    3bc00f78:	7402                	ld	s0,32(sp)
    3bc00f7a:	6942                	ld	s2,16(sp)
    3bc00f7c:	69a2                	ld	s3,8(sp)
    3bc00f7e:	8526                	mv	a0,s1
    3bc00f80:	64e2                	ld	s1,24(sp)
    3bc00f82:	6145                	addi	sp,sp,48
    3bc00f84:	8082                	ret
    3bc00f86:	c87ff097          	auipc	ra,0xc87ff
    3bc00f8a:	0da080e7          	jalr	218(ra) # 4400060 <p_rom_api_load_image>
    3bc00f8e:	bf75                	j	3bc00f4a <load_blcp_2nd+0xa6>
    3bc00f90:	02846583          	lwu	a1,40(s0)
    3bc00f94:	02c46503          	lwu	a0,44(s0)
    3bc00f98:	3c0026b7          	lui	a3,0x3c002
    3bc00f9c:	4601                	li	a2,0
    3bc00f9e:	9f7ff0ef          	jal	ra,3bc00994 <dec_verify_image>
    3bc00fa2:	84aa                	mv	s1,a0
    3bc00fa4:	00055a63          	bgez	a0,3bc00fb8 <load_blcp_2nd+0x114>
    3bc00fa8:	85aa                	mv	a1,a0
    3bc00faa:	00009517          	auipc	a0,0x9
    3bc00fae:	3be50513          	addi	a0,a0,958 # 3bc0a368 <hex2ascii_data+0x1f8>
    3bc00fb2:	ba6ff0ef          	jal	ra,3bc00358 <tf_printf>
    3bc00fb6:	b7c1                	j	3bc00f76 <load_blcp_2nd+0xd2>
    3bc00fb8:	02846583          	lwu	a1,40(s0)
    3bc00fbc:	02c46503          	lwu	a0,44(s0)
    3bc00fc0:	0e0009b7          	lui	s3,0xe000
    3bc00fc4:	992ff0ef          	jal	ra,3bc00156 <flush_dcache_range>
    3bc00fc8:	07c9a483          	lw	s1,124(s3) # e00007c <p_rom_api_cryptodma_aes_decrypt+0x9bfff7c>
    3bc00fcc:	969ff0ef          	jal	ra,3bc00934 <init_comm_info>
    3bc00fd0:	c37ff0ef          	jal	ra,3bc00c06 <read_time_ms>
    3bc00fd4:	00093783          	ld	a5,0(s2)
    3bc00fd8:	2481                	sext.w	s1,s1
    3bc00fda:	00a79323          	sh	a0,6(a5)
    3bc00fde:	0abc17b7          	lui	a5,0xabc1
    3bc00fe2:	def78793          	addi	a5,a5,-529 # abc0def <p_rom_api_cryptodma_aes_decrypt+0x67c0cef>
    3bc00fe6:	00f49d63          	bne	s1,a5,3bc01000 <load_blcp_2nd+0x15c>
    3bc00fea:	545c                	lw	a5,44(s0)
    3bc00fec:	06f9ae23          	sw	a5,124(s3)
    3bc00ff0:	00009517          	auipc	a0,0x9
    3bc00ff4:	39850513          	addi	a0,a0,920 # 3bc0a388 <hex2ascii_data+0x218>
    3bc00ff8:	b60ff0ef          	jal	ra,3bc00358 <tf_printf>
    3bc00ffc:	4481                	li	s1,0
    3bc00ffe:	bfa5                	j	3bc00f76 <load_blcp_2nd+0xd2>
    3bc01000:	02c46503          	lwu	a0,44(s0)
    3bc01004:	de8ff0ef          	jal	ra,3bc005ec <reset_c906l>
    3bc01008:	b7e5                	j	3bc00ff0 <load_blcp_2nd+0x14c>

000000003bc0100a <load_monitor>:
    3bc0100a:	1101                	addi	sp,sp,-32
    3bc0100c:	e822                	sd	s0,16(sp)
    3bc0100e:	0000c417          	auipc	s0,0xc
    3bc01012:	7f240413          	addi	s0,s0,2034 # 3bc0d800 <__BSS_START__>
    3bc01016:	e04a                	sd	s2,0(sp)
    3bc01018:	5c14                	lw	a3,56(s0)
    3bc0101a:	5c50                	lw	a2,60(s0)
    3bc0101c:	892e                	mv	s2,a1
    3bc0101e:	584c                	lw	a1,52(s0)
    3bc01020:	e426                	sd	s1,8(sp)
    3bc01022:	84aa                	mv	s1,a0
    3bc01024:	00009517          	auipc	a0,0x9
    3bc01028:	36c50513          	addi	a0,a0,876 # 3bc0a390 <hex2ascii_data+0x220>
    3bc0102c:	ec06                	sd	ra,24(sp)
    3bc0102e:	b2aff0ef          	jal	ra,3bc00358 <tf_printf>
    3bc01032:	5c5c                	lw	a5,60(s0)
    3bc01034:	eb89                	bnez	a5,3bc01046 <load_monitor+0x3c>
    3bc01036:	00009517          	auipc	a0,0x9
    3bc0103a:	37250513          	addi	a0,a0,882 # 3bc0a3a8 <hex2ascii_data+0x238>
    3bc0103e:	b1aff0ef          	jal	ra,3bc00358 <tf_printf>
    3bc01042:	4481                	li	s1,0
    3bc01044:	a069                	j	3bc010ce <load_monitor+0xc4>
    3bc01046:	800006b7          	lui	a3,0x80000
    3bc0104a:	00f6863b          	addw	a2,a3,a5
    3bc0104e:	04000737          	lui	a4,0x4000
    3bc01052:	00e66b63          	bltu	a2,a4,3bc01068 <load_monitor+0x5e>
    3bc01056:	85be                	mv	a1,a5
    3bc01058:	00009517          	auipc	a0,0x9
    3bc0105c:	36050513          	addi	a0,a0,864 # 3bc0a3b8 <hex2ascii_data+0x248>
    3bc01060:	af8ff0ef          	jal	ra,3bc00358 <tf_printf>
    3bc01064:	d56ff0ef          	jal	ra,3bc005ba <panic_handler>
    3bc01068:	5c0c                	lw	a1,56(s0)
    3bc0106a:	9fad                	addw	a5,a5,a1
    3bc0106c:	9fb5                	addw	a5,a5,a3
    3bc0106e:	00e7e763          	bltu	a5,a4,3bc0107c <load_monitor+0x72>
    3bc01072:	00009517          	auipc	a0,0x9
    3bc01076:	37650513          	addi	a0,a0,886 # 3bc0a3e8 <hex2ascii_data+0x278>
    3bc0107a:	b7dd                	j	3bc01060 <load_monitor+0x56>
    3bc0107c:	c87ff097          	auipc	ra,0xc87ff
    3bc01080:	fa4080e7          	jalr	-92(ra) # 4400020 <p_rom_api_get_boot_src>
    3bc01084:	67b5                	lui	a5,0xd
    3bc01086:	0005071b          	sext.w	a4,a0
    3bc0108a:	ea378793          	addi	a5,a5,-349 # cea3 <__BSS_SIZE__+0x7293>
    3bc0108e:	584c                	lw	a1,52(s0)
    3bc01090:	03846603          	lwu	a2,56(s0)
    3bc01094:	03c46503          	lwu	a0,60(s0)
    3bc01098:	86a6                	mv	a3,s1
    3bc0109a:	04f71163          	bne	a4,a5,3bc010dc <load_monitor+0xd2>
    3bc0109e:	b83ff0ef          	jal	ra,3bc00c20 <load_image_by_usb>
    3bc010a2:	84aa                	mv	s1,a0
    3bc010a4:	02054563          	bltz	a0,3bc010ce <load_monitor+0xc4>
    3bc010a8:	5c0c                	lw	a1,56(s0)
    3bc010aa:	03c46503          	lwu	a0,60(s0)
    3bc010ae:	c87ff097          	auipc	ra,0xc87ff
    3bc010b2:	ff2080e7          	jalr	-14(ra) # 44000a0 <p_rom_api_image_crc>
    3bc010b6:	5810                	lw	a2,48(s0)
    3bc010b8:	0005059b          	sext.w	a1,a0
    3bc010bc:	02b60563          	beq	a2,a1,3bc010e6 <load_monitor+0xdc>
    3bc010c0:	00009517          	auipc	a0,0x9
    3bc010c4:	35850513          	addi	a0,a0,856 # 3bc0a418 <hex2ascii_data+0x2a8>
    3bc010c8:	a90ff0ef          	jal	ra,3bc00358 <tf_printf>
    3bc010cc:	54fd                	li	s1,-1
    3bc010ce:	60e2                	ld	ra,24(sp)
    3bc010d0:	6442                	ld	s0,16(sp)
    3bc010d2:	6902                	ld	s2,0(sp)
    3bc010d4:	8526                	mv	a0,s1
    3bc010d6:	64a2                	ld	s1,8(sp)
    3bc010d8:	6105                	addi	sp,sp,32
    3bc010da:	8082                	ret
    3bc010dc:	c87ff097          	auipc	ra,0xc87ff
    3bc010e0:	f84080e7          	jalr	-124(ra) # 4400060 <p_rom_api_load_image>
    3bc010e4:	bf7d                	j	3bc010a2 <load_monitor+0x98>
    3bc010e6:	03846583          	lwu	a1,56(s0)
    3bc010ea:	03c46503          	lwu	a0,60(s0)
    3bc010ee:	3c0026b7          	lui	a3,0x3c002
    3bc010f2:	4601                	li	a2,0
    3bc010f4:	8a1ff0ef          	jal	ra,3bc00994 <dec_verify_image>
    3bc010f8:	84aa                	mv	s1,a0
    3bc010fa:	00055a63          	bgez	a0,3bc0110e <load_monitor+0x104>
    3bc010fe:	85aa                	mv	a1,a0
    3bc01100:	00009517          	auipc	a0,0x9
    3bc01104:	33850513          	addi	a0,a0,824 # 3bc0a438 <hex2ascii_data+0x2c8>
    3bc01108:	a50ff0ef          	jal	ra,3bc00358 <tf_printf>
    3bc0110c:	b7c9                	j	3bc010ce <load_monitor+0xc4>
    3bc0110e:	03846583          	lwu	a1,56(s0)
    3bc01112:	03c46503          	lwu	a0,60(s0)
    3bc01116:	840ff0ef          	jal	ra,3bc00156 <flush_dcache_range>
    3bc0111a:	00009517          	auipc	a0,0x9
    3bc0111e:	33e50513          	addi	a0,a0,830 # 3bc0a458 <hex2ascii_data+0x2e8>
    3bc01122:	a36ff0ef          	jal	ra,3bc00358 <tf_printf>
    3bc01126:	03c46783          	lwu	a5,60(s0)
    3bc0112a:	00f93023          	sd	a5,0(s2)
    3bc0112e:	bf11                	j	3bc01042 <load_monitor+0x38>

000000003bc01130 <load_loader_2nd>:
    3bc01130:	715d                	addi	sp,sp,-80
    3bc01132:	f44e                	sd	s3,40(sp)
    3bc01134:	0000c997          	auipc	s3,0xc
    3bc01138:	6cc98993          	addi	s3,s3,1740 # 3bc0d800 <__BSS_START__>
    3bc0113c:	e85a                	sd	s6,16(sp)
    3bc0113e:	8b2e                	mv	s6,a1
    3bc01140:	0449a583          	lw	a1,68(s3)
    3bc01144:	ec56                	sd	s5,24(sp)
    3bc01146:	8aaa                	mv	s5,a0
    3bc01148:	00009517          	auipc	a0,0x9
    3bc0114c:	31850513          	addi	a0,a0,792 # 3bc0a460 <hex2ascii_data+0x2f0>
    3bc01150:	e486                	sd	ra,72(sp)
    3bc01152:	e0a2                	sd	s0,64(sp)
    3bc01154:	fc26                	sd	s1,56(sp)
    3bc01156:	f84a                	sd	s2,48(sp)
    3bc01158:	f052                	sd	s4,32(sp)
    3bc0115a:	9feff0ef          	jal	ra,3bc00358 <tf_printf>
    3bc0115e:	c87ff097          	auipc	ra,0xc87ff
    3bc01162:	ec2080e7          	jalr	-318(ra) # 4400020 <p_rom_api_get_boot_src>
    3bc01166:	67b5                	lui	a5,0xd
    3bc01168:	2501                	sext.w	a0,a0
    3bc0116a:	ea378793          	addi	a5,a5,-349 # cea3 <__BSS_SIZE__+0x7293>
    3bc0116e:	0449a583          	lw	a1,68(s3)
    3bc01172:	86d6                	mv	a3,s5
    3bc01174:	20000613          	li	a2,512
    3bc01178:	02f51663          	bne	a0,a5,3bc011a4 <load_loader_2nd+0x74>
    3bc0117c:	0000d517          	auipc	a0,0xd
    3bc01180:	68450513          	addi	a0,a0,1668 # 3bc0e800 <sram_union_buf>
    3bc01184:	a9dff0ef          	jal	ra,3bc00c20 <load_image_by_usb>
    3bc01188:	02055763          	bgez	a0,3bc011b6 <load_loader_2nd+0x86>
    3bc0118c:	59fd                	li	s3,-1
    3bc0118e:	60a6                	ld	ra,72(sp)
    3bc01190:	6406                	ld	s0,64(sp)
    3bc01192:	74e2                	ld	s1,56(sp)
    3bc01194:	7942                	ld	s2,48(sp)
    3bc01196:	7a02                	ld	s4,32(sp)
    3bc01198:	6ae2                	ld	s5,24(sp)
    3bc0119a:	6b42                	ld	s6,16(sp)
    3bc0119c:	854e                	mv	a0,s3
    3bc0119e:	79a2                	ld	s3,40(sp)
    3bc011a0:	6161                	addi	sp,sp,80
    3bc011a2:	8082                	ret
    3bc011a4:	0000d517          	auipc	a0,0xd
    3bc011a8:	65c50513          	addi	a0,a0,1628 # 3bc0e800 <sram_union_buf>
    3bc011ac:	c87ff097          	auipc	ra,0xc87ff
    3bc011b0:	eb4080e7          	jalr	-332(ra) # 4400060 <p_rom_api_load_image>
    3bc011b4:	bfd1                	j	3bc01188 <load_loader_2nd+0x58>
    3bc011b6:	0000d417          	auipc	s0,0xd
    3bc011ba:	64a40413          	addi	s0,s0,1610 # 3bc0e800 <sram_union_buf>
    3bc011be:	4458                	lw	a4,12(s0)
    3bc011c0:	6814                	ld	a3,16(s0)
    3bc011c2:	4410                	lw	a2,8(s0)
    3bc011c4:	1ff7049b          	addiw	s1,a4,511
    3bc011c8:	404c                	lw	a1,4(s0)
    3bc011ca:	e004f493          	andi	s1,s1,-512
    3bc011ce:	2481                	sext.w	s1,s1
    3bc011d0:	87a6                	mv	a5,s1
    3bc011d2:	00009517          	auipc	a0,0x9
    3bc011d6:	29e50513          	addi	a0,a0,670 # 3bc0a470 <hex2ascii_data+0x300>
    3bc011da:	97eff0ef          	jal	ra,3bc00358 <tf_printf>
    3bc011de:	4058                	lw	a4,4(s0)
    3bc011e0:	345a37b7          	lui	a5,0x345a3
    3bc011e4:	34278793          	addi	a5,a5,834 # 345a3342 <p_rom_api_cryptodma_aes_decrypt+0x301a3242>
    3bc011e8:	06f70363          	beq	a4,a5,3bc0124e <load_loader_2nd+0x11e>
    3bc011ec:	414d37b7          	lui	a5,0x414d3
    3bc011f0:	34278793          	addi	a5,a5,834 # 414d3342 <__BL2_END__+0x58bff32>
    3bc011f4:	06f70963          	beq	a4,a5,3bc01266 <load_loader_2nd+0x136>
    3bc011f8:	01043903          	ld	s2,16(s0)
    3bc011fc:	4a01                	li	s4,0
    3bc011fe:	c87ff097          	auipc	ra,0xc87ff
    3bc01202:	e22080e7          	jalr	-478(ra) # 4400020 <p_rom_api_get_boot_src>
    3bc01206:	67b5                	lui	a5,0xd
    3bc01208:	2501                	sext.w	a0,a0
    3bc0120a:	ea378793          	addi	a5,a5,-349 # cea3 <__BSS_SIZE__+0x7293>
    3bc0120e:	0449a583          	lw	a1,68(s3)
    3bc01212:	86d6                	mv	a3,s5
    3bc01214:	8626                	mv	a2,s1
    3bc01216:	04f51a63          	bne	a0,a5,3bc0126a <load_loader_2nd+0x13a>
    3bc0121a:	854a                	mv	a0,s2
    3bc0121c:	a05ff0ef          	jal	ra,3bc00c20 <load_image_by_usb>
    3bc01220:	f60546e3          	bltz	a0,3bc0118c <load_loader_2nd+0x5c>
    3bc01224:	444c                	lw	a1,12(s0)
    3bc01226:	00c90993          	addi	s3,s2,12
    3bc0122a:	854e                	mv	a0,s3
    3bc0122c:	35d1                	addiw	a1,a1,-12
    3bc0122e:	c87ff097          	auipc	ra,0xc87ff
    3bc01232:	e72080e7          	jalr	-398(ra) # 44000a0 <p_rom_api_image_crc>
    3bc01236:	4410                	lw	a2,8(s0)
    3bc01238:	0005059b          	sext.w	a1,a0
    3bc0123c:	02b60d63          	beq	a2,a1,3bc01276 <load_loader_2nd+0x146>
    3bc01240:	00009517          	auipc	a0,0x9
    3bc01244:	26050513          	addi	a0,a0,608 # 3bc0a4a0 <hex2ascii_data+0x330>
    3bc01248:	910ff0ef          	jal	ra,3bc00358 <tf_printf>
    3bc0124c:	b781                	j	3bc0118c <load_loader_2nd+0x5c>
    3bc0124e:	4a09                	li	s4,2
    3bc01250:	85d2                	mv	a1,s4
    3bc01252:	00009517          	auipc	a0,0x9
    3bc01256:	23e50513          	addi	a0,a0,574 # 3bc0a490 <hex2ascii_data+0x320>
    3bc0125a:	00815937          	lui	s2,0x815
    3bc0125e:	8faff0ef          	jal	ra,3bc00358 <tf_printf>
    3bc01262:	0922                	slli	s2,s2,0x8
    3bc01264:	bf69                	j	3bc011fe <load_loader_2nd+0xce>
    3bc01266:	4a05                	li	s4,1
    3bc01268:	b7e5                	j	3bc01250 <load_loader_2nd+0x120>
    3bc0126a:	854a                	mv	a0,s2
    3bc0126c:	c87ff097          	auipc	ra,0xc87ff
    3bc01270:	df4080e7          	jalr	-524(ra) # 4400060 <p_rom_api_load_image>
    3bc01274:	b775                	j	3bc01220 <load_loader_2nd+0xf0>
    3bc01276:	444c                	lw	a1,12(s0)
    3bc01278:	854e                	mv	a0,s3
    3bc0127a:	3c0026b7          	lui	a3,0x3c002
    3bc0127e:	35d1                	addiw	a1,a1,-12
    3bc01280:	4651                	li	a2,20
    3bc01282:	7c05b58b          	extu	a1,a1,31,0
    3bc01286:	f0eff0ef          	jal	ra,3bc00994 <dec_verify_image>
    3bc0128a:	89aa                	mv	s3,a0
    3bc0128c:	00055a63          	bgez	a0,3bc012a0 <load_loader_2nd+0x170>
    3bc01290:	85aa                	mv	a1,a0
    3bc01292:	00009517          	auipc	a0,0x9
    3bc01296:	23650513          	addi	a0,a0,566 # 3bc0a4c8 <hex2ascii_data+0x358>
    3bc0129a:	8beff0ef          	jal	ra,3bc00358 <tf_printf>
    3bc0129e:	bdc5                	j	3bc0118e <load_loader_2nd+0x5e>
    3bc012a0:	967ff0ef          	jal	ra,3bc00c06 <read_time_ms>
    3bc012a4:	0000a997          	auipc	s3,0xa
    3bc012a8:	19c98993          	addi	s3,s3,412 # 3bc0b440 <time_records>
    3bc012ac:	0009b783          	ld	a5,0(s3)
    3bc012b0:	00a79423          	sh	a0,8(a5)
    3bc012b4:	bccff0ef          	jal	ra,3bc00680 <sys_switch_all_to_pll>
    3bc012b8:	94fff0ef          	jal	ra,3bc00c06 <read_time_ms>
    3bc012bc:	0009b783          	ld	a5,0(s3)
    3bc012c0:	00a79523          	sh	a0,10(a5)
    3bc012c4:	040a0363          	beqz	s4,3bc0130a <load_loader_2nd+0x1da>
    3bc012c8:	6804                	ld	s1,16(s0)
    3bc012ca:	010007b7          	lui	a5,0x1000
    3bc012ce:	02000613          	li	a2,32
    3bc012d2:	85ca                	mv	a1,s2
    3bc012d4:	8526                	mv	a0,s1
    3bc012d6:	e43e                	sd	a5,8(sp)
    3bc012d8:	f94ff0ef          	jal	ra,3bc00a6c <memcpy>
    3bc012dc:	00c46683          	lwu	a3,12(s0)
    3bc012e0:	02090613          	addi	a2,s2,32 # 815020 <__BSS_SIZE__+0x80f410>
    3bc012e4:	002c                	addi	a1,sp,8
    3bc012e6:	02048513          	addi	a0,s1,32 # ffffffffffff3020 <__BL2_END__+0xffffffffc43dfc10>
    3bc012ea:	8752                	mv	a4,s4
    3bc012ec:	3d4000ef          	jal	ra,3bc016c0 <decompress>
    3bc012f0:	6622                	ld	a2,8(sp)
    3bc012f2:	85aa                	mv	a1,a0
    3bc012f4:	0006049b          	sext.w	s1,a2
    3bc012f8:	00055963          	bgez	a0,3bc0130a <load_loader_2nd+0x1da>
    3bc012fc:	00009517          	auipc	a0,0x9
    3bc01300:	1ec50513          	addi	a0,a0,492 # 3bc0a4e8 <hex2ascii_data+0x378>
    3bc01304:	854ff0ef          	jal	ra,3bc00358 <tf_printf>
    3bc01308:	b551                	j	3bc0118c <load_loader_2nd+0x5c>
    3bc0130a:	6808                	ld	a0,16(s0)
    3bc0130c:	85a6                	mv	a1,s1
    3bc0130e:	e49fe0ef          	jal	ra,3bc00156 <flush_dcache_range>
    3bc01312:	8f5ff0ef          	jal	ra,3bc00c06 <read_time_ms>
    3bc01316:	0009b783          	ld	a5,0(s3)
    3bc0131a:	4981                	li	s3,0
    3bc0131c:	00a79623          	sh	a0,12(a5) # 100000c <__BSS_SIZE__+0xffa3fc>
    3bc01320:	00009517          	auipc	a0,0x9
    3bc01324:	1f850513          	addi	a0,a0,504 # 3bc0a518 <hex2ascii_data+0x3a8>
    3bc01328:	830ff0ef          	jal	ra,3bc00358 <tf_printf>
    3bc0132c:	681c                	ld	a5,16(s0)
    3bc0132e:	02078793          	addi	a5,a5,32
    3bc01332:	00fb3023          	sd	a5,0(s6)
    3bc01336:	bda1                	j	3bc0118e <load_loader_2nd+0x5e>

000000003bc01338 <load_rest>:
    3bc01338:	7179                	addi	sp,sp,-48
    3bc0133a:	ec26                	sd	s1,24(sp)
    3bc0133c:	74cd                	lui	s1,0xffff3
    3bc0133e:	e84a                	sd	s2,16(sp)
    3bc01340:	f406                	sd	ra,40(sp)
    3bc01342:	f022                	sd	s0,32(sp)
    3bc01344:	e002                	sd	zero,0(sp)
    3bc01346:	e402                	sd	zero,8(sp)
    3bc01348:	1604849b          	addiw	s1,s1,352
    3bc0134c:	cd0ff0ef          	jal	ra,3bc0081c <sys_pll_init>
    3bc01350:	4915                	li	s2,5
    3bc01352:	4401                	li	s0,0
    3bc01354:	c87ff097          	auipc	ra,0xc87ff
    3bc01358:	d6c080e7          	jalr	-660(ra) # 44000c0 <p_rom_api_get_number_of_retries>
    3bc0135c:	02a45563          	bge	s0,a0,3bc01386 <load_rest+0x4e>
    3bc01360:	8522                	mv	a0,s0
    3bc01362:	b43ff0ef          	jal	ra,3bc00ea4 <load_blcp_2nd>
    3bc01366:	00055463          	bgez	a0,3bc0136e <load_rest+0x36>
    3bc0136a:	2405                	addiw	s0,s0,1
    3bc0136c:	b7e5                	j	3bc01354 <load_rest+0x1c>
    3bc0136e:	858a                	mv	a1,sp
    3bc01370:	8522                	mv	a0,s0
    3bc01372:	c99ff0ef          	jal	ra,3bc0100a <load_monitor>
    3bc01376:	fe054ae3          	bltz	a0,3bc0136a <load_rest+0x32>
    3bc0137a:	002c                	addi	a1,sp,8
    3bc0137c:	8522                	mv	a0,s0
    3bc0137e:	db3ff0ef          	jal	ra,3bc01130 <load_loader_2nd>
    3bc01382:	fe0544e3          	bltz	a0,3bc0136a <load_rest+0x32>
    3bc01386:	c87ff097          	auipc	ra,0xc87ff
    3bc0138a:	d3a080e7          	jalr	-710(ra) # 44000c0 <p_rom_api_get_number_of_retries>
    3bc0138e:	02a45b63          	bge	s0,a0,3bc013c4 <load_rest+0x8c>
    3bc01392:	dbbfe0ef          	jal	ra,3bc0014c <sync_cache>
    3bc01396:	f2dfe0ef          	jal	ra,3bc002c2 <console_flush>
    3bc0139a:	c9aff0ef          	jal	ra,3bc00834 <switch_rtc_mode_2nd_stage>
    3bc0139e:	6582                	ld	a1,0(sp)
    3bc013a0:	c5a5                	beqz	a1,3bc01408 <load_rest+0xd0>
    3bc013a2:	00009517          	auipc	a0,0x9
    3bc013a6:	1ae50513          	addi	a0,a0,430 # 3bc0a550 <hex2ascii_data+0x3e0>
    3bc013aa:	faffe0ef          	jal	ra,3bc00358 <tf_printf>
    3bc013ae:	65a2                	ld	a1,8(sp)
    3bc013b0:	6502                	ld	a0,0(sp)
    3bc013b2:	e69fe0ef          	jal	ra,3bc0021a <jump_to_monitor>
    3bc013b6:	70a2                	ld	ra,40(sp)
    3bc013b8:	7402                	ld	s0,32(sp)
    3bc013ba:	64e2                	ld	s1,24(sp)
    3bc013bc:	6942                	ld	s2,16(sp)
    3bc013be:	4501                	li	a0,0
    3bc013c0:	6145                	addi	sp,sp,48
    3bc013c2:	8082                	ret
    3bc013c4:	c87ff097          	auipc	ra,0xc87ff
    3bc013c8:	c5c080e7          	jalr	-932(ra) # 4400020 <p_rom_api_get_boot_src>
    3bc013cc:	00a487bb          	addw	a5,s1,a0
    3bc013d0:	85a2                	mv	a1,s0
    3bc013d2:	02f96363          	bltu	s2,a5,3bc013f8 <load_rest+0xc0>
    3bc013d6:	4505                	li	a0,1
    3bc013d8:	00f51533          	sll	a0,a0,a5
    3bc013dc:	02957513          	andi	a0,a0,41
    3bc013e0:	cd01                	beqz	a0,3bc013f8 <load_rest+0xc0>
    3bc013e2:	00009517          	auipc	a0,0x9
    3bc013e6:	e7e50513          	addi	a0,a0,-386 # 3bc0a260 <hex2ascii_data+0xf0>
    3bc013ea:	f6ffe0ef          	jal	ra,3bc00358 <tf_printf>
    3bc013ee:	c87ff097          	auipc	ra,0xc87ff
    3bc013f2:	c92080e7          	jalr	-878(ra) # 4400080 <p_rom_api_flash_init>
    3bc013f6:	bfb1                	j	3bc01352 <load_rest+0x1a>
    3bc013f8:	00009517          	auipc	a0,0x9
    3bc013fc:	13850513          	addi	a0,a0,312 # 3bc0a530 <hex2ascii_data+0x3c0>
    3bc01400:	f59fe0ef          	jal	ra,3bc00358 <tf_printf>
    3bc01404:	9b6ff0ef          	jal	ra,3bc005ba <panic_handler>
    3bc01408:	65a2                	ld	a1,8(sp)
    3bc0140a:	00009517          	auipc	a0,0x9
    3bc0140e:	16650513          	addi	a0,a0,358 # 3bc0a570 <hex2ascii_data+0x400>
    3bc01412:	f47fe0ef          	jal	ra,3bc00358 <tf_printf>
    3bc01416:	6522                	ld	a0,8(sp)
    3bc01418:	e7bfe0ef          	jal	ra,3bc00292 <jump_to_loader_2nd>
    3bc0141c:	bf69                	j	3bc013b6 <load_rest+0x7e>

000000003bc0141e <bl2_main>:
    3bc0141e:	1141                	addi	sp,sp,-16
    3bc01420:	e406                	sd	ra,8(sp)
    3bc01422:	b200f737          	lui	a4,0xb200f
    3bc01426:	e022                	sd	s0,0(sp)
    3bc01428:	030007b7          	lui	a5,0x3000
    3bc0142c:	08e7a223          	sw	a4,132(a5) # 3000084 <__BSS_SIZE__+0x2ffa474>
    3bc01430:	fd6ff0ef          	jal	ra,3bc00c06 <read_time_ms>
    3bc01434:	0000a797          	auipc	a5,0xa
    3bc01438:	00c7b783          	ld	a5,12(a5) # 3bc0b440 <time_records>
    3bc0143c:	00a79023          	sh	a0,0(a5)
    3bc01440:	00009617          	auipc	a2,0x9
    3bc01444:	bb060613          	addi	a2,a2,-1104 # 3bc09ff0 <build_message>
    3bc01448:	00009597          	auipc	a1,0x9
    3bc0144c:	bc858593          	addi	a1,a1,-1080 # 3bc0a010 <version_string>
    3bc01450:	00009517          	auipc	a0,0x9
    3bc01454:	14050513          	addi	a0,a0,320 # 3bc0a590 <hex2ascii_data+0x420>
    3bc01458:	f01fe0ef          	jal	ra,3bc00358 <tf_printf>
    3bc0145c:	0e000437          	lui	s0,0xe000
    3bc01460:	400c                	lw	a1,0(s0)
    3bc01462:	00009517          	auipc	a0,0x9
    3bc01466:	13e50513          	addi	a0,a0,318 # 3bc0a5a0 <hex2ascii_data+0x430>
    3bc0146a:	eeffe0ef          	jal	ra,3bc00358 <tf_printf>
    3bc0146e:	3c0027b7          	lui	a5,0x3c002
    3bc01472:	47cc                	lw	a1,12(a5)
    3bc01474:	0e07a603          	lw	a2,224(a5) # 3c0020e0 <__BL2_END__+0x3eecd0>
    3bc01478:	00009517          	auipc	a0,0x9
    3bc0147c:	14050513          	addi	a0,a0,320 # 3bc0a5b8 <hex2ascii_data+0x448>
    3bc01480:	ed9fe0ef          	jal	ra,3bc00358 <tf_printf>
    3bc01484:	4c0c                	lw	a1,24(s0)
    3bc01486:	00009517          	auipc	a0,0x9
    3bc0148a:	16a50513          	addi	a0,a0,362 # 3bc0a5f0 <hex2ascii_data+0x480>
    3bc0148e:	2581                	sext.w	a1,a1
    3bc01490:	ec9fe0ef          	jal	ra,3bc00358 <tf_printf>
    3bc01494:	9a2ff0ef          	jal	ra,3bc00636 <setup_dl_flag>
    3bc01498:	b9aff0ef          	jal	ra,3bc00832 <switch_rtc_mode_1st_stage>
    3bc0149c:	bdcff0ef          	jal	ra,3bc00878 <set_rtc_en_registers>
    3bc014a0:	93fff0ef          	jal	ra,3bc00dde <load_ddr>
    3bc014a4:	e95ff0ef          	jal	ra,3bc01338 <load_rest>
    3bc014a8:	00009517          	auipc	a0,0x9
    3bc014ac:	16050513          	addi	a0,a0,352 # 3bc0a608 <hex2ascii_data+0x498>
    3bc014b0:	ea9fe0ef          	jal	ra,3bc00358 <tf_printf>
    3bc014b4:	a001                	j	3bc014b4 <bl2_main+0x96>

000000003bc014b6 <SzFree>:
    3bc014b6:	8082                	ret

000000003bc014b8 <SzAlloc>:
    3bc014b8:	00012797          	auipc	a5,0x12
    3bc014bc:	e4078793          	addi	a5,a5,-448 # 3bc132f8 <comp_alloc_buf>
    3bc014c0:	6388                	ld	a0,0(a5)
    3bc014c2:	00b50733          	add	a4,a0,a1
    3bc014c6:	e398                	sd	a4,0(a5)
    3bc014c8:	00012797          	auipc	a5,0x12
    3bc014cc:	e387b783          	ld	a5,-456(a5) # 3bc13300 <comp_alloc_size>
    3bc014d0:	97ba                	add	a5,a5,a4
    3bc014d2:	02f76363          	bltu	a4,a5,3bc014f8 <SzAlloc+0x40>
    3bc014d6:	1141                	addi	sp,sp,-16
    3bc014d8:	862e                	mv	a2,a1
    3bc014da:	00009517          	auipc	a0,0x9
    3bc014de:	14650513          	addi	a0,a0,326 # 3bc0a620 <hex2ascii_data+0x4b0>
    3bc014e2:	00009597          	auipc	a1,0x9
    3bc014e6:	2a658593          	addi	a1,a1,678 # 3bc0a788 <__func__.0>
    3bc014ea:	e406                	sd	ra,8(sp)
    3bc014ec:	e6dfe0ef          	jal	ra,3bc00358 <tf_printf>
    3bc014f0:	60a2                	ld	ra,8(sp)
    3bc014f2:	4501                	li	a0,0
    3bc014f4:	0141                	addi	sp,sp,16
    3bc014f6:	8082                	ret
    3bc014f8:	8082                	ret

000000003bc014fa <decompress_lzma>:
    3bc014fa:	711d                	addi	sp,sp,-96
    3bc014fc:	00000797          	auipc	a5,0x0
    3bc01500:	fbc78793          	addi	a5,a5,-68 # 3bc014b8 <SzAlloc>
    3bc01504:	f83e                	sd	a5,48(sp)
    3bc01506:	00000797          	auipc	a5,0x0
    3bc0150a:	fb078793          	addi	a5,a5,-80 # 3bc014b6 <SzFree>
    3bc0150e:	ec86                	sd	ra,88(sp)
    3bc01510:	e8a2                	sd	s0,80(sp)
    3bc01512:	e4a6                	sd	s1,72(sp)
    3bc01514:	e0ca                	sd	s2,64(sp)
    3bc01516:	ec36                	sd	a3,24(sp)
    3bc01518:	f402                	sd	zero,40(sp)
    3bc0151a:	fc3e                	sd	a5,56(sp)
    3bc0151c:	d202                	sw	zero,36(sp)
    3bc0151e:	e19d                	bnez	a1,3bc01544 <decompress_lzma+0x4a>
    3bc01520:	00009597          	auipc	a1,0x9
    3bc01524:	27058593          	addi	a1,a1,624 # 3bc0a790 <__func__.1>
    3bc01528:	00009517          	auipc	a0,0x9
    3bc0152c:	11850513          	addi	a0,a0,280 # 3bc0a640 <hex2ascii_data+0x4d0>
    3bc01530:	e29fe0ef          	jal	ra,3bc00358 <tf_printf>
    3bc01534:	5429                	li	s0,-22
    3bc01536:	60e6                	ld	ra,88(sp)
    3bc01538:	8522                	mv	a0,s0
    3bc0153a:	6446                	ld	s0,80(sp)
    3bc0153c:	64a6                	ld	s1,72(sp)
    3bc0153e:	6906                	ld	s2,64(sp)
    3bc01540:	6125                	addi	sp,sp,96
    3bc01542:	8082                	ret
    3bc01544:	20500793          	li	a5,517
    3bc01548:	07da                	slli	a5,a5,0x16
    3bc0154a:	842a                	mv	s0,a0
    3bc0154c:	00012717          	auipc	a4,0x12
    3bc01550:	daf73623          	sd	a5,-596(a4) # 3bc132f8 <comp_alloc_buf>
    3bc01554:	84ae                	mv	s1,a1
    3bc01556:	001007b7          	lui	a5,0x100
    3bc0155a:	85aa                	mv	a1,a0
    3bc0155c:	00009517          	auipc	a0,0x9
    3bc01560:	10450513          	addi	a0,a0,260 # 3bc0a660 <hex2ascii_data+0x4f0>
    3bc01564:	8932                	mv	s2,a2
    3bc01566:	00012717          	auipc	a4,0x12
    3bc0156a:	d8f73d23          	sd	a5,-614(a4) # 3bc13300 <comp_alloc_size>
    3bc0156e:	debfe0ef          	jal	ra,3bc00358 <tf_printf>
    3bc01572:	67e2                	ld	a5,24(sp)
    3bc01574:	4611                	li	a2,4
    3bc01576:	00590593          	addi	a1,s2,5
    3bc0157a:	17ed                	addi	a5,a5,-5
    3bc0157c:	1008                	addi	a0,sp,32
    3bc0157e:	ec3e                	sd	a5,24(sp)
    3bc01580:	cecff0ef          	jal	ra,3bc00a6c <memcpy>
    3bc01584:	67e2                	ld	a5,24(sp)
    3bc01586:	02016583          	lwu	a1,32(sp)
    3bc0158a:	00009517          	auipc	a0,0x9
    3bc0158e:	0ee50513          	addi	a0,a0,238 # 3bc0a678 <hex2ascii_data+0x508>
    3bc01592:	17e1                	addi	a5,a5,-8
    3bc01594:	f42e                	sd	a1,40(sp)
    3bc01596:	ec3e                	sd	a5,24(sp)
    3bc01598:	dc1fe0ef          	jal	ra,3bc00358 <tf_printf>
    3bc0159c:	181c                	addi	a5,sp,48
    3bc0159e:	e03e                	sd	a5,0(sp)
    3bc015a0:	8522                	mv	a0,s0
    3bc015a2:	02410893          	addi	a7,sp,36
    3bc015a6:	4805                	li	a6,1
    3bc015a8:	4795                	li	a5,5
    3bc015aa:	874a                	mv	a4,s2
    3bc015ac:	0834                	addi	a3,sp,24
    3bc015ae:	00d90613          	addi	a2,s2,13
    3bc015b2:	102c                	addi	a1,sp,40
    3bc015b4:	5f5040ef          	jal	ra,3bc063a8 <LzmaDecode>
    3bc015b8:	842a                	mv	s0,a0
    3bc015ba:	c919                	beqz	a0,3bc015d0 <decompress_lzma+0xd6>
    3bc015bc:	5612                	lw	a2,36(sp)
    3bc015be:	85aa                	mv	a1,a0
    3bc015c0:	00009517          	auipc	a0,0x9
    3bc015c4:	0d850513          	addi	a0,a0,216 # 3bc0a698 <hex2ascii_data+0x528>
    3bc015c8:	d91fe0ef          	jal	ra,3bc00358 <tf_printf>
    3bc015cc:	5449                	li	s0,-14
    3bc015ce:	b7a5                	j	3bc01536 <decompress_lzma+0x3c>
    3bc015d0:	75a2                	ld	a1,40(sp)
    3bc015d2:	00009517          	auipc	a0,0x9
    3bc015d6:	0ee50513          	addi	a0,a0,238 # 3bc0a6c0 <hex2ascii_data+0x550>
    3bc015da:	e08c                	sd	a1,0(s1)
    3bc015dc:	d7dfe0ef          	jal	ra,3bc00358 <tf_printf>
    3bc015e0:	bf99                	j	3bc01536 <decompress_lzma+0x3c>

000000003bc015e2 <LZ4_malloc>:
    3bc015e2:	85aa                	mv	a1,a0
    3bc015e4:	4501                	li	a0,0
    3bc015e6:	bdc9                	j	3bc014b8 <SzAlloc>

000000003bc015e8 <LZ4_calloc>:
    3bc015e8:	02b50633          	mul	a2,a0,a1
    3bc015ec:	1101                	addi	sp,sp,-32
    3bc015ee:	e822                	sd	s0,16(sp)
    3bc015f0:	ec06                	sd	ra,24(sp)
    3bc015f2:	8532                	mv	a0,a2
    3bc015f4:	e432                	sd	a2,8(sp)
    3bc015f6:	fedff0ef          	jal	ra,3bc015e2 <LZ4_malloc>
    3bc015fa:	842a                	mv	s0,a0
    3bc015fc:	c509                	beqz	a0,3bc01606 <LZ4_calloc+0x1e>
    3bc015fe:	6622                	ld	a2,8(sp)
    3bc01600:	4581                	li	a1,0
    3bc01602:	c10ff0ef          	jal	ra,3bc00a12 <memset>
    3bc01606:	60e2                	ld	ra,24(sp)
    3bc01608:	8522                	mv	a0,s0
    3bc0160a:	6442                	ld	s0,16(sp)
    3bc0160c:	6105                	addi	sp,sp,32
    3bc0160e:	8082                	ret

000000003bc01610 <LZ4_free>:
    3bc01610:	8082                	ret

000000003bc01612 <decompress_lz4>:
    3bc01612:	20500793          	li	a5,517
    3bc01616:	715d                	addi	sp,sp,-80
    3bc01618:	07da                	slli	a5,a5,0x16
    3bc0161a:	e0a2                	sd	s0,64(sp)
    3bc0161c:	f84a                	sd	s2,48(sp)
    3bc0161e:	00012717          	auipc	a4,0x12
    3bc01622:	ccf73d23          	sd	a5,-806(a4) # 3bc132f8 <comp_alloc_buf>
    3bc01626:	842a                	mv	s0,a0
    3bc01628:	001007b7          	lui	a5,0x100
    3bc0162c:	892e                	mv	s2,a1
    3bc0162e:	85aa                	mv	a1,a0
    3bc01630:	00009517          	auipc	a0,0x9
    3bc01634:	0a850513          	addi	a0,a0,168 # 3bc0a6d8 <hex2ascii_data+0x568>
    3bc01638:	e486                	sd	ra,72(sp)
    3bc0163a:	e436                	sd	a3,8(sp)
    3bc0163c:	00012717          	auipc	a4,0x12
    3bc01640:	ccf73223          	sd	a5,-828(a4) # 3bc13300 <comp_alloc_size>
    3bc01644:	fc26                	sd	s1,56(sp)
    3bc01646:	f44e                	sd	s3,40(sp)
    3bc01648:	89b2                	mv	s3,a2
    3bc0164a:	d0ffe0ef          	jal	ra,3bc00358 <tf_printf>
    3bc0164e:	06400593          	li	a1,100
    3bc01652:	0828                	addi	a0,sp,24
    3bc01654:	38b050ef          	jal	ra,3bc071de <LZ4F_createDecompressionContext>
    3bc01658:	84aa                	mv	s1,a0
    3bc0165a:	1b7050ef          	jal	ra,3bc07010 <LZ4F_isError>
    3bc0165e:	2501                	sext.w	a0,a0
    3bc01660:	c105                	beqz	a0,3bc01680 <decompress_lz4+0x6e>
    3bc01662:	85a6                	mv	a1,s1
    3bc01664:	00009517          	auipc	a0,0x9
    3bc01668:	08c50513          	addi	a0,a0,140 # 3bc0a6f0 <hex2ascii_data+0x580>
    3bc0166c:	cedfe0ef          	jal	ra,3bc00358 <tf_printf>
    3bc01670:	557d                	li	a0,-1
    3bc01672:	60a6                	ld	ra,72(sp)
    3bc01674:	6406                	ld	s0,64(sp)
    3bc01676:	74e2                	ld	s1,56(sp)
    3bc01678:	7942                	ld	s2,48(sp)
    3bc0167a:	79a2                	ld	s3,40(sp)
    3bc0167c:	6161                	addi	sp,sp,80
    3bc0167e:	8082                	ret
    3bc01680:	6562                	ld	a0,24(sp)
    3bc01682:	4781                	li	a5,0
    3bc01684:	0038                	addi	a4,sp,8
    3bc01686:	85a2                	mv	a1,s0
    3bc01688:	86ce                	mv	a3,s3
    3bc0168a:	864a                	mv	a2,s2
    3bc0168c:	383050ef          	jal	ra,3bc0720e <LZ4F_decompress>
    3bc01690:	6622                	ld	a2,8(sp)
    3bc01692:	00093583          	ld	a1,0(s2)
    3bc01696:	86aa                	mv	a3,a0
    3bc01698:	842a                	mv	s0,a0
    3bc0169a:	00009517          	auipc	a0,0x9
    3bc0169e:	06e50513          	addi	a0,a0,110 # 3bc0a708 <hex2ascii_data+0x598>
    3bc016a2:	cb7fe0ef          	jal	ra,3bc00358 <tf_printf>
    3bc016a6:	8526                	mv	a0,s1
    3bc016a8:	169050ef          	jal	ra,3bc07010 <LZ4F_isError>
    3bc016ac:	0005079b          	sext.w	a5,a0
    3bc016b0:	4501                	li	a0,0
    3bc016b2:	d3e1                	beqz	a5,3bc01672 <decompress_lz4+0x60>
    3bc016b4:	85a2                	mv	a1,s0
    3bc016b6:	00009517          	auipc	a0,0x9
    3bc016ba:	07a50513          	addi	a0,a0,122 # 3bc0a730 <hex2ascii_data+0x5c0>
    3bc016be:	b77d                	j	3bc0166c <decompress_lz4+0x5a>

000000003bc016c0 <decompress>:
    3bc016c0:	7139                	addi	sp,sp,-64
    3bc016c2:	87ba                	mv	a5,a4
    3bc016c4:	ec4e                	sd	s3,24(sp)
    3bc016c6:	e852                	sd	s4,16(sp)
    3bc016c8:	e456                	sd	s5,8(sp)
    3bc016ca:	89b2                	mv	s3,a2
    3bc016cc:	8a36                	mv	s4,a3
    3bc016ce:	8aba                	mv	s5,a4
    3bc016d0:	8736                	mv	a4,a3
    3bc016d2:	86b2                	mv	a3,a2
    3bc016d4:	6190                	ld	a2,0(a1)
    3bc016d6:	f426                	sd	s1,40(sp)
    3bc016d8:	f04a                	sd	s2,32(sp)
    3bc016da:	84ae                	mv	s1,a1
    3bc016dc:	892a                	mv	s2,a0
    3bc016de:	85aa                	mv	a1,a0
    3bc016e0:	00009517          	auipc	a0,0x9
    3bc016e4:	07050513          	addi	a0,a0,112 # 3bc0a750 <hex2ascii_data+0x5e0>
    3bc016e8:	fc06                	sd	ra,56(sp)
    3bc016ea:	f822                	sd	s0,48(sp)
    3bc016ec:	c6dfe0ef          	jal	ra,3bc00358 <tf_printf>
    3bc016f0:	4785                	li	a5,1
    3bc016f2:	02fa8f63          	beq	s5,a5,3bc01730 <decompress+0x70>
    3bc016f6:	4789                	li	a5,2
    3bc016f8:	5429                	li	s0,-22
    3bc016fa:	00fa9963          	bne	s5,a5,3bc0170c <decompress+0x4c>
    3bc016fe:	86d2                	mv	a3,s4
    3bc01700:	864e                	mv	a2,s3
    3bc01702:	85a6                	mv	a1,s1
    3bc01704:	854a                	mv	a0,s2
    3bc01706:	f0dff0ef          	jal	ra,3bc01612 <decompress_lz4>
    3bc0170a:	842a                	mv	s0,a0
    3bc0170c:	608c                	ld	a1,0(s1)
    3bc0170e:	8622                	mv	a2,s0
    3bc01710:	00009517          	auipc	a0,0x9
    3bc01714:	06050513          	addi	a0,a0,96 # 3bc0a770 <hex2ascii_data+0x600>
    3bc01718:	c41fe0ef          	jal	ra,3bc00358 <tf_printf>
    3bc0171c:	70e2                	ld	ra,56(sp)
    3bc0171e:	8522                	mv	a0,s0
    3bc01720:	7442                	ld	s0,48(sp)
    3bc01722:	74a2                	ld	s1,40(sp)
    3bc01724:	7902                	ld	s2,32(sp)
    3bc01726:	69e2                	ld	s3,24(sp)
    3bc01728:	6a42                	ld	s4,16(sp)
    3bc0172a:	6aa2                	ld	s5,8(sp)
    3bc0172c:	6121                	addi	sp,sp,64
    3bc0172e:	8082                	ret
    3bc01730:	86d2                	mv	a3,s4
    3bc01732:	864e                	mv	a2,s3
    3bc01734:	85a6                	mv	a1,s1
    3bc01736:	854a                	mv	a0,s2
    3bc01738:	dc3ff0ef          	jal	ra,3bc014fa <decompress_lzma>
    3bc0173c:	b7f9                	j	3bc0170a <decompress+0x4a>

000000003bc0173e <DWC2_UncachedRead32>:
    3bc0173e:	4108                	lw	a0,0(a0)
    3bc01740:	2501                	sext.w	a0,a0
    3bc01742:	8082                	ret

000000003bc01744 <DWC2_UncachedWrite32>:
    3bc01744:	c188                	sw	a0,0(a1)
    3bc01746:	8082                	ret

000000003bc01748 <resume>:
    3bc01748:	8082                	ret

000000003bc0174a <requestMemAlloc>:
    3bc0174a:	00012717          	auipc	a4,0x12
    3bc0174e:	cc170713          	addi	a4,a4,-831 # 3bc1340b <mem_alloc_cnt>
    3bc01752:	00074783          	lbu	a5,0(a4)
    3bc01756:	eb89                	bnez	a5,3bc01768 <requestMemAlloc+0x1e>
    3bc01758:	0000a517          	auipc	a0,0xa
    3bc0175c:	d9053503          	ld	a0,-624(a0) # 3bc0b4e8 <cb0_buf>
    3bc01760:	2785                	addiw	a5,a5,1
    3bc01762:	00f70023          	sb	a5,0(a4)
    3bc01766:	8082                	ret
    3bc01768:	4685                	li	a3,1
    3bc0176a:	00d79763          	bne	a5,a3,3bc01778 <requestMemAlloc+0x2e>
    3bc0176e:	0000a517          	auipc	a0,0xa
    3bc01772:	d8253503          	ld	a0,-638(a0) # 3bc0b4f0 <cb1_buf>
    3bc01776:	b7ed                	j	3bc01760 <requestMemAlloc+0x16>
    3bc01778:	0000a517          	auipc	a0,0xa
    3bc0177c:	d8053503          	ld	a0,-640(a0) # 3bc0b4f8 <cb2_buf>
    3bc01780:	b7c5                	j	3bc01760 <requestMemAlloc+0x16>

000000003bc01782 <requestMemFree>:
    3bc01782:	8082                	ret

000000003bc01784 <acm_complete_set_line_coding>:
    3bc01784:	698c                	ld	a1,16(a1)
    3bc01786:	00012517          	auipc	a0,0x12
    3bc0178a:	b8253503          	ld	a0,-1150(a0) # 3bc13308 <acm>
    3bc0178e:	1141                	addi	sp,sp,-16
    3bc01790:	461d                	li	a2,7
    3bc01792:	0511                	addi	a0,a0,4
    3bc01794:	e406                	sd	ra,8(sp)
    3bc01796:	ad6ff0ef          	jal	ra,3bc00a6c <memcpy>
    3bc0179a:	60a2                	ld	ra,8(sp)
    3bc0179c:	0141                	addi	sp,sp,16
    3bc0179e:	8082                	ret

000000003bc017a0 <reset>:
    3bc017a0:	00009597          	auipc	a1,0x9
    3bc017a4:	40058593          	addi	a1,a1,1024 # 3bc0aba0 <__func__.5>
    3bc017a8:	00009517          	auipc	a0,0x9
    3bc017ac:	ff850513          	addi	a0,a0,-8 # 3bc0a7a0 <__func__.1+0x10>
    3bc017b0:	ba9fe06f          	j	3bc00358 <tf_printf>

000000003bc017b4 <disconnect>:
    3bc017b4:	00012797          	auipc	a5,0x12
    3bc017b8:	c40788a3          	sb	zero,-943(a5) # 3bc13405 <acm_configValue>
    3bc017bc:	4785                	li	a5,1
    3bc017be:	00012717          	auipc	a4,0x12
    3bc017c2:	c4f706a3          	sb	a5,-947(a4) # 3bc1340b <mem_alloc_cnt>
    3bc017c6:	00009597          	auipc	a1,0x9
    3bc017ca:	3ca58593          	addi	a1,a1,970 # 3bc0ab90 <__func__.4>
    3bc017ce:	00012797          	auipc	a5,0x12
    3bc017d2:	c2078ca3          	sb	zero,-967(a5) # 3bc13407 <configValue>
    3bc017d6:	00009517          	auipc	a0,0x9
    3bc017da:	fca50513          	addi	a0,a0,-54 # 3bc0a7a0 <__func__.1+0x10>
    3bc017de:	b7bfe06f          	j	3bc00358 <tf_printf>

000000003bc017e2 <unbind>:
    3bc017e2:	1141                	addi	sp,sp,-16
    3bc017e4:	00009597          	auipc	a1,0x9
    3bc017e8:	3a458593          	addi	a1,a1,932 # 3bc0ab88 <__func__.1>
    3bc017ec:	00009517          	auipc	a0,0x9
    3bc017f0:	fcc50513          	addi	a0,a0,-52 # 3bc0a7b8 <__func__.1+0x28>
    3bc017f4:	e406                	sd	ra,8(sp)
    3bc017f6:	b63fe0ef          	jal	ra,3bc00358 <tf_printf>
    3bc017fa:	60a2                	ld	ra,8(sp)
    3bc017fc:	0000a797          	auipc	a5,0xa
    3bc01800:	dc07b223          	sd	zero,-572(a5) # 3bc0b5c0 <drv_obj>
    3bc01804:	0141                	addi	sp,sp,16
    3bc01806:	8082                	ret

000000003bc01808 <bind>:
    3bc01808:	1141                	addi	sp,sp,-16
    3bc0180a:	e022                	sd	s0,0(sp)
    3bc0180c:	00009597          	auipc	a1,0x9
    3bc01810:	37458593          	addi	a1,a1,884 # 3bc0ab80 <__func__.0>
    3bc01814:	842a                	mv	s0,a0
    3bc01816:	00009517          	auipc	a0,0x9
    3bc0181a:	fa250513          	addi	a0,a0,-94 # 3bc0a7b8 <__func__.1+0x28>
    3bc0181e:	e406                	sd	ra,8(sp)
    3bc01820:	b39fe0ef          	jal	ra,3bc00358 <tf_printf>
    3bc01824:	0000a797          	auipc	a5,0xa
    3bc01828:	d9c78793          	addi	a5,a5,-612 # 3bc0b5c0 <drv_obj>
    3bc0182c:	6398                	ld	a4,0(a5)
    3bc0182e:	cf01                	beqz	a4,3bc01846 <bind+0x3e>
    3bc01830:	00009517          	auipc	a0,0x9
    3bc01834:	f9850513          	addi	a0,a0,-104 # 3bc0a7c8 <__func__.1+0x38>
    3bc01838:	b21fe0ef          	jal	ra,3bc00358 <tf_printf>
    3bc0183c:	60a2                	ld	ra,8(sp)
    3bc0183e:	6402                	ld	s0,0(sp)
    3bc01840:	4501                	li	a0,0
    3bc01842:	0141                	addi	sp,sp,16
    3bc01844:	8082                	ret
    3bc01846:	e380                	sd	s0,0(a5)
    3bc01848:	bfd5                	j	3bc0183c <bind+0x34>

000000003bc0184a <get_unicode_string>:
    3bc0184a:	1101                	addi	sp,sp,-32
    3bc0184c:	e822                	sd	s0,16(sp)
    3bc0184e:	842a                	mv	s0,a0
    3bc01850:	852e                	mv	a0,a1
    3bc01852:	e42e                	sd	a1,8(sp)
    3bc01854:	ec06                	sd	ra,24(sp)
    3bc01856:	b04ff0ef          	jal	ra,3bc00b5a <strlen>
    3bc0185a:	0506                	slli	a0,a0,0x1
    3bc0185c:	0025071b          	addiw	a4,a0,2
    3bc01860:	87a2                	mv	a5,s0
    3bc01862:	1827d70b          	sbia	a4,(a5),2,0
    3bc01866:	470d                	li	a4,3
    3bc01868:	00e400a3          	sb	a4,1(s0) # e000001 <p_rom_api_cryptodma_aes_decrypt+0x9bfff01>
    3bc0186c:	06400713          	li	a4,100
    3bc01870:	65a2                	ld	a1,8(sp)
    3bc01872:	00a77463          	bgeu	a4,a0,3bc0187a <get_unicode_string+0x30>
    3bc01876:	06400513          	li	a0,100
    3bc0187a:	4701                	li	a4,0
    3bc0187c:	00171693          	slli	a3,a4,0x1
    3bc01880:	00a6e663          	bltu	a3,a0,3bc0188c <get_unicode_string+0x42>
    3bc01884:	60e2                	ld	ra,24(sp)
    3bc01886:	6442                	ld	s0,16(sp)
    3bc01888:	6105                	addi	sp,sp,32
    3bc0188a:	8082                	ret
    3bc0188c:	80e5c68b          	lrbu	a3,a1,a4,0
    3bc01890:	0705                	addi	a4,a4,1
    3bc01892:	1827d68b          	sbia	a3,(a5),2,0
    3bc01896:	fe078fa3          	sb	zero,-1(a5)
    3bc0189a:	b7cd                	j	3bc0187c <get_unicode_string+0x32>

000000003bc0189c <bulkOutCmpl>:
    3bc0189c:	5d98                	lw	a4,56(a1)
    3bc0189e:	fc600793          	li	a5,-58
    3bc018a2:	22f70663          	beq	a4,a5,3bc01ace <bulkOutCmpl+0x232>
    3bc018a6:	699c                	ld	a5,16(a1)
    3bc018a8:	7179                	addi	sp,sp,-48
    3bc018aa:	e052                	sd	s4,0(sp)
    3bc018ac:	f406                	sd	ra,40(sp)
    3bc018ae:	f022                	sd	s0,32(sp)
    3bc018b0:	ec26                	sd	s1,24(sp)
    3bc018b2:	e84a                	sd	s2,16(sp)
    3bc018b4:	e44e                	sd	s3,8(sp)
    3bc018b6:	0037c403          	lbu	s0,3(a5)
    3bc018ba:	0047c703          	lbu	a4,4(a5)
    3bc018be:	0017c483          	lbu	s1,1(a5)
    3bc018c2:	1402                	slli	s0,s0,0x20
    3bc018c4:	0762                	slli	a4,a4,0x18
    3bc018c6:	943a                	add	s0,s0,a4
    3bc018c8:	0077c703          	lbu	a4,7(a5)
    3bc018cc:	0027c603          	lbu	a2,2(a5)
    3bc018d0:	0084949b          	slliw	s1,s1,0x8
    3bc018d4:	943a                	add	s0,s0,a4
    3bc018d6:	0057c703          	lbu	a4,5(a5)
    3bc018da:	9e25                	addw	a2,a2,s1
    3bc018dc:	00012a17          	auipc	s4,0x12
    3bc018e0:	a4ca0a13          	addi	s4,s4,-1460 # 3bc13328 <cmdBuf>
    3bc018e4:	0742                	slli	a4,a4,0x10
    3bc018e6:	943a                	add	s0,s0,a4
    3bc018e8:	0067c703          	lbu	a4,6(a5)
    3bc018ec:	000a3583          	ld	a1,0(s4)
    3bc018f0:	84b2                	mv	s1,a2
    3bc018f2:	0722                	slli	a4,a4,0x8
    3bc018f4:	943a                	add	s0,s0,a4
    3bc018f6:	ee05                	bnez	a2,3bc0192e <bulkOutCmpl+0x92>
    3bc018f8:	e81d                	bnez	s0,3bc0192e <bulkOutCmpl+0x92>
    3bc018fa:	00012797          	auipc	a5,0x12
    3bc018fe:	a267b783          	ld	a5,-1498(a5) # 3bc13320 <bulkOutReq>
    3bc01902:	00012717          	auipc	a4,0x12
    3bc01906:	ae672703          	lw	a4,-1306(a4) # 3bc133e8 <transfer_size>
    3bc0190a:	00012517          	auipc	a0,0x12
    3bc0190e:	a3e53503          	ld	a0,-1474(a0) # 3bc13348 <epOut>
    3bc01912:	cf98                	sw	a4,24(a5)
    3bc01914:	7118                	ld	a4,32(a0)
    3bc01916:	7402                	ld	s0,32(sp)
    3bc01918:	70a2                	ld	ra,40(sp)
    3bc0191a:	64e2                	ld	s1,24(sp)
    3bc0191c:	6942                	ld	s2,16(sp)
    3bc0191e:	69a2                	ld	s3,8(sp)
    3bc01920:	6a02                	ld	s4,0(sp)
    3bc01922:	7318                	ld	a4,32(a4)
    3bc01924:	eb8c                	sd	a1,16(a5)
    3bc01926:	cfcc                	sw	a1,28(a5)
    3bc01928:	85be                	mv	a1,a5
    3bc0192a:	6145                	addi	sp,sp,48
    3bc0192c:	8702                	jr	a4
    3bc0192e:	0007c903          	lbu	s2,0(a5)
    3bc01932:	4501                	li	a0,0
    3bc01934:	5d3020ef          	jal	ra,3bc04706 <crc16_ccitt>
    3bc01938:	4789                	li	a5,2
    3bc0193a:	89aa                	mv	s3,a0
    3bc0193c:	0ef90763          	beq	s2,a5,3bc01a2a <bulkOutCmpl+0x18e>
    3bc01940:	0327e363          	bltu	a5,s2,3bc01966 <bulkOutCmpl+0xca>
    3bc01944:	0c091863          	bnez	s2,3bc01a14 <bulkOutCmpl+0x178>
    3bc01948:	000a3583          	ld	a1,0(s4)
    3bc0194c:	ff84861b          	addiw	a2,s1,-8
    3bc01950:	00012517          	auipc	a0,0x12
    3bc01954:	a0053503          	ld	a0,-1536(a0) # 3bc13350 <fip_buf>
    3bc01958:	7c06360b          	extu	a2,a2,31,0
    3bc0195c:	05a1                	addi	a1,a1,8
    3bc0195e:	9522                	add	a0,a0,s0
    3bc01960:	90cff0ef          	jal	ra,3bc00a6c <memcpy>
    3bc01964:	a021                	j	3bc0196c <bulkOutCmpl+0xd0>
    3bc01966:	478d                	li	a5,3
    3bc01968:	0ef90163          	beq	s2,a5,3bc01a4a <bulkOutCmpl+0x1ae>
    3bc0196c:	0000a417          	auipc	s0,0xa
    3bc01970:	d2440413          	addi	s0,s0,-732 # 3bc0b690 <rsp_buf>
    3bc01974:	6008                	ld	a0,0(s0)
    3bc01976:	4641                	li	a2,16
    3bc01978:	4581                	li	a1,0
    3bc0197a:	898ff0ef          	jal	ra,3bc00a12 <memset>
    3bc0197e:	601c                	ld	a5,0(s0)
    3bc01980:	00012617          	auipc	a2,0x12
    3bc01984:	a8460613          	addi	a2,a2,-1404 # 3bc13404 <ack_idx.6>
    3bc01988:	00064703          	lbu	a4,0(a2)
    3bc0198c:	0089951b          	slliw	a0,s3,0x8
    3bc01990:	00012697          	auipc	a3,0x12
    3bc01994:	a506a683          	lw	a3,-1456(a3) # 3bc133e0 <fip_tx_offset>
    3bc01998:	0089d99b          	srliw	s3,s3,0x8
    3bc0199c:	01356533          	or	a0,a0,s3
    3bc019a0:	00012497          	auipc	s1,0x12
    3bc019a4:	97848493          	addi	s1,s1,-1672 # 3bc13318 <bulkInReq>
    3bc019a8:	9006968b          	revw	a3,a3
    3bc019ac:	00a79023          	sh	a0,0(a5)
    3bc019b0:	00a79123          	sh	a0,2(a5)
    3bc019b4:	c794                	sw	a3,8(a5)
    3bc019b6:	6088                	ld	a0,0(s1)
    3bc019b8:	00012697          	auipc	a3,0x12
    3bc019bc:	a2c6a683          	lw	a3,-1492(a3) # 3bc133e4 <fip_tx_size>
    3bc019c0:	00e783a3          	sb	a4,7(a5)
    3bc019c4:	9006968b          	revw	a3,a3
    3bc019c8:	2705                	addiw	a4,a4,1
    3bc019ca:	01278323          	sb	s2,6(a5)
    3bc019ce:	00079223          	sh	zero,4(a5)
    3bc019d2:	c7d4                	sw	a3,12(a5)
    3bc019d4:	00e60023          	sb	a4,0(a2)
    3bc019d8:	4581                	li	a1,0
    3bc019da:	04000613          	li	a2,64
    3bc019de:	834ff0ef          	jal	ra,3bc00a12 <memset>
    3bc019e2:	608c                	ld	a1,0(s1)
    3bc019e4:	47c1                	li	a5,16
    3bc019e6:	00012517          	auipc	a0,0x12
    3bc019ea:	95a53503          	ld	a0,-1702(a0) # 3bc13340 <epIn>
    3bc019ee:	cd9c                	sw	a5,24(a1)
    3bc019f0:	601c                	ld	a5,0(s0)
    3bc019f2:	7402                	ld	s0,32(sp)
    3bc019f4:	70a2                	ld	ra,40(sp)
    3bc019f6:	e99c                	sd	a5,16(a1)
    3bc019f8:	cddc                	sw	a5,28(a1)
    3bc019fa:	00000797          	auipc	a5,0x0
    3bc019fe:	15c78793          	addi	a5,a5,348 # 3bc01b56 <bulkInCmpl>
    3bc01a02:	f59c                	sd	a5,40(a1)
    3bc01a04:	711c                	ld	a5,32(a0)
    3bc01a06:	64e2                	ld	s1,24(sp)
    3bc01a08:	6942                	ld	s2,16(sp)
    3bc01a0a:	69a2                	ld	s3,8(sp)
    3bc01a0c:	6a02                	ld	s4,0(sp)
    3bc01a0e:	739c                	ld	a5,32(a5)
    3bc01a10:	6145                	addi	sp,sp,48
    3bc01a12:	8782                	jr	a5
    3bc01a14:	0e0007b7          	lui	a5,0xe000
    3bc01a18:	0791                	addi	a5,a5,4
    3bc01a1a:	f4f419e3          	bne	s0,a5,3bc0196c <bulkOutCmpl+0xd0>
    3bc01a1e:	000a3583          	ld	a1,0(s4)
    3bc01a22:	4611                	li	a2,4
    3bc01a24:	8522                	mv	a0,s0
    3bc01a26:	05a1                	addi	a1,a1,8
    3bc01a28:	bf25                	j	3bc01960 <bulkOutCmpl+0xc4>
    3bc01a2a:	00009517          	auipc	a0,0x9
    3bc01a2e:	da650513          	addi	a0,a0,-602 # 3bc0a7d0 <__func__.1+0x40>
    3bc01a32:	927fe0ef          	jal	ra,3bc00358 <tf_printf>
    3bc01a36:	00012797          	auipc	a5,0x12
    3bc01a3a:	9c078723          	sb	zero,-1586(a5) # 3bc13404 <ack_idx.6>
    3bc01a3e:	4785                	li	a5,1
    3bc01a40:	00012717          	auipc	a4,0x12
    3bc01a44:	9cf70323          	sb	a5,-1594(a4) # 3bc13406 <configBreak>
    3bc01a48:	b715                	j	3bc0196c <bulkOutCmpl+0xd0>
    3bc01a4a:	000a3583          	ld	a1,0(s4)
    3bc01a4e:	ff84861b          	addiw	a2,s1,-8
    3bc01a52:	4501                	li	a0,0
    3bc01a54:	05a1                	addi	a1,a1,8
    3bc01a56:	4b1020ef          	jal	ra,3bc04706 <crc16_ccitt>
    3bc01a5a:	842a                	mv	s0,a0
    3bc01a5c:	00009517          	auipc	a0,0x9
    3bc01a60:	d8c50513          	addi	a0,a0,-628 # 3bc0a7e8 <__func__.1+0x58>
    3bc01a64:	8f5fe0ef          	jal	ra,3bc00358 <tf_printf>
    3bc01a68:	67b1                	lui	a5,0xc
    3bc01a6a:	2401                	sext.w	s0,s0
    3bc01a6c:	28378793          	addi	a5,a5,643 # c283 <__BSS_SIZE__+0x6673>
    3bc01a70:	02f41a63          	bne	s0,a5,3bc01aa4 <bulkOutCmpl+0x208>
    3bc01a74:	00012797          	auipc	a5,0x12
    3bc01a78:	98078823          	sb	zero,-1648(a5) # 3bc13404 <ack_idx.6>
    3bc01a7c:	00012797          	auipc	a5,0x12
    3bc01a80:	98c78793          	addi	a5,a5,-1652 # 3bc13408 <flagEnterDL>
    3bc01a84:	4705                	li	a4,1
    3bc01a86:	00e78023          	sb	a4,0(a5)
    3bc01a8a:	0e000737          	lui	a4,0xe000
    3bc01a8e:	00072223          	sw	zero,4(a4) # e000004 <p_rom_api_cryptodma_aes_decrypt+0x9bfff04>
    3bc01a92:	0007c583          	lbu	a1,0(a5)
    3bc01a96:	00009517          	auipc	a0,0x9
    3bc01a9a:	d5a50513          	addi	a0,a0,-678 # 3bc0a7f0 <__func__.1+0x60>
    3bc01a9e:	8bbfe0ef          	jal	ra,3bc00358 <tf_printf>
    3bc01aa2:	b5e9                	j	3bc0196c <bulkOutCmpl+0xd0>
    3bc01aa4:	00012797          	auipc	a5,0x12
    3bc01aa8:	96078223          	sb	zero,-1692(a5) # 3bc13408 <flagEnterDL>
    3bc01aac:	0e0007b7          	lui	a5,0xe000
    3bc01ab0:	0007a223          	sw	zero,4(a5) # e000004 <p_rom_api_cryptodma_aes_decrypt+0x9bfff04>
    3bc01ab4:	00009517          	auipc	a0,0x9
    3bc01ab8:	d5450513          	addi	a0,a0,-684 # 3bc0a808 <__func__.1+0x78>
    3bc01abc:	89dfe0ef          	jal	ra,3bc00358 <tf_printf>
    3bc01ac0:	00009517          	auipc	a0,0x9
    3bc01ac4:	d6850513          	addi	a0,a0,-664 # 3bc0a828 <__func__.1+0x98>
    3bc01ac8:	891fe0ef          	jal	ra,3bc00358 <tf_printf>
    3bc01acc:	b545                	j	3bc0196c <bulkOutCmpl+0xd0>
    3bc01ace:	8082                	ret

000000003bc01ad0 <getDescAcm>:
    3bc01ad0:	7179                	addi	sp,sp,-48
    3bc01ad2:	f406                	sd	ra,40(sp)
    3bc01ad4:	f022                	sd	s0,32(sp)
    3bc01ad6:	ec26                	sd	s1,24(sp)
    3bc01ad8:	e84a                	sd	s2,16(sp)
    3bc01ada:	e44e                	sd	s3,8(sp)
    3bc01adc:	4789                	li	a5,2
    3bc01ade:	02f50263          	beq	a0,a5,3bc01b02 <getDescAcm+0x32>
    3bc01ae2:	478d                	li	a5,3
    3bc01ae4:	54fd                	li	s1,-1
    3bc01ae6:	0000a417          	auipc	s0,0xa
    3bc01aea:	a7240413          	addi	s0,s0,-1422 # 3bc0b558 <descriptorsHs>
    3bc01aee:	00f50e63          	beq	a0,a5,3bc01b0a <getDescAcm+0x3a>
    3bc01af2:	70a2                	ld	ra,40(sp)
    3bc01af4:	7402                	ld	s0,32(sp)
    3bc01af6:	6942                	ld	s2,16(sp)
    3bc01af8:	69a2                	ld	s3,8(sp)
    3bc01afa:	8526                	mv	a0,s1
    3bc01afc:	64e2                	ld	s1,24(sp)
    3bc01afe:	6145                	addi	sp,sp,48
    3bc01b00:	8082                	ret
    3bc01b02:	0000a417          	auipc	s0,0xa
    3bc01b06:	a0640413          	addi	s0,s0,-1530 # 3bc0b508 <descriptorsFs>
    3bc01b0a:	892e                	mv	s2,a1
    3bc01b0c:	7884458b          	ldia	a1,(s0),8,0
    3bc01b10:	4481                	li	s1,0
    3bc01b12:	d1e5                	beqz	a1,3bc01af2 <getDescAcm+0x22>
    3bc01b14:	0005c983          	lbu	s3,0(a1)
    3bc01b18:	00990533          	add	a0,s2,s1
    3bc01b1c:	864e                	mv	a2,s3
    3bc01b1e:	f4ffe0ef          	jal	ra,3bc00a6c <memcpy>
    3bc01b22:	7884458b          	ldia	a1,(s0),8,0
    3bc01b26:	009984bb          	addw	s1,s3,s1
    3bc01b2a:	b7e5                	j	3bc01b12 <getDescAcm+0x42>

000000003bc01b2c <reqComplete>:
    3bc01b2c:	5d98                	lw	a4,56(a1)
    3bc01b2e:	57ed                	li	a5,-5
    3bc01b30:	02f71263          	bne	a4,a5,3bc01b54 <reqComplete+0x28>
    3bc01b34:	1141                	addi	sp,sp,-16
    3bc01b36:	00009517          	auipc	a0,0x9
    3bc01b3a:	d0250513          	addi	a0,a0,-766 # 3bc0a838 <__func__.1+0xa8>
    3bc01b3e:	e406                	sd	ra,8(sp)
    3bc01b40:	819fe0ef          	jal	ra,3bc00358 <tf_printf>
    3bc01b44:	60a2                	ld	ra,8(sp)
    3bc01b46:	4785                	li	a5,1
    3bc01b48:	00012717          	auipc	a4,0x12
    3bc01b4c:	8cf700a3          	sb	a5,-1855(a4) # 3bc13409 <flagReboot>
    3bc01b50:	0141                	addi	sp,sp,16
    3bc01b52:	8082                	ret
    3bc01b54:	8082                	ret

000000003bc01b56 <bulkInCmpl>:
    3bc01b56:	5d98                	lw	a4,56(a1)
    3bc01b58:	fc600793          	li	a5,-58
    3bc01b5c:	04f70463          	beq	a4,a5,3bc01ba4 <bulkInCmpl+0x4e>
    3bc01b60:	1141                	addi	sp,sp,-16
    3bc01b62:	e022                	sd	s0,0(sp)
    3bc01b64:	00011417          	auipc	s0,0x11
    3bc01b68:	7c440413          	addi	s0,s0,1988 # 3bc13328 <cmdBuf>
    3bc01b6c:	6008                	ld	a0,0(s0)
    3bc01b6e:	4581                	li	a1,0
    3bc01b70:	4621                	li	a2,8
    3bc01b72:	e406                	sd	ra,8(sp)
    3bc01b74:	e9ffe0ef          	jal	ra,3bc00a12 <memset>
    3bc01b78:	00011597          	auipc	a1,0x11
    3bc01b7c:	7a85b583          	ld	a1,1960(a1) # 3bc13320 <bulkOutReq>
    3bc01b80:	00012797          	auipc	a5,0x12
    3bc01b84:	8687a783          	lw	a5,-1944(a5) # 3bc133e8 <transfer_size>
    3bc01b88:	cd9c                	sw	a5,24(a1)
    3bc01b8a:	601c                	ld	a5,0(s0)
    3bc01b8c:	00011517          	auipc	a0,0x11
    3bc01b90:	7bc53503          	ld	a0,1980(a0) # 3bc13348 <epOut>
    3bc01b94:	6402                	ld	s0,0(sp)
    3bc01b96:	e99c                	sd	a5,16(a1)
    3bc01b98:	cddc                	sw	a5,28(a1)
    3bc01b9a:	711c                	ld	a5,32(a0)
    3bc01b9c:	60a2                	ld	ra,8(sp)
    3bc01b9e:	739c                	ld	a5,32(a5)
    3bc01ba0:	0141                	addi	sp,sp,16
    3bc01ba2:	8782                	jr	a5
    3bc01ba4:	8082                	ret

000000003bc01ba6 <setup>:
    3bc01ba6:	7159                	addi	sp,sp,-112
    3bc01ba8:	e4ce                	sd	s3,72(sp)
    3bc01baa:	fc56                	sd	s5,56(sp)
    3bc01bac:	00011997          	auipc	s3,0x11
    3bc01bb0:	78498993          	addi	s3,s3,1924 # 3bc13330 <ep0Buff>
    3bc01bb4:	00011a97          	auipc	s5,0x11
    3bc01bb8:	784a8a93          	addi	s5,s5,1924 # 3bc13338 <ep0Req>
    3bc01bbc:	eca6                	sd	s1,88(sp)
    3bc01bbe:	000ab603          	ld	a2,0(s5)
    3bc01bc2:	84aa                	mv	s1,a0
    3bc01bc4:	0009b503          	ld	a0,0(s3)
    3bc01bc8:	e0d2                	sd	s4,64(sp)
    3bc01bca:	f486                	sd	ra,104(sp)
    3bc01bcc:	f0a2                	sd	s0,96(sp)
    3bc01bce:	e8ca                	sd	s2,80(sp)
    3bc01bd0:	f85a                	sd	s6,48(sp)
    3bc01bd2:	f45e                	sd	s7,40(sp)
    3bc01bd4:	f062                	sd	s8,32(sp)
    3bc01bd6:	ec66                	sd	s9,24(sp)
    3bc01bd8:	0204a803          	lw	a6,32(s1)
    3bc01bdc:	0015c703          	lbu	a4,1(a1)
    3bc01be0:	0005c683          	lbu	a3,0(a1)
    3bc01be4:	0065da03          	lhu	s4,6(a1)
    3bc01be8:	0025d783          	lhu	a5,2(a1)
    3bc01bec:	00000597          	auipc	a1,0x0
    3bc01bf0:	f4058593          	addi	a1,a1,-192 # 3bc01b2c <reqComplete>
    3bc01bf4:	f60c                	sd	a1,40(a2)
    3bc01bf6:	ea08                	sd	a0,16(a2)
    3bc01bf8:	ce48                	sw	a0,28(a2)
    3bc01bfa:	4589                	li	a1,2
    3bc01bfc:	02b80763          	beq	a6,a1,3bc01c2a <setup+0x84>
    3bc01c00:	458d                	li	a1,3
    3bc01c02:	4905                	li	s2,1
    3bc01c04:	06b81063          	bne	a6,a1,3bc01c64 <setup+0xbe>
    3bc01c08:	0000ab17          	auipc	s6,0xa
    3bc01c0c:	8b8b0b13          	addi	s6,s6,-1864 # 3bc0b4c0 <acm_hs_out_desc>
    3bc01c10:	0000ab97          	auipc	s7,0xa
    3bc01c14:	8a0b8b93          	addi	s7,s7,-1888 # 3bc0b4b0 <acm_hs_in_desc>
    3bc01c18:	0606f593          	andi	a1,a3,96
    3bc01c1c:	c185                	beqz	a1,3bc01c3c <setup+0x96>
    3bc01c1e:	02000693          	li	a3,32
    3bc01c22:	36d58463          	beq	a1,a3,3bc01f8a <setup+0x3e4>
    3bc01c26:	4901                	li	s2,0
    3bc01c28:	a835                	j	3bc01c64 <setup+0xbe>
    3bc01c2a:	0000ab17          	auipc	s6,0xa
    3bc01c2e:	876b0b13          	addi	s6,s6,-1930 # 3bc0b4a0 <acm_fs_out_desc>
    3bc01c32:	0000ab97          	auipc	s7,0xa
    3bc01c36:	85eb8b93          	addi	s7,s7,-1954 # 3bc0b490 <acm_fs_in_desc>
    3bc01c3a:	bff9                	j	3bc01c18 <setup+0x72>
    3bc01c3c:	4621                	li	a2,8
    3bc01c3e:	32c70d63          	beq	a4,a2,3bc01f78 <setup+0x3d2>
    3bc01c42:	4625                	li	a2,9
    3bc01c44:	24c70a63          	beq	a4,a2,3bc01e98 <setup+0x2f2>
    3bc01c48:	4619                	li	a2,6
    3bc01c4a:	597d                	li	s2,-1
    3bc01c4c:	00c71c63          	bne	a4,a2,3bc01c64 <setup+0xbe>
    3bc01c50:	8abd                	andi	a3,a3,15
    3bc01c52:	4705                	li	a4,1
    3bc01c54:	02e69663          	bne	a3,a4,3bc01c80 <setup+0xda>
    3bc01c58:	00009517          	auipc	a0,0x9
    3bc01c5c:	bf850513          	addi	a0,a0,-1032 # 3bc0a850 <__func__.1+0xc0>
    3bc01c60:	ef8fe0ef          	jal	ra,3bc00358 <tf_printf>
    3bc01c64:	70a6                	ld	ra,104(sp)
    3bc01c66:	7406                	ld	s0,96(sp)
    3bc01c68:	64e6                	ld	s1,88(sp)
    3bc01c6a:	69a6                	ld	s3,72(sp)
    3bc01c6c:	6a06                	ld	s4,64(sp)
    3bc01c6e:	7ae2                	ld	s5,56(sp)
    3bc01c70:	7b42                	ld	s6,48(sp)
    3bc01c72:	7ba2                	ld	s7,40(sp)
    3bc01c74:	7c02                	ld	s8,32(sp)
    3bc01c76:	6ce2                	ld	s9,24(sp)
    3bc01c78:	854a                	mv	a0,s2
    3bc01c7a:	6946                	ld	s2,80(sp)
    3bc01c7c:	6165                	addi	sp,sp,112
    3bc01c7e:	8082                	ret
    3bc01c80:	f2dd                	bnez	a3,3bc01c26 <setup+0x80>
    3bc01c82:	0087d71b          	srliw	a4,a5,0x8
    3bc01c86:	377d                	addiw	a4,a4,-1
    3bc01c88:	3c07360b          	extu	a2,a4,15,0
    3bc01c8c:	46b9                	li	a3,14
    3bc01c8e:	0ac6e663          	bltu	a3,a2,3bc01d3a <setup+0x194>
    3bc01c92:	00009697          	auipc	a3,0x9
    3bc01c96:	c9268693          	addi	a3,a3,-878 # 3bc0a924 <__func__.1+0x194>
    3bc01c9a:	44c6c70b          	lrw	a4,a3,a2,2
    3bc01c9e:	9736                	add	a4,a4,a3
    3bc01ca0:	8702                	jr	a4
    3bc01ca2:	0000a417          	auipc	s0,0xa
    3bc01ca6:	a5640413          	addi	s0,s0,-1450 # 3bc0b6f8 <cv_usb_vid>
    3bc01caa:	00045583          	lhu	a1,0(s0)
    3bc01cae:	cd89                	beqz	a1,3bc01cc8 <setup+0x122>
    3bc01cb0:	00009517          	auipc	a0,0x9
    3bc01cb4:	bd050513          	addi	a0,a0,-1072 # 3bc0a880 <__func__.1+0xf0>
    3bc01cb8:	ea0fe0ef          	jal	ra,3bc00358 <tf_printf>
    3bc01cbc:	00045783          	lhu	a5,0(s0)
    3bc01cc0:	0000a717          	auipc	a4,0xa
    3bc01cc4:	8ef71823          	sh	a5,-1808(a4) # 3bc0b5b0 <devHsDesc+0x8>
    3bc01cc8:	0009b503          	ld	a0,0(s3)
    3bc01ccc:	4649                	li	a2,18
    3bc01cce:	0000a597          	auipc	a1,0xa
    3bc01cd2:	8da58593          	addi	a1,a1,-1830 # 3bc0b5a8 <devHsDesc>
    3bc01cd6:	df7fe0ef          	jal	ra,3bc00acc <memmove>
    3bc01cda:	4449                	li	s0,18
    3bc01cdc:	4905                	li	s2,1
    3bc01cde:	6c88                	ld	a0,24(s1)
    3bc01ce0:	014427b3          	slt	a5,s0,s4
    3bc01ce4:	40fa140b          	mveqz	s0,s4,a5
    3bc01ce8:	711c                	ld	a5,32(a0)
    3bc01cea:	000ab583          	ld	a1,0(s5)
    3bc01cee:	739c                	ld	a5,32(a5)
    3bc01cf0:	cd80                	sw	s0,24(a1)
    3bc01cf2:	9782                	jalr	a5
    3bc01cf4:	f20909e3          	beqz	s2,3bc01c26 <setup+0x80>
    3bc01cf8:	c00017b7          	lui	a5,0xc0001
    3bc01cfc:	03000737          	lui	a4,0x3000
    3bc01d00:	0795                	addi	a5,a5,5
    3bc01d02:	08f72223          	sw	a5,132(a4) # 3000084 <__BSS_SIZE__+0x2ffa474>
    3bc01d06:	b705                	j	3bc01c26 <setup+0x80>
    3bc01d08:	0ff7f793          	andi	a5,a5,255
    3bc01d0c:	4709                	li	a4,2
    3bc01d0e:	02e78863          	beq	a5,a4,3bc01d3e <setup+0x198>
    3bc01d12:	02f76163          	bltu	a4,a5,3bc01d34 <setup+0x18e>
    3bc01d16:	00011597          	auipc	a1,0x11
    3bc01d1a:	69258593          	addi	a1,a1,1682 # 3bc133a8 <vendorDesc>
    3bc01d1e:	e789                	bnez	a5,3bc01d28 <setup+0x182>
    3bc01d20:	0000a597          	auipc	a1,0xa
    3bc01d24:	95858593          	addi	a1,a1,-1704 # 3bc0b678 <languageDesc>
    3bc01d28:	0005c403          	lbu	s0,0(a1)
    3bc01d2c:	8622                	mv	a2,s0
    3bc01d2e:	0009b503          	ld	a0,0(s3)
    3bc01d32:	a215                	j	3bc01e56 <setup+0x2b0>
    3bc01d34:	470d                	li	a4,3
    3bc01d36:	00e78963          	beq	a5,a4,3bc01d48 <setup+0x1a2>
    3bc01d3a:	597d                	li	s2,-1
    3bc01d3c:	b725                	j	3bc01c64 <setup+0xbe>
    3bc01d3e:	00011597          	auipc	a1,0x11
    3bc01d42:	61a58593          	addi	a1,a1,1562 # 3bc13358 <productDesc>
    3bc01d46:	b7cd                	j	3bc01d28 <setup+0x182>
    3bc01d48:	ea1fe0ef          	jal	ra,3bc00be8 <usb_id_det>
    3bc01d4c:	00009597          	auipc	a1,0x9
    3bc01d50:	b9c58593          	addi	a1,a1,-1124 # 3bc0a8e8 <__func__.1+0x158>
    3bc01d54:	e55d                	bnez	a0,3bc01e02 <setup+0x25c>
    3bc01d56:	00011b17          	auipc	s6,0x11
    3bc01d5a:	6b4b0b13          	addi	s6,s6,1716 # 3bc1340a <is_serial_patched.3>
    3bc01d5e:	000b4903          	lbu	s2,0(s6)
    3bc01d62:	08091263          	bnez	s2,3bc01de6 <setup+0x240>
    3bc01d66:	4641                	li	a2,16
    3bc01d68:	4581                	li	a1,0
    3bc01d6a:	00011517          	auipc	a0,0x11
    3bc01d6e:	60e50513          	addi	a0,a0,1550 # 3bc13378 <serial.2>
    3bc01d72:	03050bb7          	lui	s7,0x3050
    3bc01d76:	c9dfe0ef          	jal	ra,3bc00a12 <memset>
    3bc01d7a:	4401                	li	s0,0
    3bc01d7c:	104b8b93          	addi	s7,s7,260 # 3050104 <__BSS_SIZE__+0x304a4f4>
    3bc01d80:	00009c97          	auipc	s9,0x9
    3bc01d84:	b10c8c93          	addi	s9,s9,-1264 # 3bc0a890 <__func__.1+0x100>
    3bc01d88:	4c11                	li	s8,4
    3bc01d8a:	448bc60b          	lrw	a2,s7,s0,2
    3bc01d8e:	0004059b          	sext.w	a1,s0
    3bc01d92:	8566                	mv	a0,s9
    3bc01d94:	2601                	sext.w	a2,a2
    3bc01d96:	4481560b          	srw	a2,sp,s0,2
    3bc01d9a:	dbefe0ef          	jal	ra,3bc00358 <tf_printf>
    3bc01d9e:	4481478b          	lrw	a5,sp,s0,2
    3bc01da2:	c391                	beqz	a5,3bc01da6 <setup+0x200>
    3bc01da4:	4905                	li	s2,1
    3bc01da6:	0405                	addi	s0,s0,1
    3bc01da8:	ff8411e3          	bne	s0,s8,3bc01d8a <setup+0x1e4>
    3bc01dac:	06090663          	beqz	s2,3bc01e18 <setup+0x272>
    3bc01db0:	858a                	mv	a1,sp
    3bc01db2:	4641                	li	a2,16
    3bc01db4:	4501                	li	a0,0
    3bc01db6:	151020ef          	jal	ra,3bc04706 <crc16_ccitt>
    3bc01dba:	0005041b          	sext.w	s0,a0
    3bc01dbe:	85a2                	mv	a1,s0
    3bc01dc0:	00009517          	auipc	a0,0x9
    3bc01dc4:	ae850513          	addi	a0,a0,-1304 # 3bc0a8a8 <__func__.1+0x118>
    3bc01dc8:	d90fe0ef          	jal	ra,3bc00358 <tf_printf>
    3bc01dcc:	4681                	li	a3,0
    3bc01dce:	4641                	li	a2,16
    3bc01dd0:	7c04358b          	extu	a1,s0,31,0
    3bc01dd4:	00011517          	auipc	a0,0x11
    3bc01dd8:	5a450513          	addi	a0,a0,1444 # 3bc13378 <serial.2>
    3bc01ddc:	bbdfe0ef          	jal	ra,3bc00998 <ntostr>
    3bc01de0:	4785                	li	a5,1
    3bc01de2:	00fb0023          	sb	a5,0(s6)
    3bc01de6:	00011597          	auipc	a1,0x11
    3bc01dea:	59258593          	addi	a1,a1,1426 # 3bc13378 <serial.2>
    3bc01dee:	00009517          	auipc	a0,0x9
    3bc01df2:	aea50513          	addi	a0,a0,-1302 # 3bc0a8d8 <__func__.1+0x148>
    3bc01df6:	d62fe0ef          	jal	ra,3bc00358 <tf_printf>
    3bc01dfa:	00011597          	auipc	a1,0x11
    3bc01dfe:	57e58593          	addi	a1,a1,1406 # 3bc13378 <serial.2>
    3bc01e02:	00011517          	auipc	a0,0x11
    3bc01e06:	58650513          	addi	a0,a0,1414 # 3bc13388 <serialDesc>
    3bc01e0a:	a41ff0ef          	jal	ra,3bc0184a <get_unicode_string>
    3bc01e0e:	00011597          	auipc	a1,0x11
    3bc01e12:	57a58593          	addi	a1,a1,1402 # 3bc13388 <serialDesc>
    3bc01e16:	bf09                	j	3bc01d28 <setup+0x182>
    3bc01e18:	00011517          	auipc	a0,0x11
    3bc01e1c:	5d452503          	lw	a0,1492(a0) # 3bc133ec <ts>
    3bc01e20:	bc2fe0ef          	jal	ra,3bc001e2 <get_random_from_timer>
    3bc01e24:	0005041b          	sext.w	s0,a0
    3bc01e28:	85a2                	mv	a1,s0
    3bc01e2a:	00009517          	auipc	a0,0x9
    3bc01e2e:	a9650513          	addi	a0,a0,-1386 # 3bc0a8c0 <__func__.1+0x130>
    3bc01e32:	bf59                	j	3bc01dc8 <setup+0x222>
    3bc01e34:	00009597          	auipc	a1,0x9
    3bc01e38:	69c58593          	addi	a1,a1,1692 # 3bc0b4d0 <bosDesc>
    3bc01e3c:	4615                	li	a2,5
    3bc01e3e:	0025d403          	lhu	s0,2(a1)
    3bc01e42:	c8bfe0ef          	jal	ra,3bc00acc <memmove>
    3bc01e46:	0009b503          	ld	a0,0(s3)
    3bc01e4a:	461d                	li	a2,7
    3bc01e4c:	00009597          	auipc	a1,0x9
    3bc01e50:	69458593          	addi	a1,a1,1684 # 3bc0b4e0 <capabilityExtDesc>
    3bc01e54:	0515                	addi	a0,a0,5
    3bc01e56:	c77fe0ef          	jal	ra,3bc00acc <memmove>
    3bc01e5a:	dc0406e3          	beqz	s0,3bc01c26 <setup+0x80>
    3bc01e5e:	a809                	j	3bc01e70 <setup+0x2ca>
    3bc01e60:	4629                	li	a2,10
    3bc01e62:	0000a597          	auipc	a1,0xa
    3bc01e66:	81e58593          	addi	a1,a1,-2018 # 3bc0b680 <qualifierDesc>
    3bc01e6a:	c63fe0ef          	jal	ra,3bc00acc <memmove>
    3bc01e6e:	4429                	li	s0,10
    3bc01e70:	4901                	li	s2,0
    3bc01e72:	b5b5                	j	3bc01cde <setup+0x138>
    3bc01e74:	00950593          	addi	a1,a0,9
    3bc01e78:	8542                	mv	a0,a6
    3bc01e7a:	c57ff0ef          	jal	ra,3bc01ad0 <getDescAcm>
    3bc01e7e:	2525                	addiw	a0,a0,9
    3bc01e80:	3c05350b          	extu	a0,a0,15,0
    3bc01e84:	00009597          	auipc	a1,0x9
    3bc01e88:	5c458593          	addi	a1,a1,1476 # 3bc0b448 <ConfDesc>
    3bc01e8c:	0005041b          	sext.w	s0,a0
    3bc01e90:	00a59123          	sh	a0,2(a1)
    3bc01e94:	4625                	li	a2,9
    3bc01e96:	bd61                	j	3bc01d2e <setup+0x188>
    3bc01e98:	4705                	li	a4,1
    3bc01e9a:	597d                	li	s2,-1
    3bc01e9c:	dcf764e3          	bltu	a4,a5,3bc01c64 <setup+0xbe>
    3bc01ea0:	e385                	bnez	a5,3bc01ec0 <setup+0x31a>
    3bc01ea2:	00011797          	auipc	a5,0x11
    3bc01ea6:	560782a3          	sb	zero,1381(a5) # 3bc13407 <configValue>
    3bc01eaa:	6080                	ld	s0,0(s1)
    3bc01eac:	d6848de3          	beq	s1,s0,3bc01c26 <setup+0x80>
    3bc01eb0:	6c1c                	ld	a5,24(s0)
    3bc01eb2:	c789                	beqz	a5,3bc01ebc <setup+0x316>
    3bc01eb4:	701c                	ld	a5,32(s0)
    3bc01eb6:	8522                	mv	a0,s0
    3bc01eb8:	679c                	ld	a5,8(a5)
    3bc01eba:	9782                	jalr	a5
    3bc01ebc:	6000                	ld	s0,0(s0)
    3bc01ebe:	b7fd                	j	3bc01eac <setup+0x306>
    3bc01ec0:	00011797          	auipc	a5,0x11
    3bc01ec4:	54778793          	addi	a5,a5,1351 # 3bc13407 <configValue>
    3bc01ec8:	0007c683          	lbu	a3,0(a5)
    3bc01ecc:	d4e68de3          	beq	a3,a4,3bc01c26 <setup+0x80>
    3bc01ed0:	00e78023          	sb	a4,0(a5)
    3bc01ed4:	6080                	ld	s0,0(s1)
    3bc01ed6:	00009917          	auipc	s2,0x9
    3bc01eda:	a2290913          	addi	s2,s2,-1502 # 3bc0a8f8 <__func__.1+0x168>
    3bc01ede:	00848d63          	beq	s1,s0,3bc01ef8 <setup+0x352>
    3bc01ee2:	6c08                	ld	a0,24(s0)
    3bc01ee4:	c141                	beqz	a0,3bc01f64 <setup+0x3be>
    3bc01ee6:	85ca                	mv	a1,s2
    3bc01ee8:	c57fe0ef          	jal	ra,3bc00b3e <strcmp>
    3bc01eec:	ed25                	bnez	a0,3bc01f64 <setup+0x3be>
    3bc01eee:	701c                	ld	a5,32(s0)
    3bc01ef0:	85de                	mv	a1,s7
    3bc01ef2:	8522                	mv	a0,s0
    3bc01ef4:	639c                	ld	a5,0(a5)
    3bc01ef6:	9782                	jalr	a5
    3bc01ef8:	6080                	ld	s0,0(s1)
    3bc01efa:	00009917          	auipc	s2,0x9
    3bc01efe:	a0e90913          	addi	s2,s2,-1522 # 3bc0a908 <__func__.1+0x178>
    3bc01f02:	00848d63          	beq	s1,s0,3bc01f1c <setup+0x376>
    3bc01f06:	6c08                	ld	a0,24(s0)
    3bc01f08:	c125                	beqz	a0,3bc01f68 <setup+0x3c2>
    3bc01f0a:	85ca                	mv	a1,s2
    3bc01f0c:	c33fe0ef          	jal	ra,3bc00b3e <strcmp>
    3bc01f10:	ed21                	bnez	a0,3bc01f68 <setup+0x3c2>
    3bc01f12:	701c                	ld	a5,32(s0)
    3bc01f14:	85da                	mv	a1,s6
    3bc01f16:	8522                	mv	a0,s0
    3bc01f18:	639c                	ld	a5,0(a5)
    3bc01f1a:	9782                	jalr	a5
    3bc01f1c:	6080                	ld	s0,0(s1)
    3bc01f1e:	00009917          	auipc	s2,0x9
    3bc01f22:	9fa90913          	addi	s2,s2,-1542 # 3bc0a918 <__func__.1+0x188>
    3bc01f26:	02848063          	beq	s1,s0,3bc01f46 <setup+0x3a0>
    3bc01f2a:	6c08                	ld	a0,24(s0)
    3bc01f2c:	c121                	beqz	a0,3bc01f6c <setup+0x3c6>
    3bc01f2e:	85ca                	mv	a1,s2
    3bc01f30:	c0ffe0ef          	jal	ra,3bc00b3e <strcmp>
    3bc01f34:	ed05                	bnez	a0,3bc01f6c <setup+0x3c6>
    3bc01f36:	701c                	ld	a5,32(s0)
    3bc01f38:	00009597          	auipc	a1,0x9
    3bc01f3c:	56058593          	addi	a1,a1,1376 # 3bc0b498 <acm_fs_notify_desc>
    3bc01f40:	8522                	mv	a0,s0
    3bc01f42:	639c                	ld	a5,0(a5)
    3bc01f44:	9782                	jalr	a5
    3bc01f46:	689c                	ld	a5,16(s1)
    3bc01f48:	00009717          	auipc	a4,0x9
    3bc01f4c:	50774703          	lbu	a4,1287(a4) # 3bc0b44f <ConfDesc+0x7>
    3bc01f50:	04077713          	andi	a4,a4,64
    3bc01f54:	6b9c                	ld	a5,16(a5)
    3bc01f56:	cf09                	beqz	a4,3bc01f70 <setup+0x3ca>
    3bc01f58:	4585                	li	a1,1
    3bc01f5a:	cc0786e3          	beqz	a5,3bc01c26 <setup+0x80>
    3bc01f5e:	8526                	mv	a0,s1
    3bc01f60:	9782                	jalr	a5
    3bc01f62:	b1d1                	j	3bc01c26 <setup+0x80>
    3bc01f64:	6000                	ld	s0,0(s0)
    3bc01f66:	bfa5                	j	3bc01ede <setup+0x338>
    3bc01f68:	6000                	ld	s0,0(s0)
    3bc01f6a:	bf61                	j	3bc01f02 <setup+0x35c>
    3bc01f6c:	6000                	ld	s0,0(s0)
    3bc01f6e:	bf65                	j	3bc01f26 <setup+0x380>
    3bc01f70:	ca078be3          	beqz	a5,3bc01c26 <setup+0x80>
    3bc01f74:	4581                	li	a1,0
    3bc01f76:	b7e5                	j	3bc01f5e <setup+0x3b8>
    3bc01f78:	4605                	li	a2,1
    3bc01f7a:	00011597          	auipc	a1,0x11
    3bc01f7e:	48d58593          	addi	a1,a1,1165 # 3bc13407 <configValue>
    3bc01f82:	b4bfe0ef          	jal	ra,3bc00acc <memmove>
    3bc01f86:	4405                	li	s0,1
    3bc01f88:	b5e5                	j	3bc01e70 <setup+0x2ca>
    3bc01f8a:	02100693          	li	a3,33
    3bc01f8e:	04d70263          	beq	a4,a3,3bc01fd2 <setup+0x42c>
    3bc01f92:	02200693          	li	a3,34
    3bc01f96:	02d70263          	beq	a4,a3,3bc01fba <setup+0x414>
    3bc01f9a:	4901                	li	s2,0
    3bc01f9c:	ccb714e3          	bne	a4,a1,3bc01c64 <setup+0xbe>
    3bc01fa0:	fffff797          	auipc	a5,0xfffff
    3bc01fa4:	7e478793          	addi	a5,a5,2020 # 3bc01784 <acm_complete_set_line_coding>
    3bc01fa8:	000a041b          	sext.w	s0,s4
    3bc01fac:	f61c                	sd	a5,40(a2)
    3bc01fae:	4785                	li	a5,1
    3bc01fb0:	00011717          	auipc	a4,0x11
    3bc01fb4:	44f70aa3          	sb	a5,1109(a4) # 3bc13405 <acm_configValue>
    3bc01fb8:	b54d                	j	3bc01e5a <setup+0x2b4>
    3bc01fba:	00011717          	auipc	a4,0x11
    3bc01fbe:	34e73703          	ld	a4,846(a4) # 3bc13308 <acm>
    3bc01fc2:	00f71623          	sh	a5,12(a4)
    3bc01fc6:	4785                	li	a5,1
    3bc01fc8:	00011717          	auipc	a4,0x11
    3bc01fcc:	42f70ea3          	sb	a5,1085(a4) # 3bc13405 <acm_configValue>
    3bc01fd0:	b999                	j	3bc01c26 <setup+0x80>
    3bc01fd2:	00011597          	auipc	a1,0x11
    3bc01fd6:	3365b583          	ld	a1,822(a1) # 3bc13308 <acm>
    3bc01fda:	8652                	mv	a2,s4
    3bc01fdc:	0591                	addi	a1,a1,4
    3bc01fde:	000a041b          	sext.w	s0,s4
    3bc01fe2:	aebfe0ef          	jal	ra,3bc00acc <memmove>
    3bc01fe6:	b7e1                	j	3bc01fae <setup+0x408>

000000003bc01fe8 <suspend>:
    3bc01fe8:	8082                	ret

000000003bc01fea <convert_buf_addr>:
    3bc01fea:	00011797          	auipc	a5,0x11
    3bc01fee:	89678793          	addi	a5,a5,-1898 # 3bc12880 <bulkBufAllocArr>
    3bc01ff2:	00009717          	auipc	a4,0x9
    3bc01ff6:	4ef73323          	sd	a5,1254(a4) # 3bc0b4d8 <bulkBufAlloc>
    3bc01ffa:	00011797          	auipc	a5,0x11
    3bc01ffe:	c0678793          	addi	a5,a5,-1018 # 3bc12c00 <cmdBufAllocArr>
    3bc02002:	00009717          	auipc	a4,0x9
    3bc02006:	4ef73f23          	sd	a5,1278(a4) # 3bc0b500 <cmdBufAlloc>
    3bc0200a:	00011797          	auipc	a5,0x11
    3bc0200e:	a7678793          	addi	a5,a5,-1418 # 3bc12a80 <cb0_bufArr>
    3bc02012:	00009717          	auipc	a4,0x9
    3bc02016:	4cf73b23          	sd	a5,1238(a4) # 3bc0b4e8 <cb0_buf>
    3bc0201a:	00011797          	auipc	a5,0x11
    3bc0201e:	ae678793          	addi	a5,a5,-1306 # 3bc12b00 <cb1_bufArr>
    3bc02022:	00009717          	auipc	a4,0x9
    3bc02026:	4cf73723          	sd	a5,1230(a4) # 3bc0b4f0 <cb1_buf>
    3bc0202a:	00011797          	auipc	a5,0x11
    3bc0202e:	b5678793          	addi	a5,a5,-1194 # 3bc12b80 <cb2_bufArr>
    3bc02032:	00009717          	auipc	a4,0x9
    3bc02036:	4cf73323          	sd	a5,1222(a4) # 3bc0b4f8 <cb2_buf>
    3bc0203a:	00011797          	auipc	a5,0x11
    3bc0203e:	dc678793          	addi	a5,a5,-570 # 3bc12e00 <ep0BuffAllocArr>
    3bc02042:	00009717          	auipc	a4,0x9
    3bc02046:	5cf73723          	sd	a5,1486(a4) # 3bc0b610 <ep0BuffAlloc>
    3bc0204a:	00011797          	auipc	a5,0x11
    3bc0204e:	23678793          	addi	a5,a5,566 # 3bc13280 <rsp_bufArr>
    3bc02052:	00009717          	auipc	a4,0x9
    3bc02056:	62f73f23          	sd	a5,1598(a4) # 3bc0b690 <rsp_buf>
    3bc0205a:	00010797          	auipc	a5,0x10
    3bc0205e:	7a678793          	addi	a5,a5,1958 # 3bc12800 <acm_bufArr>
    3bc02062:	00009717          	auipc	a4,0x9
    3bc02066:	3ef73b23          	sd	a5,1014(a4) # 3bc0b458 <acm_buf>
    3bc0206a:	00011797          	auipc	a5,0x11
    3bc0206e:	25678793          	addi	a5,a5,598 # 3bc132c0 <setup_bufArr>
    3bc02072:	00009717          	auipc	a4,0x9
    3bc02076:	62f73323          	sd	a5,1574(a4) # 3bc0b698 <setup_buf>
    3bc0207a:	00011797          	auipc	a5,0x11
    3bc0207e:	e0678793          	addi	a5,a5,-506 # 3bc12e80 <handlerArr>
    3bc02082:	00009717          	auipc	a4,0x9
    3bc02086:	5ef73723          	sd	a5,1518(a4) # 3bc0b670 <handler>
    3bc0208a:	8082                	ret

000000003bc0208c <print_buf_addr>:
    3bc0208c:	1141                	addi	sp,sp,-16
    3bc0208e:	00009597          	auipc	a1,0x9
    3bc02092:	44a5b583          	ld	a1,1098(a1) # 3bc0b4d8 <bulkBufAlloc>
    3bc02096:	00009517          	auipc	a0,0x9
    3bc0209a:	8ca50513          	addi	a0,a0,-1846 # 3bc0a960 <__func__.1+0x1d0>
    3bc0209e:	e406                	sd	ra,8(sp)
    3bc020a0:	ab8fe0ef          	jal	ra,3bc00358 <tf_printf>
    3bc020a4:	00009597          	auipc	a1,0x9
    3bc020a8:	45c5b583          	ld	a1,1116(a1) # 3bc0b500 <cmdBufAlloc>
    3bc020ac:	00009517          	auipc	a0,0x9
    3bc020b0:	8cc50513          	addi	a0,a0,-1844 # 3bc0a978 <__func__.1+0x1e8>
    3bc020b4:	aa4fe0ef          	jal	ra,3bc00358 <tf_printf>
    3bc020b8:	00009597          	auipc	a1,0x9
    3bc020bc:	4305b583          	ld	a1,1072(a1) # 3bc0b4e8 <cb0_buf>
    3bc020c0:	00009517          	auipc	a0,0x9
    3bc020c4:	8d050513          	addi	a0,a0,-1840 # 3bc0a990 <__func__.1+0x200>
    3bc020c8:	a90fe0ef          	jal	ra,3bc00358 <tf_printf>
    3bc020cc:	00009597          	auipc	a1,0x9
    3bc020d0:	4245b583          	ld	a1,1060(a1) # 3bc0b4f0 <cb1_buf>
    3bc020d4:	00009517          	auipc	a0,0x9
    3bc020d8:	8d450513          	addi	a0,a0,-1836 # 3bc0a9a8 <__func__.1+0x218>
    3bc020dc:	a7cfe0ef          	jal	ra,3bc00358 <tf_printf>
    3bc020e0:	00009597          	auipc	a1,0x9
    3bc020e4:	4185b583          	ld	a1,1048(a1) # 3bc0b4f8 <cb2_buf>
    3bc020e8:	00009517          	auipc	a0,0x9
    3bc020ec:	8d850513          	addi	a0,a0,-1832 # 3bc0a9c0 <__func__.1+0x230>
    3bc020f0:	a68fe0ef          	jal	ra,3bc00358 <tf_printf>
    3bc020f4:	00009597          	auipc	a1,0x9
    3bc020f8:	51c5b583          	ld	a1,1308(a1) # 3bc0b610 <ep0BuffAlloc>
    3bc020fc:	00009517          	auipc	a0,0x9
    3bc02100:	8dc50513          	addi	a0,a0,-1828 # 3bc0a9d8 <__func__.1+0x248>
    3bc02104:	a54fe0ef          	jal	ra,3bc00358 <tf_printf>
    3bc02108:	00009597          	auipc	a1,0x9
    3bc0210c:	5885b583          	ld	a1,1416(a1) # 3bc0b690 <rsp_buf>
    3bc02110:	00009517          	auipc	a0,0x9
    3bc02114:	8e050513          	addi	a0,a0,-1824 # 3bc0a9f0 <__func__.1+0x260>
    3bc02118:	a40fe0ef          	jal	ra,3bc00358 <tf_printf>
    3bc0211c:	00009597          	auipc	a1,0x9
    3bc02120:	33c5b583          	ld	a1,828(a1) # 3bc0b458 <acm_buf>
    3bc02124:	00009517          	auipc	a0,0x9
    3bc02128:	8e450513          	addi	a0,a0,-1820 # 3bc0aa08 <__func__.1+0x278>
    3bc0212c:	a2cfe0ef          	jal	ra,3bc00358 <tf_printf>
    3bc02130:	00009597          	auipc	a1,0x9
    3bc02134:	5685b583          	ld	a1,1384(a1) # 3bc0b698 <setup_buf>
    3bc02138:	00009517          	auipc	a0,0x9
    3bc0213c:	8e850513          	addi	a0,a0,-1816 # 3bc0aa20 <__func__.1+0x290>
    3bc02140:	a18fe0ef          	jal	ra,3bc00358 <tf_printf>
    3bc02144:	60a2                	ld	ra,8(sp)
    3bc02146:	00009597          	auipc	a1,0x9
    3bc0214a:	52a5b583          	ld	a1,1322(a1) # 3bc0b670 <handler>
    3bc0214e:	00009517          	auipc	a0,0x9
    3bc02152:	8ea50513          	addi	a0,a0,-1814 # 3bc0aa38 <__func__.1+0x2a8>
    3bc02156:	0141                	addi	sp,sp,16
    3bc02158:	a00fe06f          	j	3bc00358 <tf_printf>

000000003bc0215c <AcmIsr>:
    3bc0215c:	4501                	li	a0,0
    3bc0215e:	3020106f          	j	3bc03460 <usb_gadget_handle_interrupts>

000000003bc02162 <acm_app_init>:
    3bc02162:	7179                	addi	sp,sp,-48
    3bc02164:	f022                	sd	s0,32(sp)
    3bc02166:	00009417          	auipc	s0,0x9
    3bc0216a:	45a40413          	addi	s0,s0,1114 # 3bc0b5c0 <drv_obj>
    3bc0216e:	601c                	ld	a5,0(s0)
    3bc02170:	00009597          	auipc	a1,0x9
    3bc02174:	8e058593          	addi	a1,a1,-1824 # 3bc0aa50 <__func__.1+0x2c0>
    3bc02178:	00011517          	auipc	a0,0x11
    3bc0217c:	23050513          	addi	a0,a0,560 # 3bc133a8 <vendorDesc>
    3bc02180:	f406                	sd	ra,40(sp)
    3bc02182:	ec26                	sd	s1,24(sp)
    3bc02184:	e84a                	sd	s2,16(sp)
    3bc02186:	6f84                	ld	s1,24(a5)
    3bc02188:	e44e                	sd	s3,8(sp)
    3bc0218a:	ec0ff0ef          	jal	ra,3bc0184a <get_unicode_string>
    3bc0218e:	00011517          	auipc	a0,0x11
    3bc02192:	1ca50513          	addi	a0,a0,458 # 3bc13358 <productDesc>
    3bc02196:	00009597          	auipc	a1,0x9
    3bc0219a:	8c258593          	addi	a1,a1,-1854 # 3bc0aa58 <__func__.1+0x2c8>
    3bc0219e:	eacff0ef          	jal	ra,3bc0184a <get_unicode_string>
    3bc021a2:	00009517          	auipc	a0,0x9
    3bc021a6:	46e53503          	ld	a0,1134(a0) # 3bc0b610 <ep0BuffAlloc>
    3bc021aa:	03f57713          	andi	a4,a0,63
    3bc021ae:	87aa                	mv	a5,a0
    3bc021b0:	c709                	beqz	a4,3bc021ba <acm_app_init+0x58>
    3bc021b2:	04000793          	li	a5,64
    3bc021b6:	9f99                	subw	a5,a5,a4
    3bc021b8:	97aa                	add	a5,a5,a0
    3bc021ba:	00009997          	auipc	s3,0x9
    3bc021be:	31e98993          	addi	s3,s3,798 # 3bc0b4d8 <bulkBufAlloc>
    3bc021c2:	00011717          	auipc	a4,0x11
    3bc021c6:	16f73723          	sd	a5,366(a4) # 3bc13330 <ep0Buff>
    3bc021ca:	0009b783          	ld	a5,0(s3)
    3bc021ce:	03f7f693          	andi	a3,a5,63
    3bc021d2:	c689                	beqz	a3,3bc021dc <acm_app_init+0x7a>
    3bc021d4:	04000713          	li	a4,64
    3bc021d8:	9f15                	subw	a4,a4,a3
    3bc021da:	97ba                	add	a5,a5,a4
    3bc021dc:	00009917          	auipc	s2,0x9
    3bc021e0:	32490913          	addi	s2,s2,804 # 3bc0b500 <cmdBufAlloc>
    3bc021e4:	00011717          	auipc	a4,0x11
    3bc021e8:	12f73623          	sd	a5,300(a4) # 3bc13310 <bulkBuf>
    3bc021ec:	00093783          	ld	a5,0(s2)
    3bc021f0:	03f7f693          	andi	a3,a5,63
    3bc021f4:	c689                	beqz	a3,3bc021fe <acm_app_init+0x9c>
    3bc021f6:	04000713          	li	a4,64
    3bc021fa:	9f15                	subw	a4,a4,a3
    3bc021fc:	97ba                	add	a5,a5,a4
    3bc021fe:	08000613          	li	a2,128
    3bc02202:	4581                	li	a1,0
    3bc02204:	00011717          	auipc	a4,0x11
    3bc02208:	12f73223          	sd	a5,292(a4) # 3bc13328 <cmdBuf>
    3bc0220c:	807fe0ef          	jal	ra,3bc00a12 <memset>
    3bc02210:	0009b503          	ld	a0,0(s3)
    3bc02214:	20000613          	li	a2,512
    3bc02218:	4581                	li	a1,0
    3bc0221a:	ff8fe0ef          	jal	ra,3bc00a12 <memset>
    3bc0221e:	00093503          	ld	a0,0(s2)
    3bc02222:	20000613          	li	a2,512
    3bc02226:	4581                	li	a1,0
    3bc02228:	feafe0ef          	jal	ra,3bc00a12 <memset>
    3bc0222c:	709c                	ld	a5,32(s1)
    3bc0222e:	8526                	mv	a0,s1
    3bc02230:	6b9c                	ld	a5,16(a5)
    3bc02232:	9782                	jalr	a5
    3bc02234:	00011797          	auipc	a5,0x11
    3bc02238:	10a7b223          	sd	a0,260(a5) # 3bc13338 <ep0Req>
    3bc0223c:	601c                	ld	a5,0(s0)
    3bc0223e:	53d8                	lw	a4,36(a5)
    3bc02240:	4791                	li	a5,4
    3bc02242:	02e7e263          	bltu	a5,a4,3bc02266 <acm_app_init+0x104>
    3bc02246:	00009797          	auipc	a5,0x9
    3bc0224a:	28a78793          	addi	a5,a5,650 # 3bc0b4d0 <bosDesc>
    3bc0224e:	4731                	li	a4,12
    3bc02250:	00e79123          	sh	a4,2(a5)
    3bc02254:	4705                	li	a4,1
    3bc02256:	00e78223          	sb	a4,4(a5)
    3bc0225a:	20100793          	li	a5,513
    3bc0225e:	00009717          	auipc	a4,0x9
    3bc02262:	34f71623          	sh	a5,844(a4) # 3bc0b5aa <devHsDesc+0x2>
    3bc02266:	00009797          	auipc	a5,0x9
    3bc0226a:	1f27b783          	ld	a5,498(a5) # 3bc0b458 <acm_buf>
    3bc0226e:	00011717          	auipc	a4,0x11
    3bc02272:	08f73d23          	sd	a5,154(a4) # 3bc13308 <acm>
    3bc02276:	000e1737          	lui	a4,0xe1
    3bc0227a:	c3d8                	sw	a4,4(a5)
    3bc0227c:	4721                	li	a4,8
    3bc0227e:	00079423          	sh	zero,8(a5)
    3bc02282:	00e78523          	sb	a4,10(a5)
    3bc02286:	70a2                	ld	ra,40(sp)
    3bc02288:	7402                	ld	s0,32(sp)
    3bc0228a:	00079623          	sh	zero,12(a5)
    3bc0228e:	64e2                	ld	s1,24(sp)
    3bc02290:	6942                	ld	s2,16(sp)
    3bc02292:	69a2                	ld	s3,8(sp)
    3bc02294:	4501                	li	a0,0
    3bc02296:	6145                	addi	sp,sp,48
    3bc02298:	8082                	ret

000000003bc0229a <usb_vbus_det>:
    3bc0229a:	030007b7          	lui	a5,0x3000
    3bc0229e:	43c8                	lw	a0,4(a5)
    3bc022a0:	2495350b          	extu	a0,a0,9,9
    3bc022a4:	8082                	ret

000000003bc022a6 <get_usb_polling_timeout_value>:
    3bc022a6:	1141                	addi	sp,sp,-16
    3bc022a8:	e406                	sd	ra,8(sp)
    3bc022aa:	93ffe0ef          	jal	ra,3bc00be8 <usb_id_det>
    3bc022ae:	3e800793          	li	a5,1000
    3bc022b2:	e911                	bnez	a0,3bc022c6 <get_usb_polling_timeout_value+0x20>
    3bc022b4:	0e0007b7          	lui	a5,0xe000
    3bc022b8:	639c                	ld	a5,0(a5)
    3bc022ba:	0417b78b          	extu	a5,a5,1,1
    3bc022be:	eb81                	bnez	a5,3bc022ce <get_usb_polling_timeout_value+0x28>
    3bc022c0:	6789                	lui	a5,0x2
    3bc022c2:	71078793          	addi	a5,a5,1808 # 2710 <__BSS_SIZE__-0x3500>
    3bc022c6:	60a2                	ld	ra,8(sp)
    3bc022c8:	853e                	mv	a0,a5
    3bc022ca:	0141                	addi	sp,sp,16
    3bc022cc:	8082                	ret
    3bc022ce:	67e1                	lui	a5,0x18
    3bc022d0:	69f78793          	addi	a5,a5,1695 # 1869f <__BSS_SIZE__+0x12a8f>
    3bc022d4:	bfcd                	j	3bc022c6 <get_usb_polling_timeout_value+0x20>

000000003bc022d6 <AcmApp>:
    3bc022d6:	7175                	addi	sp,sp,-144
    3bc022d8:	f0d2                	sd	s4,96(sp)
    3bc022da:	00011797          	auipc	a5,0x11
    3bc022de:	06a7bb23          	sd	a0,118(a5) # 3bc13350 <fip_buf>
    3bc022e2:	00011797          	auipc	a5,0x11
    3bc022e6:	0eb7af23          	sw	a1,254(a5) # 3bc133e0 <fip_tx_offset>
    3bc022ea:	00011a17          	auipc	s4,0x11
    3bc022ee:	0faa0a13          	addi	s4,s4,250 # 3bc133e4 <fip_tx_size>
    3bc022f2:	e506                	sd	ra,136(sp)
    3bc022f4:	e122                	sd	s0,128(sp)
    3bc022f6:	fca6                	sd	s1,120(sp)
    3bc022f8:	f8ca                	sd	s2,112(sp)
    3bc022fa:	f4ce                	sd	s3,104(sp)
    3bc022fc:	ecd6                	sd	s5,88(sp)
    3bc022fe:	e8da                	sd	s6,80(sp)
    3bc02300:	e4de                	sd	s7,72(sp)
    3bc02302:	e0e2                	sd	s8,64(sp)
    3bc02304:	fc66                	sd	s9,56(sp)
    3bc02306:	f86a                	sd	s10,48(sp)
    3bc02308:	f46e                	sd	s11,40(sp)
    3bc0230a:	00ca2023          	sw	a2,0(s4)
    3bc0230e:	0e0007b7          	lui	a5,0xe000
    3bc02312:	0007a223          	sw	zero,4(a5) # e000004 <p_rom_api_cryptodma_aes_decrypt+0x9bfff04>
    3bc02316:	f85ff0ef          	jal	ra,3bc0229a <usb_vbus_det>
    3bc0231a:	e909                	bnez	a0,3bc0232c <AcmApp+0x56>
    3bc0231c:	00008517          	auipc	a0,0x8
    3bc02320:	74c50513          	addi	a0,a0,1868 # 3bc0aa68 <__func__.1+0x2d8>
    3bc02324:	834fe0ef          	jal	ra,3bc00358 <tf_printf>
    3bc02328:	596d                	li	s2,-5
    3bc0232a:	a111                	j	3bc0272e <AcmApp+0x458>
    3bc0232c:	f7bff0ef          	jal	ra,3bc022a6 <get_usb_polling_timeout_value>
    3bc02330:	0005049b          	sext.w	s1,a0
    3bc02334:	85a6                	mv	a1,s1
    3bc02336:	00008517          	auipc	a0,0x8
    3bc0233a:	74a50513          	addi	a0,a0,1866 # 3bc0aa80 <__func__.1+0x2f0>
    3bc0233e:	81afe0ef          	jal	ra,3bc00358 <tf_printf>
    3bc02342:	67e1                	lui	a5,0x18
    3bc02344:	69e78793          	addi	a5,a5,1694 # 1869e <__BSS_SIZE__+0x12a8e>
    3bc02348:	0297f463          	bgeu	a5,s1,3bc02370 <AcmApp+0x9a>
    3bc0234c:	4785                	li	a5,1
    3bc0234e:	00008517          	auipc	a0,0x8
    3bc02352:	74a50513          	addi	a0,a0,1866 # 3bc0aa98 <__func__.1+0x308>
    3bc02356:	00011717          	auipc	a4,0x11
    3bc0235a:	0af70923          	sb	a5,178(a4) # 3bc13408 <flagEnterDL>
    3bc0235e:	ffbfd0ef          	jal	ra,3bc00358 <tf_printf>
    3bc02362:	c00037b7          	lui	a5,0xc0003
    3bc02366:	03000737          	lui	a4,0x3000
    3bc0236a:	078d                	addi	a5,a5,3
    3bc0236c:	08f72223          	sw	a5,132(a4) # 3000084 <__BSS_SIZE__+0x2ffa474>
    3bc02370:	85a6                	mv	a1,s1
    3bc02372:	00008517          	auipc	a0,0x8
    3bc02376:	72e50513          	addi	a0,a0,1838 # 3bc0aaa0 <__func__.1+0x310>
    3bc0237a:	fdffd0ef          	jal	ra,3bc00358 <tf_printf>
    3bc0237e:	3e800793          	li	a5,1000
    3bc02382:	029787bb          	mulw	a5,a5,s1
    3bc02386:	e43e                	sd	a5,8(sp)
    3bc02388:	c00037b7          	lui	a5,0xc0003
    3bc0238c:	10178793          	addi	a5,a5,257 # ffffffffc0003101 <__BL2_END__+0xffffffff843efcf1>
    3bc02390:	e83e                	sd	a5,16(sp)
    3bc02392:	c00017b7          	lui	a5,0xc0001
    3bc02396:	0791                	addi	a5,a5,4
    3bc02398:	ec3e                	sd	a5,24(sp)
    3bc0239a:	00011797          	auipc	a5,0x11
    3bc0239e:	f607bb23          	sd	zero,-138(a5) # 3bc13310 <bulkBuf>
    3bc023a2:	00011797          	auipc	a5,0x11
    3bc023a6:	f807b323          	sd	zero,-122(a5) # 3bc13328 <cmdBuf>
    3bc023aa:	00011797          	auipc	a5,0x11
    3bc023ae:	f807b323          	sd	zero,-122(a5) # 3bc13330 <ep0Buff>
    3bc023b2:	00011797          	auipc	a5,0x11
    3bc023b6:	f807b723          	sd	zero,-114(a5) # 3bc13340 <epIn>
    3bc023ba:	00011797          	auipc	a5,0x11
    3bc023be:	f807b723          	sd	zero,-114(a5) # 3bc13348 <epOut>
    3bc023c2:	00011797          	auipc	a5,0x11
    3bc023c6:	f407bb23          	sd	zero,-170(a5) # 3bc13318 <bulkInReq>
    3bc023ca:	00011797          	auipc	a5,0x11
    3bc023ce:	f407bb23          	sd	zero,-170(a5) # 3bc13320 <bulkOutReq>
    3bc023d2:	00011797          	auipc	a5,0x11
    3bc023d6:	f607b323          	sd	zero,-154(a5) # 3bc13338 <ep0Req>
    3bc023da:	00011797          	auipc	a5,0x11
    3bc023de:	020786a3          	sb	zero,45(a5) # 3bc13407 <configValue>
    3bc023e2:	00011797          	auipc	a5,0x11
    3bc023e6:	02078223          	sb	zero,36(a5) # 3bc13406 <configBreak>
    3bc023ea:	00011797          	auipc	a5,0x11
    3bc023ee:	00078da3          	sb	zero,27(a5) # 3bc13405 <acm_configValue>
    3bc023f2:	00011797          	auipc	a5,0x11
    3bc023f6:	00078ca3          	sb	zero,25(a5) # 3bc1340b <mem_alloc_cnt>
    3bc023fa:	00011797          	auipc	a5,0x11
    3bc023fe:	fe07a723          	sw	zero,-18(a5) # 3bc133e8 <transfer_size>
    3bc02402:	00011797          	auipc	a5,0x11
    3bc02406:	f007b323          	sd	zero,-250(a5) # 3bc13308 <acm>
    3bc0240a:	00011797          	auipc	a5,0x11
    3bc0240e:	fe078fa3          	sb	zero,-1(a5) # 3bc13409 <flagReboot>
    3bc02412:	bd9ff0ef          	jal	ra,3bc01fea <convert_buf_addr>
    3bc02416:	c77ff0ef          	jal	ra,3bc0208c <print_buf_addr>
    3bc0241a:	00009417          	auipc	s0,0x9
    3bc0241e:	1a640413          	addi	s0,s0,422 # 3bc0b5c0 <drv_obj>
    3bc02422:	00009797          	auipc	a5,0x9
    3bc02426:	24e7b783          	ld	a5,590(a5) # 3bc0b670 <handler>
    3bc0242a:	e41c                	sd	a5,8(s0)
    3bc0242c:	40000793          	li	a5,1024
    3bc02430:	c81c                	sw	a5,16(s0)
    3bc02432:	00009517          	auipc	a0,0x9
    3bc02436:	19650513          	addi	a0,a0,406 # 3bc0b5c8 <drv_obj+0x8>
    3bc0243a:	00009797          	auipc	a5,0x9
    3bc0243e:	25e7b783          	ld	a5,606(a5) # 3bc0b698 <setup_buf>
    3bc02442:	e43c                	sd	a5,72(s0)
    3bc02444:	6cd000ef          	jal	ra,3bc03310 <dwc2_udc_probe>
    3bc02448:	0005099b          	sext.w	s3,a0
    3bc0244c:	892a                	mv	s2,a0
    3bc0244e:	02099063          	bnez	s3,3bc0246e <AcmApp+0x198>
    3bc02452:	00009517          	auipc	a0,0x9
    3bc02456:	1c650513          	addi	a0,a0,454 # 3bc0b618 <g_driver>
    3bc0245a:	54f000ef          	jal	ra,3bc031a8 <usb_gadget_register_driver>
    3bc0245e:	02055763          	bgez	a0,3bc0248c <AcmApp+0x1b6>
    3bc02462:	00008517          	auipc	a0,0x8
    3bc02466:	66650513          	addi	a0,a0,1638 # 3bc0aac8 <__func__.1+0x338>
    3bc0246a:	eeffd0ef          	jal	ra,3bc00358 <tf_printf>
    3bc0246e:	85ce                	mv	a1,s3
    3bc02470:	00008517          	auipc	a0,0x8
    3bc02474:	6f050513          	addi	a0,a0,1776 # 3bc0ab60 <__func__.1+0x3d0>
    3bc02478:	ee1fd0ef          	jal	ra,3bc00358 <tf_printf>
    3bc0247c:	c00037b7          	lui	a5,0xc0003
    3bc02480:	03000737          	lui	a4,0x3000
    3bc02484:	079d                	addi	a5,a5,7
    3bc02486:	08f72223          	sw	a5,132(a4) # 3000084 <__BSS_SIZE__+0x2ffa474>
    3bc0248a:	a455                	j	3bc0272e <AcmApp+0x458>
    3bc0248c:	6000                	ld	s0,0(s0)
    3bc0248e:	e411                	bnez	s0,3bc0249a <AcmApp+0x1c4>
    3bc02490:	00008517          	auipc	a0,0x8
    3bc02494:	65850513          	addi	a0,a0,1624 # 3bc0aae8 <__func__.1+0x358>
    3bc02498:	bfc9                	j	3bc0246a <AcmApp+0x194>
    3bc0249a:	cc9ff0ef          	jal	ra,3bc02162 <acm_app_init>
    3bc0249e:	4501                	li	a0,0
    3bc024a0:	d1ffd0ef          	jal	ra,3bc001be <get_timer>
    3bc024a4:	6742                	ld	a4,16(sp)
    3bc024a6:	00011917          	auipc	s2,0x11
    3bc024aa:	f4690913          	addi	s2,s2,-186 # 3bc133ec <ts>
    3bc024ae:	00a92023          	sw	a0,0(s2)
    3bc024b2:	6522                	ld	a0,8(sp)
    3bc024b4:	030007b7          	lui	a5,0x3000
    3bc024b8:	08e7a223          	sw	a4,132(a5) # 3000084 <__BSS_SIZE__+0x2ffa474>
    3bc024bc:	cbffd0ef          	jal	ra,3bc0017a <trig_simulation_timer>
    3bc024c0:	681c                	ld	a5,16(s0)
    3bc024c2:	4585                	li	a1,1
    3bc024c4:	8522                	mv	a0,s0
    3bc024c6:	779c                	ld	a5,40(a5)
    3bc024c8:	00011997          	auipc	s3,0x11
    3bc024cc:	e5898993          	addi	s3,s3,-424 # 3bc13320 <bulkOutReq>
    3bc024d0:	00011b17          	auipc	s6,0x11
    3bc024d4:	f38b0b13          	addi	s6,s6,-200 # 3bc13408 <flagEnterDL>
    3bc024d8:	9782                	jalr	a5
    3bc024da:	00011a97          	auipc	s5,0x11
    3bc024de:	f2ba8a93          	addi	s5,s5,-213 # 3bc13405 <acm_configValue>
    3bc024e2:	000ac783          	lbu	a5,0(s5)
    3bc024e6:	18078663          	beqz	a5,3bc02672 <AcmApp+0x39c>
    3bc024ea:	6762                	ld	a4,24(sp)
    3bc024ec:	030007b7          	lui	a5,0x3000
    3bc024f0:	00043b83          	ld	s7,0(s0)
    3bc024f4:	08e7a223          	sw	a4,132(a5) # 3000084 <__BSS_SIZE__+0x2ffa474>
    3bc024f8:	4785                	li	a5,1
    3bc024fa:	00011717          	auipc	a4,0x11
    3bc024fe:	f0f708a3          	sb	a5,-239(a4) # 3bc1340b <mem_alloc_cnt>
    3bc02502:	08200c13          	li	s8,130
    3bc02506:	00011c97          	auipc	s9,0x11
    3bc0250a:	e42c8c93          	addi	s9,s9,-446 # 3bc13348 <epOut>
    3bc0250e:	00011d17          	auipc	s10,0x11
    3bc02512:	e0ad0d13          	addi	s10,s10,-502 # 3bc13318 <bulkInReq>
    3bc02516:	00011d97          	auipc	s11,0x11
    3bc0251a:	e2ad8d93          	addi	s11,s11,-470 # 3bc13340 <epIn>
    3bc0251e:	19741b63          	bne	s0,s7,3bc026b4 <AcmApp+0x3de>
    3bc02522:	02044783          	lbu	a5,32(s0)
    3bc02526:	470d                	li	a4,3
    3bc02528:	1ee78063          	beq	a5,a4,3bc02708 <AcmApp+0x432>
    3bc0252c:	4715                	li	a4,5
    3bc0252e:	1ee78063          	beq	a5,a4,3bc0270e <AcmApp+0x438>
    3bc02532:	4709                	li	a4,2
    3bc02534:	dee79ae3          	bne	a5,a4,3bc02328 <AcmApp+0x52>
    3bc02538:	04000793          	li	a5,64
    3bc0253c:	0009b503          	ld	a0,0(s3)
    3bc02540:	04000613          	li	a2,64
    3bc02544:	4581                	li	a1,0
    3bc02546:	00011717          	auipc	a4,0x11
    3bc0254a:	eaf72123          	sw	a5,-350(a4) # 3bc133e8 <transfer_size>
    3bc0254e:	cc4fe0ef          	jal	ra,3bc00a12 <memset>
    3bc02552:	0009b783          	ld	a5,0(s3)
    3bc02556:	00011717          	auipc	a4,0x11
    3bc0255a:	dd273703          	ld	a4,-558(a4) # 3bc13328 <cmdBuf>
    3bc0255e:	00011b97          	auipc	s7,0x11
    3bc02562:	e8ab8b93          	addi	s7,s7,-374 # 3bc133e8 <transfer_size>
    3bc02566:	eb98                	sd	a4,16(a5)
    3bc02568:	cfd8                	sw	a4,28(a5)
    3bc0256a:	fffff717          	auipc	a4,0xfffff
    3bc0256e:	33270713          	addi	a4,a4,818 # 3bc0189c <bulkOutCmpl>
    3bc02572:	f798                	sd	a4,40(a5)
    3bc02574:	00011c17          	auipc	s8,0x11
    3bc02578:	da4c0c13          	addi	s8,s8,-604 # 3bc13318 <bulkInReq>
    3bc0257c:	000ba703          	lw	a4,0(s7)
    3bc02580:	000c3503          	ld	a0,0(s8)
    3bc02584:	04000613          	li	a2,64
    3bc02588:	cf98                	sw	a4,24(a5)
    3bc0258a:	4581                	li	a1,0
    3bc0258c:	c86fe0ef          	jal	ra,3bc00a12 <memset>
    3bc02590:	000c3783          	ld	a5,0(s8)
    3bc02594:	00011717          	auipc	a4,0x11
    3bc02598:	d7c73703          	ld	a4,-644(a4) # 3bc13310 <bulkBuf>
    3bc0259c:	00011517          	auipc	a0,0x11
    3bc025a0:	dac53503          	ld	a0,-596(a0) # 3bc13348 <epOut>
    3bc025a4:	eb98                	sd	a4,16(a5)
    3bc025a6:	cfd8                	sw	a4,28(a5)
    3bc025a8:	fffff717          	auipc	a4,0xfffff
    3bc025ac:	5ae70713          	addi	a4,a4,1454 # 3bc01b56 <bulkInCmpl>
    3bc025b0:	f798                	sd	a4,40(a5)
    3bc025b2:	000ba703          	lw	a4,0(s7)
    3bc025b6:	0009b583          	ld	a1,0(s3)
    3bc025ba:	4b85                	li	s7,1
    3bc025bc:	cf98                	sw	a4,24(a5)
    3bc025be:	711c                	ld	a5,32(a0)
    3bc025c0:	739c                	ld	a5,32(a5)
    3bc025c2:	9782                	jalr	a5
    3bc025c4:	500c                	lw	a1,32(s0)
    3bc025c6:	00008517          	auipc	a0,0x8
    3bc025ca:	55a50513          	addi	a0,a0,1370 # 3bc0ab20 <__func__.1+0x390>
    3bc025ce:	d8bfd0ef          	jal	ra,3bc00358 <tf_printf>
    3bc025d2:	4501                	li	a0,0
    3bc025d4:	bebfd0ef          	jal	ra,3bc001be <get_timer>
    3bc025d8:	00a92023          	sw	a0,0(s2)
    3bc025dc:	b81ff0ef          	jal	ra,3bc0215c <AcmIsr>
    3bc025e0:	000ac783          	lbu	a5,0(s5)
    3bc025e4:	ee078be3          	beqz	a5,3bc024da <AcmApp+0x204>
    3bc025e8:	00011797          	auipc	a5,0x11
    3bc025ec:	e1e78793          	addi	a5,a5,-482 # 3bc13406 <configBreak>
    3bc025f0:	0007c783          	lbu	a5,0(a5)
    3bc025f4:	eb95                	bnez	a5,3bc02628 <AcmApp+0x352>
    3bc025f6:	000b4783          	lbu	a5,0(s6)
    3bc025fa:	10079d63          	bnez	a5,3bc02714 <AcmApp+0x43e>
    3bc025fe:	00092503          	lw	a0,0(s2)
    3bc02602:	bbdfd0ef          	jal	ra,3bc001be <get_timer>
    3bc02606:	2501                	sext.w	a0,a0
    3bc02608:	fca4fae3          	bgeu	s1,a0,3bc025dc <AcmApp+0x306>
    3bc0260c:	85a6                	mv	a1,s1
    3bc0260e:	00008517          	auipc	a0,0x8
    3bc02612:	53250513          	addi	a0,a0,1330 # 3bc0ab40 <__func__.1+0x3b0>
    3bc02616:	d43fd0ef          	jal	ra,3bc00358 <tf_printf>
    3bc0261a:	c00037b7          	lui	a5,0xc0003
    3bc0261e:	03000737          	lui	a4,0x3000
    3bc02622:	0795                	addi	a5,a5,5
    3bc02624:	08f72223          	sw	a5,132(a4) # 3000084 <__BSS_SIZE__+0x2ffa474>
    3bc02628:	00008517          	auipc	a0,0x8
    3bc0262c:	53050513          	addi	a0,a0,1328 # 3bc0ab58 <__func__.1+0x3c8>
    3bc02630:	d29fd0ef          	jal	ra,3bc00358 <tf_printf>
    3bc02634:	c00037b7          	lui	a5,0xc0003
    3bc02638:	03000737          	lui	a4,0x3000
    3bc0263c:	0799                	addi	a5,a5,6
    3bc0263e:	08f72223          	sw	a5,132(a4) # 3000084 <__BSS_SIZE__+0x2ffa474>
    3bc02642:	681c                	ld	a5,16(s0)
    3bc02644:	4581                	li	a1,0
    3bc02646:	8522                	mv	a0,s0
    3bc02648:	779c                	ld	a5,40(a5)
    3bc0264a:	9782                	jalr	a5
    3bc0264c:	00009517          	auipc	a0,0x9
    3bc02650:	fcc50513          	addi	a0,a0,-52 # 3bc0b618 <g_driver>
    3bc02654:	380000ef          	jal	ra,3bc029d4 <usb_gadget_unregister_driver>
    3bc02658:	0e0007b7          	lui	a5,0xe000
    3bc0265c:	0047a903          	lw	s2,4(a5) # e000004 <p_rom_api_cryptodma_aes_decrypt+0x9bfff04>
    3bc02660:	4d4757b7          	lui	a5,0x4d475
    3bc02664:	e3178793          	addi	a5,a5,-463 # 4d474e31 <__BL2_END__+0x11861a21>
    3bc02668:	40f90933          	sub	s2,s2,a5
    3bc0266c:	00193913          	seqz	s2,s2
    3bc02670:	a87d                	j	3bc0272e <AcmApp+0x458>
    3bc02672:	aebff0ef          	jal	ra,3bc0215c <AcmIsr>
    3bc02676:	00092503          	lw	a0,0(s2)
    3bc0267a:	b45fd0ef          	jal	ra,3bc001be <get_timer>
    3bc0267e:	2501                	sext.w	a0,a0
    3bc02680:	02a4f363          	bgeu	s1,a0,3bc026a6 <AcmApp+0x3d0>
    3bc02684:	000b4783          	lbu	a5,0(s6)
    3bc02688:	ef99                	bnez	a5,3bc026a6 <AcmApp+0x3d0>
    3bc0268a:	00008517          	auipc	a0,0x8
    3bc0268e:	48650513          	addi	a0,a0,1158 # 3bc0ab10 <__func__.1+0x380>
    3bc02692:	cc7fd0ef          	jal	ra,3bc00358 <tf_printf>
    3bc02696:	c00037b7          	lui	a5,0xc0003
    3bc0269a:	03000737          	lui	a4,0x3000
    3bc0269e:	0791                	addi	a5,a5,4
    3bc026a0:	08f72223          	sw	a5,132(a4) # 3000084 <__BSS_SIZE__+0x2ffa474>
    3bc026a4:	b151                	j	3bc02328 <AcmApp+0x52>
    3bc026a6:	00011797          	auipc	a5,0x11
    3bc026aa:	d637c783          	lbu	a5,-669(a5) # 3bc13409 <flagReboot>
    3bc026ae:	e20786e3          	beqz	a5,3bc024da <AcmApp+0x204>
    3bc026b2:	b1e5                	j	3bc0239a <AcmApp+0xc4>
    3bc026b4:	030bb703          	ld	a4,48(s7)
    3bc026b8:	c305                	beqz	a4,3bc026d8 <AcmApp+0x402>
    3bc026ba:	00274703          	lbu	a4,2(a4)
    3bc026be:	08100793          	li	a5,129
    3bc026c2:	00f71e63          	bne	a4,a5,3bc026de <AcmApp+0x408>
    3bc026c6:	020bb703          	ld	a4,32(s7)
    3bc026ca:	855e                	mv	a0,s7
    3bc026cc:	6b18                	ld	a4,16(a4)
    3bc026ce:	9702                	jalr	a4
    3bc026d0:	00ad3023          	sd	a0,0(s10)
    3bc026d4:	017db023          	sd	s7,0(s11)
    3bc026d8:	000bbb83          	ld	s7,0(s7)
    3bc026dc:	b589                	j	3bc0251e <AcmApp+0x248>
    3bc026de:	4785                	li	a5,1
    3bc026e0:	00f71c63          	bne	a4,a5,3bc026f8 <AcmApp+0x422>
    3bc026e4:	020bb703          	ld	a4,32(s7)
    3bc026e8:	855e                	mv	a0,s7
    3bc026ea:	6b18                	ld	a4,16(a4)
    3bc026ec:	9702                	jalr	a4
    3bc026ee:	00a9b023          	sd	a0,0(s3)
    3bc026f2:	017cb023          	sd	s7,0(s9)
    3bc026f6:	b7cd                	j	3bc026d8 <AcmApp+0x402>
    3bc026f8:	ff8710e3          	bne	a4,s8,3bc026d8 <AcmApp+0x402>
    3bc026fc:	020bb703          	ld	a4,32(s7)
    3bc02700:	855e                	mv	a0,s7
    3bc02702:	6b18                	ld	a4,16(a4)
    3bc02704:	9702                	jalr	a4
    3bc02706:	bfc9                	j	3bc026d8 <AcmApp+0x402>
    3bc02708:	20000793          	li	a5,512
    3bc0270c:	bd05                	j	3bc0253c <AcmApp+0x266>
    3bc0270e:	40000793          	li	a5,1024
    3bc02712:	b52d                	j	3bc0253c <AcmApp+0x266>
    3bc02714:	ed7794e3          	bne	a5,s7,3bc025dc <AcmApp+0x306>
    3bc02718:	000a2783          	lw	a5,0(s4)
    3bc0271c:	ec0790e3          	bnez	a5,3bc025dc <AcmApp+0x306>
    3bc02720:	00008517          	auipc	a0,0x8
    3bc02724:	43050513          	addi	a0,a0,1072 # 3bc0ab50 <__func__.1+0x3c0>
    3bc02728:	c31fd0ef          	jal	ra,3bc00358 <tf_printf>
    3bc0272c:	4905                	li	s2,1
    3bc0272e:	60aa                	ld	ra,136(sp)
    3bc02730:	640a                	ld	s0,128(sp)
    3bc02732:	74e6                	ld	s1,120(sp)
    3bc02734:	79a6                	ld	s3,104(sp)
    3bc02736:	7a06                	ld	s4,96(sp)
    3bc02738:	6ae6                	ld	s5,88(sp)
    3bc0273a:	6b46                	ld	s6,80(sp)
    3bc0273c:	6ba6                	ld	s7,72(sp)
    3bc0273e:	6c06                	ld	s8,64(sp)
    3bc02740:	7ce2                	ld	s9,56(sp)
    3bc02742:	7d42                	ld	s10,48(sp)
    3bc02744:	7da2                	ld	s11,40(sp)
    3bc02746:	854a                	mv	a0,s2
    3bc02748:	7946                	ld	s2,112(sp)
    3bc0274a:	6149                	addi	sp,sp,144
    3bc0274c:	8082                	ret

000000003bc0274e <dwc2_fifo_status>:
    3bc0274e:	c909                	beqz	a0,3bc02760 <dwc2_fifo_status+0x12>
    3bc02750:	07150783          	lb	a5,113(a0)
    3bc02754:	4501                	li	a0,0
    3bc02756:	0007d663          	bgez	a5,3bc02762 <dwc2_fifo_status+0x14>
    3bc0275a:	fd300513          	li	a0,-45
    3bc0275e:	8082                	ret
    3bc02760:	5535                	li	a0,-19
    3bc02762:	8082                	ret

000000003bc02764 <dwc2_free_request>:
    3bc02764:	61b8                	ld	a4,64(a1)
    3bc02766:	7179                	addi	sp,sp,-48
    3bc02768:	f022                	sd	s0,32(sp)
    3bc0276a:	ec26                	sd	s1,24(sp)
    3bc0276c:	00011417          	auipc	s0,0x11
    3bc02770:	c5443403          	ld	s0,-940(s0) # 3bc133c0 <the_controller>
    3bc02774:	f406                	sd	ra,40(sp)
    3bc02776:	04058793          	addi	a5,a1,64
    3bc0277a:	7c04                	ld	s1,56(s0)
    3bc0277c:	00f70a63          	beq	a4,a5,3bc02790 <dwc2_free_request+0x2c>
    3bc02780:	00008517          	auipc	a0,0x8
    3bc02784:	42850513          	addi	a0,a0,1064 # 3bc0aba8 <__func__.5+0x8>
    3bc02788:	e42e                	sd	a1,8(sp)
    3bc0278a:	bcffd0ef          	jal	ra,3bc00358 <tf_printf>
    3bc0278e:	65a2                	ld	a1,8(sp)
    3bc02790:	8522                	mv	a0,s0
    3bc02792:	7402                	ld	s0,32(sp)
    3bc02794:	68bc                	ld	a5,80(s1)
    3bc02796:	70a2                	ld	ra,40(sp)
    3bc02798:	64e2                	ld	s1,24(sp)
    3bc0279a:	6145                	addi	sp,sp,48
    3bc0279c:	8782                	jr	a5

000000003bc0279e <pullup>:
    3bc0279e:	7179                	addi	sp,sp,-48
    3bc027a0:	ec26                	sd	s1,24(sp)
    3bc027a2:	00011497          	auipc	s1,0x11
    3bc027a6:	c1648493          	addi	s1,s1,-1002 # 3bc133b8 <reg>
    3bc027aa:	6088                	ld	a0,0(s1)
    3bc027ac:	f022                	sd	s0,32(sp)
    3bc027ae:	6405                	lui	s0,0x1
    3bc027b0:	80440413          	addi	s0,s0,-2044 # 804 <__BSS_SIZE__-0x540c>
    3bc027b4:	9522                	add	a0,a0,s0
    3bc027b6:	e42e                	sd	a1,8(sp)
    3bc027b8:	f406                	sd	ra,40(sp)
    3bc027ba:	f85fe0ef          	jal	ra,3bc0173e <DWC2_UncachedRead32>
    3bc027be:	65a2                	ld	a1,8(sp)
    3bc027c0:	609c                	ld	a5,0(s1)
    3bc027c2:	2501                	sext.w	a0,a0
    3bc027c4:	ed89                	bnez	a1,3bc027de <pullup+0x40>
    3bc027c6:	008785b3          	add	a1,a5,s0
    3bc027ca:	00256513          	ori	a0,a0,2
    3bc027ce:	f77fe0ef          	jal	ra,3bc01744 <DWC2_UncachedWrite32>
    3bc027d2:	70a2                	ld	ra,40(sp)
    3bc027d4:	7402                	ld	s0,32(sp)
    3bc027d6:	64e2                	ld	s1,24(sp)
    3bc027d8:	4501                	li	a0,0
    3bc027da:	6145                	addi	sp,sp,48
    3bc027dc:	8082                	ret
    3bc027de:	008785b3          	add	a1,a5,s0
    3bc027e2:	9975                	andi	a0,a0,-3
    3bc027e4:	b7ed                	j	3bc027ce <pullup+0x30>

000000003bc027e6 <dwc2_alloc_request>:
    3bc027e6:	00011517          	auipc	a0,0x11
    3bc027ea:	bda53503          	ld	a0,-1062(a0) # 3bc133c0 <the_controller>
    3bc027ee:	7d1c                	ld	a5,56(a0)
    3bc027f0:	1141                	addi	sp,sp,-16
    3bc027f2:	e022                	sd	s0,0(sp)
    3bc027f4:	67bc                	ld	a5,72(a5)
    3bc027f6:	e406                	sd	ra,8(sp)
    3bc027f8:	05000593          	li	a1,80
    3bc027fc:	9782                	jalr	a5
    3bc027fe:	842a                	mv	s0,a0
    3bc02800:	c911                	beqz	a0,3bc02814 <dwc2_alloc_request+0x2e>
    3bc02802:	05000613          	li	a2,80
    3bc02806:	4581                	li	a1,0
    3bc02808:	a0afe0ef          	jal	ra,3bc00a12 <memset>
    3bc0280c:	04040793          	addi	a5,s0,64
    3bc02810:	e03c                	sd	a5,64(s0)
    3bc02812:	e43c                	sd	a5,72(s0)
    3bc02814:	60a2                	ld	ra,8(sp)
    3bc02816:	8522                	mv	a0,s0
    3bc02818:	6402                	ld	s0,0(sp)
    3bc0281a:	0141                	addi	sp,sp,16
    3bc0281c:	8082                	ret

000000003bc0281e <dwc2_ep_enable>:
    3bc0281e:	cd51                	beqz	a0,3bc028ba <dwc2_ep_enable+0x9c>
    3bc02820:	1141                	addi	sp,sp,-16
    3bc02822:	e022                	sd	s0,0(sp)
    3bc02824:	e406                	sd	ra,8(sp)
    3bc02826:	842a                	mv	s0,a0
    3bc02828:	5529                	li	a0,-22
    3bc0282a:	c5c1                	beqz	a1,3bc028b2 <dwc2_ep_enable+0x94>
    3bc0282c:	603c                	ld	a5,64(s0)
    3bc0282e:	e3d1                	bnez	a5,3bc028b2 <dwc2_ep_enable+0x94>
    3bc02830:	6c18                	ld	a4,24(s0)
    3bc02832:	00008797          	auipc	a5,0x8
    3bc02836:	62e78793          	addi	a5,a5,1582 # 3bc0ae60 <ep0name>
    3bc0283a:	06f70c63          	beq	a4,a5,3bc028b2 <dwc2_ep_enable+0x94>
    3bc0283e:	0015c703          	lbu	a4,1(a1)
    3bc02842:	4795                	li	a5,5
    3bc02844:	06f71763          	bne	a4,a5,3bc028b2 <dwc2_ep_enable+0x94>
    3bc02848:	07144703          	lbu	a4,113(s0)
    3bc0284c:	0025c783          	lbu	a5,2(a1)
    3bc02850:	06f71163          	bne	a4,a5,3bc028b2 <dwc2_ep_enable+0x94>
    3bc02854:	0045d783          	lhu	a5,4(a1)
    3bc02858:	02845703          	lhu	a4,40(s0)
    3bc0285c:	04f76b63          	bltu	a4,a5,3bc028b2 <dwc2_ep_enable+0x94>
    3bc02860:	07244683          	lbu	a3,114(s0)
    3bc02864:	0035c703          	lbu	a4,3(a1)
    3bc02868:	00e68863          	beq	a3,a4,3bc02878 <dwc2_ep_enable+0x5a>
    3bc0286c:	4609                	li	a2,2
    3bc0286e:	00c68563          	beq	a3,a2,3bc02878 <dwc2_ep_enable+0x5a>
    3bc02872:	468d                	li	a3,3
    3bc02874:	02d71f63          	bne	a4,a3,3bc028b2 <dwc2_ep_enable+0x94>
    3bc02878:	fde00513          	li	a0,-34
    3bc0287c:	cb9d                	beqz	a5,3bc028b2 <dwc2_ep_enable+0x94>
    3bc0287e:	7c18                	ld	a4,56(s0)
    3bc02880:	fc600513          	li	a0,-58
    3bc02884:	7f14                	ld	a3,56(a4)
    3bc02886:	c695                	beqz	a3,3bc028b2 <dwc2_ep_enable+0x94>
    3bc02888:	5318                	lw	a4,32(a4)
    3bc0288a:	c705                	beqz	a4,3bc028b2 <dwc2_ep_enable+0x94>
    3bc0288c:	02f41423          	sh	a5,40(s0)
    3bc02890:	f80c                	sd	a1,48(s0)
    3bc02892:	e02c                	sd	a1,64(s0)
    3bc02894:	8522                	mv	a0,s0
    3bc02896:	06040823          	sb	zero,112(s0)
    3bc0289a:	04043c23          	sd	zero,88(s0)
    3bc0289e:	35e010ef          	jal	ra,3bc03bfc <dwc2_udc_set_nak>
    3bc028a2:	4581                	li	a1,0
    3bc028a4:	8522                	mv	a0,s0
    3bc028a6:	396010ef          	jal	ra,3bc03c3c <dwc2_udc_set_halt>
    3bc028aa:	8522                	mv	a0,s0
    3bc028ac:	3f2010ef          	jal	ra,3bc03c9e <dwc2_udc_ep_activate>
    3bc028b0:	4501                	li	a0,0
    3bc028b2:	60a2                	ld	ra,8(sp)
    3bc028b4:	6402                	ld	s0,0(sp)
    3bc028b6:	0141                	addi	sp,sp,16
    3bc028b8:	8082                	ret
    3bc028ba:	5529                	li	a0,-22
    3bc028bc:	8082                	ret

000000003bc028be <dwc2_fifo_flush>:
    3bc028be:	8082                	ret

000000003bc028c0 <dwc2_log_write>:
    3bc028c0:	8082                	ret

000000003bc028c2 <dwc2_get_ep0_name>:
    3bc028c2:	00008517          	auipc	a0,0x8
    3bc028c6:	59e50513          	addi	a0,a0,1438 # 3bc0ae60 <ep0name>
    3bc028ca:	8082                	ret

000000003bc028cc <udc_reinit>:
    3bc028cc:	6d1c                	ld	a5,24(a0)
    3bc028ce:	f8a5550b          	sdd	a0,a0,(a0),0,4
    3bc028d2:	29850613          	addi	a2,a0,664
    3bc028d6:	f8f7d78b          	sdd	a5,a5,(a5),0,4
    3bc028da:	04052423          	sw	zero,72(a0)
    3bc028de:	09850793          	addi	a5,a0,152
    3bc028e2:	fe07bc23          	sd	zero,-8(a5)
    3bc028e6:	02078423          	sb	zero,40(a5)
    3bc028ea:	f8f7d78b          	sdd	a5,a5,(a5),0,4
    3bc028ee:	0007b823          	sd	zero,16(a5)
    3bc028f2:	08078713          	addi	a4,a5,128
    3bc028f6:	00c71363          	bne	a4,a2,3bc028fc <udc_reinit+0x30>
    3bc028fa:	8082                	ret
    3bc028fc:	6514                	ld	a3,8(a0)
    3bc028fe:	03878793          	addi	a5,a5,56
    3bc02902:	e51c                	sd	a5,8(a0)
    3bc02904:	faa73c23          	sd	a0,-72(a4)
    3bc02908:	fcd73023          	sd	a3,-64(a4)
    3bc0290c:	e29c                	sd	a5,0(a3)
    3bc0290e:	87ba                	mv	a5,a4
    3bc02910:	bfc9                	j	3bc028e2 <udc_reinit+0x16>

000000003bc02912 <dwc2_done>:
    3bc02912:	65b8                	ld	a4,72(a1)
    3bc02914:	61b4                	ld	a3,64(a1)
    3bc02916:	1101                	addi	sp,sp,-32
    3bc02918:	ec06                	sd	ra,24(sp)
    3bc0291a:	e822                	sd	s0,16(sp)
    3bc0291c:	07054403          	lbu	s0,112(a0)
    3bc02920:	e698                	sd	a4,8(a3)
    3bc02922:	e314                	sd	a3,0(a4)
    3bc02924:	5d98                	lw	a4,56(a1)
    3bc02926:	04058793          	addi	a5,a1,64
    3bc0292a:	e1bc                	sd	a5,64(a1)
    3bc0292c:	e5bc                	sd	a5,72(a1)
    3bc0292e:	fdc00793          	li	a5,-36
    3bc02932:	00f71363          	bne	a4,a5,3bc02938 <dwc2_done+0x26>
    3bc02936:	dd90                	sw	a2,56(a1)
    3bc02938:	4785                	li	a5,1
    3bc0293a:	06f50823          	sb	a5,112(a0)
    3bc0293e:	759c                	ld	a5,40(a1)
    3bc02940:	e42a                	sd	a0,8(sp)
    3bc02942:	9782                	jalr	a5
    3bc02944:	6522                	ld	a0,8(sp)
    3bc02946:	06850823          	sb	s0,112(a0)
    3bc0294a:	60e2                	ld	ra,24(sp)
    3bc0294c:	6442                	ld	s0,16(sp)
    3bc0294e:	6105                	addi	sp,sp,32
    3bc02950:	8082                	ret

000000003bc02952 <dwc2_dequeue>:
    3bc02952:	c539                	beqz	a0,3bc029a0 <dwc2_dequeue+0x4e>
    3bc02954:	6d14                	ld	a3,24(a0)
    3bc02956:	00008797          	auipc	a5,0x8
    3bc0295a:	50a78793          	addi	a5,a5,1290 # 3bc0ae60 <ep0name>
    3bc0295e:	5729                	li	a4,-22
    3bc02960:	04f68163          	beq	a3,a5,3bc029a2 <dwc2_dequeue+0x50>
    3bc02964:	872a                	mv	a4,a0
    3bc02966:	6e97478b          	ldib	a5,(a4),9,3
    3bc0296a:	fc078793          	addi	a5,a5,-64
    3bc0296e:	86be                	mv	a3,a5
    3bc02970:	6e86c60b          	ldib	a2,(a3),8,3
    3bc02974:	02e69163          	bne	a3,a4,3bc02996 <dwc2_dequeue+0x44>
    3bc02978:	5729                	li	a4,-22
    3bc0297a:	02f59463          	bne	a1,a5,3bc029a2 <dwc2_dequeue+0x50>
    3bc0297e:	1141                	addi	sp,sp,-16
    3bc02980:	fca00613          	li	a2,-54
    3bc02984:	85be                	mv	a1,a5
    3bc02986:	e406                	sd	ra,8(sp)
    3bc02988:	f8bff0ef          	jal	ra,3bc02912 <dwc2_done>
    3bc0298c:	60a2                	ld	ra,8(sp)
    3bc0298e:	4701                	li	a4,0
    3bc02990:	853a                	mv	a0,a4
    3bc02992:	0141                	addi	sp,sp,16
    3bc02994:	8082                	ret
    3bc02996:	fef584e3          	beq	a1,a5,3bc0297e <dwc2_dequeue+0x2c>
    3bc0299a:	fc060793          	addi	a5,a2,-64
    3bc0299e:	bfc1                	j	3bc0296e <dwc2_dequeue+0x1c>
    3bc029a0:	5729                	li	a4,-22
    3bc029a2:	853a                	mv	a0,a4
    3bc029a4:	8082                	ret

000000003bc029a6 <dwc2_nuke>:
    3bc029a6:	7179                	addi	sp,sp,-48
    3bc029a8:	f022                	sd	s0,32(sp)
    3bc029aa:	ec26                	sd	s1,24(sp)
    3bc029ac:	f406                	sd	ra,40(sp)
    3bc029ae:	84ae                	mv	s1,a1
    3bc029b0:	04850413          	addi	s0,a0,72
    3bc029b4:	652c                	ld	a1,72(a0)
    3bc029b6:	00859763          	bne	a1,s0,3bc029c4 <dwc2_nuke+0x1e>
    3bc029ba:	70a2                	ld	ra,40(sp)
    3bc029bc:	7402                	ld	s0,32(sp)
    3bc029be:	64e2                	ld	s1,24(sp)
    3bc029c0:	6145                	addi	sp,sp,48
    3bc029c2:	8082                	ret
    3bc029c4:	8626                	mv	a2,s1
    3bc029c6:	fc058593          	addi	a1,a1,-64
    3bc029ca:	e42a                	sd	a0,8(sp)
    3bc029cc:	f47ff0ef          	jal	ra,3bc02912 <dwc2_done>
    3bc029d0:	6522                	ld	a0,8(sp)
    3bc029d2:	b7cd                	j	3bc029b4 <dwc2_nuke+0xe>

000000003bc029d4 <usb_gadget_unregister_driver>:
    3bc029d4:	7139                	addi	sp,sp,-64
    3bc029d6:	f822                	sd	s0,48(sp)
    3bc029d8:	fc06                	sd	ra,56(sp)
    3bc029da:	f426                	sd	s1,40(sp)
    3bc029dc:	f04a                	sd	s2,32(sp)
    3bc029de:	ec4e                	sd	s3,24(sp)
    3bc029e0:	e852                	sd	s4,16(sp)
    3bc029e2:	e456                	sd	s5,8(sp)
    3bc029e4:	00011417          	auipc	s0,0x11
    3bc029e8:	9dc43403          	ld	s0,-1572(s0) # 3bc133c0 <the_controller>
    3bc029ec:	cc3d                	beqz	s0,3bc02a6a <usb_gadget_unregister_driver+0x96>
    3bc029ee:	84aa                	mv	s1,a0
    3bc029f0:	5529                	li	a0,-22
    3bc029f2:	c0bd                	beqz	s1,3bc02a58 <usb_gadget_unregister_driver+0x84>
    3bc029f4:	7c18                	ld	a4,56(s0)
    3bc029f6:	06971163          	bne	a4,s1,3bc02a58 <usb_gadget_unregister_driver+0x84>
    3bc029fa:	5018                	lw	a4,32(s0)
    3bc029fc:	02043c23          	sd	zero,56(s0)
    3bc02a00:	89a6                	mv	s3,s1
    3bc02a02:	e311                	bnez	a4,3bc02a06 <usb_gadget_unregister_driver+0x32>
    3bc02a04:	4981                	li	s3,0
    3bc02a06:	02042023          	sw	zero,32(s0)
    3bc02a0a:	05040913          	addi	s2,s0,80
    3bc02a0e:	25040a13          	addi	s4,s0,592
    3bc02a12:	4a85                	li	s5,1
    3bc02a14:	07590823          	sb	s5,112(s2)
    3bc02a18:	854a                	mv	a0,s2
    3bc02a1a:	fc600593          	li	a1,-58
    3bc02a1e:	08090913          	addi	s2,s2,128
    3bc02a22:	f85ff0ef          	jal	ra,3bc029a6 <dwc2_nuke>
    3bc02a26:	ff4917e3          	bne	s2,s4,3bc02a14 <usb_gadget_unregister_driver+0x40>
    3bc02a2a:	00098663          	beqz	s3,3bc02a36 <usb_gadget_unregister_driver+0x62>
    3bc02a2e:	0289b783          	ld	a5,40(s3)
    3bc02a32:	8522                	mv	a0,s0
    3bc02a34:	9782                	jalr	a5
    3bc02a36:	8522                	mv	a0,s0
    3bc02a38:	e95ff0ef          	jal	ra,3bc028cc <udc_reinit>
    3bc02a3c:	6c9c                	ld	a5,24(s1)
    3bc02a3e:	8522                	mv	a0,s0
    3bc02a40:	9782                	jalr	a5
    3bc02a42:	8522                	mv	a0,s0
    3bc02a44:	4581                	li	a1,0
    3bc02a46:	106010ef          	jal	ra,3bc03b4c <dwc2_set_address>
    3bc02a4a:	4501                	li	a0,0
    3bc02a4c:	04042423          	sw	zero,72(s0)
    3bc02a50:	02042023          	sw	zero,32(s0)
    3bc02a54:	24040823          	sb	zero,592(s0)
    3bc02a58:	70e2                	ld	ra,56(sp)
    3bc02a5a:	7442                	ld	s0,48(sp)
    3bc02a5c:	74a2                	ld	s1,40(sp)
    3bc02a5e:	7902                	ld	s2,32(sp)
    3bc02a60:	69e2                	ld	s3,24(sp)
    3bc02a62:	6a42                	ld	s4,16(sp)
    3bc02a64:	6aa2                	ld	s5,8(sp)
    3bc02a66:	6121                	addi	sp,sp,64
    3bc02a68:	8082                	ret
    3bc02a6a:	5535                	li	a0,-19
    3bc02a6c:	b7f5                	j	3bc02a58 <usb_gadget_unregister_driver+0x84>

000000003bc02a6e <dwc2_hsotg_set_bit>:
    3bc02a6e:	1101                	addi	sp,sp,-32
    3bc02a70:	e822                	sd	s0,16(sp)
    3bc02a72:	e426                	sd	s1,8(sp)
    3bc02a74:	ec06                	sd	ra,24(sp)
    3bc02a76:	842e                	mv	s0,a1
    3bc02a78:	84aa                	mv	s1,a0
    3bc02a7a:	cc5fe0ef          	jal	ra,3bc0173e <DWC2_UncachedRead32>
    3bc02a7e:	2501                	sext.w	a0,a0
    3bc02a80:	8d41                	or	a0,a0,s0
    3bc02a82:	6442                	ld	s0,16(sp)
    3bc02a84:	60e2                	ld	ra,24(sp)
    3bc02a86:	85a6                	mv	a1,s1
    3bc02a88:	64a2                	ld	s1,8(sp)
    3bc02a8a:	6105                	addi	sp,sp,32
    3bc02a8c:	cb9fe06f          	j	3bc01744 <DWC2_UncachedWrite32>

000000003bc02a90 <dwc2_hsotg_clear_bit>:
    3bc02a90:	1101                	addi	sp,sp,-32
    3bc02a92:	e822                	sd	s0,16(sp)
    3bc02a94:	ec06                	sd	ra,24(sp)
    3bc02a96:	842a                	mv	s0,a0
    3bc02a98:	e42e                	sd	a1,8(sp)
    3bc02a9a:	ca5fe0ef          	jal	ra,3bc0173e <DWC2_UncachedRead32>
    3bc02a9e:	65a2                	ld	a1,8(sp)
    3bc02aa0:	60e2                	ld	ra,24(sp)
    3bc02aa2:	2501                	sext.w	a0,a0
    3bc02aa4:	fff5c793          	not	a5,a1
    3bc02aa8:	85a2                	mv	a1,s0
    3bc02aaa:	6442                	ld	s0,16(sp)
    3bc02aac:	8d7d                	and	a0,a0,a5
    3bc02aae:	6105                	addi	sp,sp,32
    3bc02ab0:	c95fe06f          	j	3bc01744 <DWC2_UncachedWrite32>

000000003bc02ab4 <wakeup>:
    3bc02ab4:	1101                	addi	sp,sp,-32
    3bc02ab6:	e426                	sd	s1,8(sp)
    3bc02ab8:	00011497          	auipc	s1,0x11
    3bc02abc:	90048493          	addi	s1,s1,-1792 # 3bc133b8 <reg>
    3bc02ac0:	6088                	ld	a0,0(s1)
    3bc02ac2:	e822                	sd	s0,16(sp)
    3bc02ac4:	6405                	lui	s0,0x1
    3bc02ac6:	80440413          	addi	s0,s0,-2044 # 804 <__BSS_SIZE__-0x540c>
    3bc02aca:	4585                	li	a1,1
    3bc02acc:	9522                	add	a0,a0,s0
    3bc02ace:	ec06                	sd	ra,24(sp)
    3bc02ad0:	f9fff0ef          	jal	ra,3bc02a6e <dwc2_hsotg_set_bit>
    3bc02ad4:	4529                	li	a0,10
    3bc02ad6:	edefd0ef          	jal	ra,3bc001b4 <mdelay>
    3bc02ada:	6088                	ld	a0,0(s1)
    3bc02adc:	4585                	li	a1,1
    3bc02ade:	9522                	add	a0,a0,s0
    3bc02ae0:	fb1ff0ef          	jal	ra,3bc02a90 <dwc2_hsotg_clear_bit>
    3bc02ae4:	60e2                	ld	ra,24(sp)
    3bc02ae6:	6442                	ld	s0,16(sp)
    3bc02ae8:	64a2                	ld	s1,8(sp)
    3bc02aea:	4501                	li	a0,0
    3bc02aec:	6105                	addi	sp,sp,32
    3bc02aee:	8082                	ret

000000003bc02af0 <dwc2_hsotg_wait_bit_set>:
    3bc02af0:	7179                	addi	sp,sp,-48
    3bc02af2:	f022                	sd	s0,32(sp)
    3bc02af4:	ec26                	sd	s1,24(sp)
    3bc02af6:	e84a                	sd	s2,16(sp)
    3bc02af8:	e44e                	sd	s3,8(sp)
    3bc02afa:	f406                	sd	ra,40(sp)
    3bc02afc:	892a                	mv	s2,a0
    3bc02afe:	89ae                	mv	s3,a1
    3bc02b00:	84b2                	mv	s1,a2
    3bc02b02:	4401                	li	s0,0
    3bc02b04:	00941b63          	bne	s0,s1,3bc02b1a <dwc2_hsotg_wait_bit_set+0x2a>
    3bc02b08:	fc400513          	li	a0,-60
    3bc02b0c:	70a2                	ld	ra,40(sp)
    3bc02b0e:	7402                	ld	s0,32(sp)
    3bc02b10:	64e2                	ld	s1,24(sp)
    3bc02b12:	6942                	ld	s2,16(sp)
    3bc02b14:	69a2                	ld	s3,8(sp)
    3bc02b16:	6145                	addi	sp,sp,48
    3bc02b18:	8082                	ret
    3bc02b1a:	854a                	mv	a0,s2
    3bc02b1c:	c23fe0ef          	jal	ra,3bc0173e <DWC2_UncachedRead32>
    3bc02b20:	2501                	sext.w	a0,a0
    3bc02b22:	01357533          	and	a0,a0,s3
    3bc02b26:	e511                	bnez	a0,3bc02b32 <dwc2_hsotg_wait_bit_set+0x42>
    3bc02b28:	4505                	li	a0,1
    3bc02b2a:	e60fd0ef          	jal	ra,3bc0018a <udelay>
    3bc02b2e:	2405                	addiw	s0,s0,1
    3bc02b30:	bfd1                	j	3bc02b04 <dwc2_hsotg_wait_bit_set+0x14>
    3bc02b32:	4501                	li	a0,0
    3bc02b34:	bfe1                	j	3bc02b0c <dwc2_hsotg_wait_bit_set+0x1c>

000000003bc02b36 <dwc2_hsotg_txfifo_flush.constprop.0>:
    3bc02b36:	1101                	addi	sp,sp,-32
    3bc02b38:	e426                	sd	s1,8(sp)
    3bc02b3a:	00011497          	auipc	s1,0x11
    3bc02b3e:	87e48493          	addi	s1,s1,-1922 # 3bc133b8 <reg>
    3bc02b42:	e822                	sd	s0,16(sp)
    3bc02b44:	842a                	mv	s0,a0
    3bc02b46:	6088                	ld	a0,0(s1)
    3bc02b48:	6609                	lui	a2,0x2
    3bc02b4a:	71060613          	addi	a2,a2,1808 # 2710 <__BSS_SIZE__-0x3500>
    3bc02b4e:	800005b7          	lui	a1,0x80000
    3bc02b52:	0541                	addi	a0,a0,16
    3bc02b54:	ec06                	sd	ra,24(sp)
    3bc02b56:	f9bff0ef          	jal	ra,3bc02af0 <dwc2_hsotg_wait_bit_set>
    3bc02b5a:	c919                	beqz	a0,3bc02b70 <dwc2_hsotg_txfifo_flush.constprop.0+0x3a>
    3bc02b5c:	00008597          	auipc	a1,0x8
    3bc02b60:	27c58593          	addi	a1,a1,636 # 3bc0add8 <__func__.3>
    3bc02b64:	00008517          	auipc	a0,0x8
    3bc02b68:	06c50513          	addi	a0,a0,108 # 3bc0abd0 <__func__.5+0x30>
    3bc02b6c:	fecfd0ef          	jal	ra,3bc00358 <tf_printf>
    3bc02b70:	608c                	ld	a1,0(s1)
    3bc02b72:	0064151b          	slliw	a0,s0,0x6
    3bc02b76:	02056513          	ori	a0,a0,32
    3bc02b7a:	05c1                	addi	a1,a1,16
    3bc02b7c:	2501                	sext.w	a0,a0
    3bc02b7e:	bc7fe0ef          	jal	ra,3bc01744 <DWC2_UncachedWrite32>
    3bc02b82:	06400413          	li	s0,100
    3bc02b86:	6088                	ld	a0,0(s1)
    3bc02b88:	0541                	addi	a0,a0,16
    3bc02b8a:	bb5fe0ef          	jal	ra,3bc0173e <DWC2_UncachedRead32>
    3bc02b8e:	0005061b          	sext.w	a2,a0
    3bc02b92:	02057513          	andi	a0,a0,32
    3bc02b96:	cd09                	beqz	a0,3bc02bb0 <dwc2_hsotg_txfifo_flush.constprop.0+0x7a>
    3bc02b98:	347d                	addiw	s0,s0,-1
    3bc02b9a:	e015                	bnez	s0,3bc02bbe <dwc2_hsotg_txfifo_flush.constprop.0+0x88>
    3bc02b9c:	00008597          	auipc	a1,0x8
    3bc02ba0:	23c58593          	addi	a1,a1,572 # 3bc0add8 <__func__.3>
    3bc02ba4:	00008517          	auipc	a0,0x8
    3bc02ba8:	04c50513          	addi	a0,a0,76 # 3bc0abf0 <__func__.5+0x50>
    3bc02bac:	facfd0ef          	jal	ra,3bc00358 <tf_printf>
    3bc02bb0:	6442                	ld	s0,16(sp)
    3bc02bb2:	60e2                	ld	ra,24(sp)
    3bc02bb4:	64a2                	ld	s1,8(sp)
    3bc02bb6:	4505                	li	a0,1
    3bc02bb8:	6105                	addi	sp,sp,32
    3bc02bba:	dd0fd06f          	j	3bc0018a <udelay>
    3bc02bbe:	4505                	li	a0,1
    3bc02bc0:	dcafd0ef          	jal	ra,3bc0018a <udelay>
    3bc02bc4:	b7c9                	j	3bc02b86 <dwc2_hsotg_txfifo_flush.constprop.0+0x50>

000000003bc02bc6 <kill_all_requests.isra.0>:
    3bc02bc6:	1101                	addi	sp,sp,-32
    3bc02bc8:	e426                	sd	s1,8(sp)
    3bc02bca:	e04a                	sd	s2,0(sp)
    3bc02bcc:	ec06                	sd	ra,24(sp)
    3bc02bce:	e822                	sd	s0,16(sp)
    3bc02bd0:	07154403          	lbu	s0,113(a0)
    3bc02bd4:	84aa                	mv	s1,a0
    3bc02bd6:	60000913          	li	s2,1536
    3bc02bda:	883d                	andi	s0,s0,15
    3bc02bdc:	e019                	bnez	s0,3bc02be2 <kill_all_requests.isra.0+0x1c>
    3bc02bde:	10000913          	li	s2,256
    3bc02be2:	8526                	mv	a0,s1
    3bc02be4:	dc3ff0ef          	jal	ra,3bc029a6 <dwc2_nuke>
    3bc02be8:	6505                	lui	a0,0x1
    3bc02bea:	91850513          	addi	a0,a0,-1768 # 918 <__BSS_SIZE__-0x52f8>
    3bc02bee:	0416                	slli	s0,s0,0x5
    3bc02bf0:	942a                	add	s0,s0,a0
    3bc02bf2:	00010517          	auipc	a0,0x10
    3bc02bf6:	7c653503          	ld	a0,1990(a0) # 3bc133b8 <reg>
    3bc02bfa:	9522                	add	a0,a0,s0
    3bc02bfc:	b43fe0ef          	jal	ra,3bc0173e <DWC2_UncachedRead32>
    3bc02c00:	3c05350b          	extu	a0,a0,15,0
    3bc02c04:	050a                	slli	a0,a0,0x2
    3bc02c06:	01257963          	bgeu	a0,s2,3bc02c18 <kill_all_requests.isra.0+0x52>
    3bc02c0a:	6442                	ld	s0,16(sp)
    3bc02c0c:	5ca8                	lw	a0,120(s1)
    3bc02c0e:	60e2                	ld	ra,24(sp)
    3bc02c10:	64a2                	ld	s1,8(sp)
    3bc02c12:	6902                	ld	s2,0(sp)
    3bc02c14:	6105                	addi	sp,sp,32
    3bc02c16:	b705                	j	3bc02b36 <dwc2_hsotg_txfifo_flush.constprop.0>
    3bc02c18:	60e2                	ld	ra,24(sp)
    3bc02c1a:	6442                	ld	s0,16(sp)
    3bc02c1c:	64a2                	ld	s1,8(sp)
    3bc02c1e:	6902                	ld	s2,0(sp)
    3bc02c20:	6105                	addi	sp,sp,32
    3bc02c22:	8082                	ret

000000003bc02c24 <dwc2_disconnect>:
    3bc02c24:	27052783          	lw	a5,624(a0)
    3bc02c28:	cba1                	beqz	a5,3bc02c78 <dwc2_disconnect+0x54>
    3bc02c2a:	1101                	addi	sp,sp,-32
    3bc02c2c:	e822                	sd	s0,16(sp)
    3bc02c2e:	e426                	sd	s1,8(sp)
    3bc02c30:	e04a                	sd	s2,0(sp)
    3bc02c32:	ec06                	sd	ra,24(sp)
    3bc02c34:	842a                	mv	s0,a0
    3bc02c36:	26052823          	sw	zero,624(a0)
    3bc02c3a:	0d050493          	addi	s1,a0,208
    3bc02c3e:	25050913          	addi	s2,a0,592
    3bc02c42:	6c9c                	ld	a5,24(s1)
    3bc02c44:	c791                	beqz	a5,3bc02c50 <dwc2_disconnect+0x2c>
    3bc02c46:	fc600593          	li	a1,-58
    3bc02c4a:	8526                	mv	a0,s1
    3bc02c4c:	f7bff0ef          	jal	ra,3bc02bc6 <kill_all_requests.isra.0>
    3bc02c50:	08048493          	addi	s1,s1,128
    3bc02c54:	ff2497e3          	bne	s1,s2,3bc02c42 <dwc2_disconnect+0x1e>
    3bc02c58:	7c1c                	ld	a5,56(s0)
    3bc02c5a:	779c                	ld	a5,40(a5)
    3bc02c5c:	cb81                	beqz	a5,3bc02c6c <dwc2_disconnect+0x48>
    3bc02c5e:	8522                	mv	a0,s0
    3bc02c60:	6442                	ld	s0,16(sp)
    3bc02c62:	60e2                	ld	ra,24(sp)
    3bc02c64:	64a2                	ld	s1,8(sp)
    3bc02c66:	6902                	ld	s2,0(sp)
    3bc02c68:	6105                	addi	sp,sp,32
    3bc02c6a:	8782                	jr	a5
    3bc02c6c:	60e2                	ld	ra,24(sp)
    3bc02c6e:	6442                	ld	s0,16(sp)
    3bc02c70:	64a2                	ld	s1,8(sp)
    3bc02c72:	6902                	ld	s2,0(sp)
    3bc02c74:	6105                	addi	sp,sp,32
    3bc02c76:	8082                	ret
    3bc02c78:	8082                	ret

000000003bc02c7a <dwc2_hsotg_init_fifo.constprop.0>:
    3bc02c7a:	1101                	addi	sp,sp,-32
    3bc02c7c:	e822                	sd	s0,16(sp)
    3bc02c7e:	00010417          	auipc	s0,0x10
    3bc02c82:	73a40413          	addi	s0,s0,1850 # 3bc133b8 <reg>
    3bc02c86:	6008                	ld	a0,0(s0)
    3bc02c88:	6609                	lui	a2,0x2
    3bc02c8a:	71060613          	addi	a2,a2,1808 # 2710 <__BSS_SIZE__-0x3500>
    3bc02c8e:	800005b7          	lui	a1,0x80000
    3bc02c92:	0541                	addi	a0,a0,16
    3bc02c94:	ec06                	sd	ra,24(sp)
    3bc02c96:	e426                	sd	s1,8(sp)
    3bc02c98:	e59ff0ef          	jal	ra,3bc02af0 <dwc2_hsotg_wait_bit_set>
    3bc02c9c:	c919                	beqz	a0,3bc02cb2 <dwc2_hsotg_init_fifo.constprop.0+0x38>
    3bc02c9e:	00008597          	auipc	a1,0x8
    3bc02ca2:	15258593          	addi	a1,a1,338 # 3bc0adf0 <__func__.4>
    3bc02ca6:	00008517          	auipc	a0,0x8
    3bc02caa:	f2a50513          	addi	a0,a0,-214 # 3bc0abd0 <__func__.5+0x30>
    3bc02cae:	eaafd0ef          	jal	ra,3bc00358 <tf_printf>
    3bc02cb2:	600c                	ld	a1,0(s0)
    3bc02cb4:	40000513          	li	a0,1024
    3bc02cb8:	018004b7          	lui	s1,0x1800
    3bc02cbc:	02458593          	addi	a1,a1,36
    3bc02cc0:	a85fe0ef          	jal	ra,3bc01744 <DWC2_UncachedWrite32>
    3bc02cc4:	600c                	ld	a1,0(s0)
    3bc02cc6:	00400537          	lui	a0,0x400
    3bc02cca:	40050513          	addi	a0,a0,1024 # 400400 <__BSS_SIZE__+0x3fa7f0>
    3bc02cce:	02858593          	addi	a1,a1,40
    3bc02cd2:	a73fe0ef          	jal	ra,3bc01744 <DWC2_UncachedWrite32>
    3bc02cd6:	600c                	ld	a1,0(s0)
    3bc02cd8:	44048513          	addi	a0,s1,1088 # 1800440 <__BSS_SIZE__+0x17fa830>
    3bc02cdc:	10458593          	addi	a1,a1,260
    3bc02ce0:	a65fe0ef          	jal	ra,3bc01744 <DWC2_UncachedWrite32>
    3bc02ce4:	600c                	ld	a1,0(s0)
    3bc02ce6:	5c048513          	addi	a0,s1,1472
    3bc02cea:	10858593          	addi	a1,a1,264
    3bc02cee:	a57fe0ef          	jal	ra,3bc01744 <DWC2_UncachedWrite32>
    3bc02cf2:	600c                	ld	a1,0(s0)
    3bc02cf4:	74048513          	addi	a0,s1,1856
    3bc02cf8:	06400493          	li	s1,100
    3bc02cfc:	10c58593          	addi	a1,a1,268
    3bc02d00:	a45fe0ef          	jal	ra,3bc01744 <DWC2_UncachedWrite32>
    3bc02d04:	600c                	ld	a1,0(s0)
    3bc02d06:	43000513          	li	a0,1072
    3bc02d0a:	05c1                	addi	a1,a1,16
    3bc02d0c:	a39fe0ef          	jal	ra,3bc01744 <DWC2_UncachedWrite32>
    3bc02d10:	6008                	ld	a0,0(s0)
    3bc02d12:	0541                	addi	a0,a0,16
    3bc02d14:	a2bfe0ef          	jal	ra,3bc0173e <DWC2_UncachedRead32>
    3bc02d18:	0005061b          	sext.w	a2,a0
    3bc02d1c:	03057513          	andi	a0,a0,48
    3bc02d20:	c50d                	beqz	a0,3bc02d4a <dwc2_hsotg_init_fifo.constprop.0+0xd0>
    3bc02d22:	34fd                	addiw	s1,s1,-1
    3bc02d24:	ec99                	bnez	s1,3bc02d42 <dwc2_hsotg_init_fifo.constprop.0+0xc8>
    3bc02d26:	6442                	ld	s0,16(sp)
    3bc02d28:	60e2                	ld	ra,24(sp)
    3bc02d2a:	64a2                	ld	s1,8(sp)
    3bc02d2c:	00008597          	auipc	a1,0x8
    3bc02d30:	0c458593          	addi	a1,a1,196 # 3bc0adf0 <__func__.4>
    3bc02d34:	00008517          	auipc	a0,0x8
    3bc02d38:	eec50513          	addi	a0,a0,-276 # 3bc0ac20 <__func__.5+0x80>
    3bc02d3c:	6105                	addi	sp,sp,32
    3bc02d3e:	e1afd06f          	j	3bc00358 <tf_printf>
    3bc02d42:	4505                	li	a0,1
    3bc02d44:	c46fd0ef          	jal	ra,3bc0018a <udelay>
    3bc02d48:	b7e1                	j	3bc02d10 <dwc2_hsotg_init_fifo.constprop.0+0x96>
    3bc02d4a:	60e2                	ld	ra,24(sp)
    3bc02d4c:	6442                	ld	s0,16(sp)
    3bc02d4e:	64a2                	ld	s1,8(sp)
    3bc02d50:	6105                	addi	sp,sp,32
    3bc02d52:	8082                	ret

000000003bc02d54 <_dwc2_ep_disable.isra.0>:
    3bc02d54:	00010717          	auipc	a4,0x10
    3bc02d58:	66c73703          	ld	a4,1644(a4) # 3bc133c0 <the_controller>
    3bc02d5c:	05070713          	addi	a4,a4,80
    3bc02d60:	07154683          	lbu	a3,113(a0)
    3bc02d64:	00e51c63          	bne	a0,a4,3bc02d7c <_dwc2_ep_disable.isra.0+0x28>
    3bc02d68:	00008597          	auipc	a1,0x8
    3bc02d6c:	04058593          	addi	a1,a1,64 # 3bc0ada8 <__func__.1>
    3bc02d70:	00008517          	auipc	a0,0x8
    3bc02d74:	ee050513          	addi	a0,a0,-288 # 3bc0ac50 <__func__.5+0xb0>
    3bc02d78:	de0fd06f          	j	3bc00358 <tf_printf>
    3bc02d7c:	7139                	addi	sp,sp,-64
    3bc02d7e:	f04a                	sd	s2,32(sp)
    3bc02d80:	ec4e                	sd	s3,24(sp)
    3bc02d82:	00010917          	auipc	s2,0x10
    3bc02d86:	63690913          	addi	s2,s2,1590 # 3bc133b8 <reg>
    3bc02d8a:	fc06                	sd	ra,56(sp)
    3bc02d8c:	f822                	sd	s0,48(sp)
    3bc02d8e:	f426                	sd	s1,40(sp)
    3bc02d90:	e852                	sd	s4,16(sp)
    3bc02d92:	e456                	sd	s5,8(sp)
    3bc02d94:	fc76b70b          	extu	a4,a3,63,7
    3bc02d98:	00093983          	ld	s3,0(s2)
    3bc02d9c:	00f6f793          	andi	a5,a3,15
    3bc02da0:	0e070563          	beqz	a4,3bc02e8a <_dwc2_ep_disable.isra.0+0x136>
    3bc02da4:	04878793          	addi	a5,a5,72
    3bc02da8:	0796                	slli	a5,a5,0x5
    3bc02daa:	99be                	add	s3,s3,a5
    3bc02dac:	84aa                	mv	s1,a0
    3bc02dae:	854e                	mv	a0,s3
    3bc02db0:	98ffe0ef          	jal	ra,3bc0173e <DWC2_UncachedRead32>
    3bc02db4:	00050a1b          	sext.w	s4,a0
    3bc02db8:	080a5a63          	bgez	s4,3bc02e4c <_dwc2_ep_disable.isra.0+0xf8>
    3bc02dbc:	0714c783          	lbu	a5,113(s1)
    3bc02dc0:	00093503          	ld	a0,0(s2)
    3bc02dc4:	fc77b70b          	extu	a4,a5,63,7
    3bc02dc8:	00f7f413          	andi	s0,a5,15
    3bc02dcc:	c371                	beqz	a4,3bc02e90 <_dwc2_ep_disable.isra.0+0x13c>
    3bc02dce:	04840413          	addi	s0,s0,72
    3bc02dd2:	0416                	slli	s0,s0,0x5
    3bc02dd4:	00850ab3          	add	s5,a0,s0
    3bc02dd8:	0421                	addi	s0,s0,8
    3bc02dda:	942a                	add	s0,s0,a0
    3bc02ddc:	080005b7          	lui	a1,0x8000
    3bc02de0:	8556                	mv	a0,s5
    3bc02de2:	c8dff0ef          	jal	ra,3bc02a6e <dwc2_hsotg_set_bit>
    3bc02de6:	06400613          	li	a2,100
    3bc02dea:	04000593          	li	a1,64
    3bc02dee:	8522                	mv	a0,s0
    3bc02df0:	d01ff0ef          	jal	ra,3bc02af0 <dwc2_hsotg_wait_bit_set>
    3bc02df4:	c919                	beqz	a0,3bc02e0a <_dwc2_ep_disable.isra.0+0xb6>
    3bc02df6:	00008597          	auipc	a1,0x8
    3bc02dfa:	f9a58593          	addi	a1,a1,-102 # 3bc0ad90 <__func__.0>
    3bc02dfe:	00008517          	auipc	a0,0x8
    3bc02e02:	e6a50513          	addi	a0,a0,-406 # 3bc0ac68 <__func__.5+0xc8>
    3bc02e06:	d52fd0ef          	jal	ra,3bc00358 <tf_printf>
    3bc02e0a:	480005b7          	lui	a1,0x48000
    3bc02e0e:	8556                	mv	a0,s5
    3bc02e10:	c5fff0ef          	jal	ra,3bc02a6e <dwc2_hsotg_set_bit>
    3bc02e14:	06400613          	li	a2,100
    3bc02e18:	4589                	li	a1,2
    3bc02e1a:	8522                	mv	a0,s0
    3bc02e1c:	cd5ff0ef          	jal	ra,3bc02af0 <dwc2_hsotg_wait_bit_set>
    3bc02e20:	c919                	beqz	a0,3bc02e36 <_dwc2_ep_disable.isra.0+0xe2>
    3bc02e22:	00008597          	auipc	a1,0x8
    3bc02e26:	f6e58593          	addi	a1,a1,-146 # 3bc0ad90 <__func__.0>
    3bc02e2a:	00008517          	auipc	a0,0x8
    3bc02e2e:	e7e50513          	addi	a0,a0,-386 # 3bc0aca8 <__func__.5+0x108>
    3bc02e32:	d26fd0ef          	jal	ra,3bc00358 <tf_printf>
    3bc02e36:	4589                	li	a1,2
    3bc02e38:	8522                	mv	a0,s0
    3bc02e3a:	c35ff0ef          	jal	ra,3bc02a6e <dwc2_hsotg_set_bit>
    3bc02e3e:	07148783          	lb	a5,113(s1)
    3bc02e42:	0a07d163          	bgez	a5,3bc02ee4 <_dwc2_ep_disable.isra.0+0x190>
    3bc02e46:	5ca8                	lw	a0,120(s1)
    3bc02e48:	cefff0ef          	jal	ra,3bc02b36 <dwc2_hsotg_txfifo_flush.constprop.0>
    3bc02e4c:	7fff8537          	lui	a0,0x7fff8
    3bc02e50:	157d                	addi	a0,a0,-1
    3bc02e52:	00aa7a33          	and	s4,s4,a0
    3bc02e56:	08000537          	lui	a0,0x8000
    3bc02e5a:	85ce                	mv	a1,s3
    3bc02e5c:	00aa6533          	or	a0,s4,a0
    3bc02e60:	8e5fe0ef          	jal	ra,3bc01744 <DWC2_UncachedWrite32>
    3bc02e64:	8526                	mv	a0,s1
    3bc02e66:	fc600593          	li	a1,-58
    3bc02e6a:	d5dff0ef          	jal	ra,3bc02bc6 <kill_all_requests.isra.0>
    3bc02e6e:	4785                	li	a5,1
    3bc02e70:	06f48823          	sb	a5,112(s1)
    3bc02e74:	70e2                	ld	ra,56(sp)
    3bc02e76:	7442                	ld	s0,48(sp)
    3bc02e78:	0404b023          	sd	zero,64(s1)
    3bc02e7c:	7902                	ld	s2,32(sp)
    3bc02e7e:	74a2                	ld	s1,40(sp)
    3bc02e80:	69e2                	ld	s3,24(sp)
    3bc02e82:	6a42                	ld	s4,16(sp)
    3bc02e84:	6aa2                	ld	s5,8(sp)
    3bc02e86:	6121                	addi	sp,sp,64
    3bc02e88:	8082                	ret
    3bc02e8a:	05878793          	addi	a5,a5,88
    3bc02e8e:	bf29                	j	3bc02da8 <_dwc2_ep_disable.isra.0+0x54>
    3bc02e90:	05840413          	addi	s0,s0,88
    3bc02e94:	0416                	slli	s0,s0,0x5
    3bc02e96:	00850ab3          	add	s5,a0,s0
    3bc02e9a:	0421                	addi	s0,s0,8
    3bc02e9c:	942a                	add	s0,s0,a0
    3bc02e9e:	0551                	addi	a0,a0,20
    3bc02ea0:	89ffe0ef          	jal	ra,3bc0173e <DWC2_UncachedRead32>
    3bc02ea4:	08057513          	andi	a0,a0,128
    3bc02ea8:	e919                	bnez	a0,3bc02ebe <_dwc2_ep_disable.isra.0+0x16a>
    3bc02eaa:	00093503          	ld	a0,0(s2)
    3bc02eae:	6785                	lui	a5,0x1
    3bc02eb0:	80478793          	addi	a5,a5,-2044 # 804 <__BSS_SIZE__-0x540c>
    3bc02eb4:	20000593          	li	a1,512
    3bc02eb8:	953e                	add	a0,a0,a5
    3bc02eba:	bb5ff0ef          	jal	ra,3bc02a6e <dwc2_hsotg_set_bit>
    3bc02ebe:	00093503          	ld	a0,0(s2)
    3bc02ec2:	06400613          	li	a2,100
    3bc02ec6:	08000593          	li	a1,128
    3bc02eca:	0551                	addi	a0,a0,20
    3bc02ecc:	c25ff0ef          	jal	ra,3bc02af0 <dwc2_hsotg_wait_bit_set>
    3bc02ed0:	dd0d                	beqz	a0,3bc02e0a <_dwc2_ep_disable.isra.0+0xb6>
    3bc02ed2:	00008597          	auipc	a1,0x8
    3bc02ed6:	ebe58593          	addi	a1,a1,-322 # 3bc0ad90 <__func__.0>
    3bc02eda:	00008517          	auipc	a0,0x8
    3bc02ede:	dae50513          	addi	a0,a0,-594 # 3bc0ac88 <__func__.5+0xe8>
    3bc02ee2:	b715                	j	3bc02e06 <_dwc2_ep_disable.isra.0+0xb2>
    3bc02ee4:	00093503          	ld	a0,0(s2)
    3bc02ee8:	6785                	lui	a5,0x1
    3bc02eea:	80478793          	addi	a5,a5,-2044 # 804 <__BSS_SIZE__-0x540c>
    3bc02eee:	40000593          	li	a1,1024
    3bc02ef2:	953e                	add	a0,a0,a5
    3bc02ef4:	b7bff0ef          	jal	ra,3bc02a6e <dwc2_hsotg_set_bit>
    3bc02ef8:	bf91                	j	3bc02e4c <_dwc2_ep_disable.isra.0+0xf8>

000000003bc02efa <dwc2_ep_disable>:
    3bc02efa:	cd09                	beqz	a0,3bc02f14 <dwc2_ep_disable+0x1a>
    3bc02efc:	6138                	ld	a4,64(a0)
    3bc02efe:	57a9                	li	a5,-22
    3bc02f00:	cb19                	beqz	a4,3bc02f16 <dwc2_ep_disable+0x1c>
    3bc02f02:	1141                	addi	sp,sp,-16
    3bc02f04:	e406                	sd	ra,8(sp)
    3bc02f06:	e4fff0ef          	jal	ra,3bc02d54 <_dwc2_ep_disable.isra.0>
    3bc02f0a:	60a2                	ld	ra,8(sp)
    3bc02f0c:	4781                	li	a5,0
    3bc02f0e:	853e                	mv	a0,a5
    3bc02f10:	0141                	addi	sp,sp,16
    3bc02f12:	8082                	ret
    3bc02f14:	57a9                	li	a5,-22
    3bc02f16:	853e                	mv	a0,a5
    3bc02f18:	8082                	ret

000000003bc02f1a <dwc2_reconfig_usbd>:
    3bc02f1a:	7139                	addi	sp,sp,-64
    3bc02f1c:	f426                	sd	s1,40(sp)
    3bc02f1e:	f04a                	sd	s2,32(sp)
    3bc02f20:	ec4e                	sd	s3,24(sp)
    3bc02f22:	84aa                	mv	s1,a0
    3bc02f24:	04053983          	ld	s3,64(a0)
    3bc02f28:	892e                	mv	s2,a1
    3bc02f2a:	05050513          	addi	a0,a0,80
    3bc02f2e:	fca00593          	li	a1,-54
    3bc02f32:	fc06                	sd	ra,56(sp)
    3bc02f34:	f822                	sd	s0,48(sp)
    3bc02f36:	e852                	sd	s4,16(sp)
    3bc02f38:	e456                	sd	s5,8(sp)
    3bc02f3a:	c8dff0ef          	jal	ra,3bc02bc6 <kill_all_requests.isra.0>
    3bc02f3e:	8526                	mv	a0,s1
    3bc02f40:	98dff0ef          	jal	ra,3bc028cc <udc_reinit>
    3bc02f44:	00010417          	auipc	s0,0x10
    3bc02f48:	47440413          	addi	s0,s0,1140 # 3bc133b8 <reg>
    3bc02f4c:	22091863          	bnez	s2,3bc0317c <dwc2_reconfig_usbd+0x262>
    3bc02f50:	6008                	ld	a0,0(s0)
    3bc02f52:	04050513          	addi	a0,a0,64
    3bc02f56:	fe8fe0ef          	jal	ra,3bc0173e <DWC2_UncachedRead32>
    3bc02f5a:	600c                	ld	a1,0(s0)
    3bc02f5c:	6791                	lui	a5,0x4
    3bc02f5e:	3c05350b          	extu	a0,a0,15,0
    3bc02f62:	20978793          	addi	a5,a5,521 # 4209 <__BSS_SIZE__-0x1a07>
    3bc02f66:	05c1                	addi	a1,a1,16
    3bc02f68:	06a7ee63          	bltu	a5,a0,3bc02fe4 <dwc2_reconfig_usbd+0xca>
    3bc02f6c:	4505                	li	a0,1
    3bc02f6e:	fd6fe0ef          	jal	ra,3bc01744 <DWC2_UncachedWrite32>
    3bc02f72:	03300a13          	li	s4,51
    3bc02f76:	4505                	li	a0,1
    3bc02f78:	a12fd0ef          	jal	ra,3bc0018a <udelay>
    3bc02f7c:	6008                	ld	a0,0(s0)
    3bc02f7e:	3a7d                	addiw	s4,s4,-1
    3bc02f80:	0541                	addi	a0,a0,16
    3bc02f82:	fbcfe0ef          	jal	ra,3bc0173e <DWC2_UncachedRead32>
    3bc02f86:	0005061b          	sext.w	a2,a0
    3bc02f8a:	020a1463          	bnez	s4,3bc02fb2 <dwc2_reconfig_usbd+0x98>
    3bc02f8e:	00008597          	auipc	a1,0x8
    3bc02f92:	e3258593          	addi	a1,a1,-462 # 3bc0adc0 <__func__.2>
    3bc02f96:	00008517          	auipc	a0,0x8
    3bc02f9a:	d3250513          	addi	a0,a0,-718 # 3bc0acc8 <__func__.5+0x128>
    3bc02f9e:	7442                	ld	s0,48(sp)
    3bc02fa0:	70e2                	ld	ra,56(sp)
    3bc02fa2:	74a2                	ld	s1,40(sp)
    3bc02fa4:	7902                	ld	s2,32(sp)
    3bc02fa6:	69e2                	ld	s3,24(sp)
    3bc02fa8:	6a42                	ld	s4,16(sp)
    3bc02faa:	6aa2                	ld	s5,8(sp)
    3bc02fac:	6121                	addi	sp,sp,64
    3bc02fae:	baafd06f          	j	3bc00358 <tf_printf>
    3bc02fb2:	8a05                	andi	a2,a2,1
    3bc02fb4:	f269                	bnez	a2,3bc02f76 <dwc2_reconfig_usbd+0x5c>
    3bc02fb6:	03300a13          	li	s4,51
    3bc02fba:	4505                	li	a0,1
    3bc02fbc:	9cefd0ef          	jal	ra,3bc0018a <udelay>
    3bc02fc0:	6008                	ld	a0,0(s0)
    3bc02fc2:	3a7d                	addiw	s4,s4,-1
    3bc02fc4:	0541                	addi	a0,a0,16
    3bc02fc6:	f78fe0ef          	jal	ra,3bc0173e <DWC2_UncachedRead32>
    3bc02fca:	0005061b          	sext.w	a2,a0
    3bc02fce:	060a1963          	bnez	s4,3bc03040 <dwc2_reconfig_usbd+0x126>
    3bc02fd2:	00008597          	auipc	a1,0x8
    3bc02fd6:	dee58593          	addi	a1,a1,-530 # 3bc0adc0 <__func__.2>
    3bc02fda:	00008517          	auipc	a0,0x8
    3bc02fde:	d3e50513          	addi	a0,a0,-706 # 3bc0ad18 <__func__.5+0x178>
    3bc02fe2:	bf75                	j	3bc02f9e <dwc2_reconfig_usbd+0x84>
    3bc02fe4:	4505                	li	a0,1
    3bc02fe6:	f5efe0ef          	jal	ra,3bc01744 <DWC2_UncachedWrite32>
    3bc02fea:	03300a93          	li	s5,51
    3bc02fee:	20000a37          	lui	s4,0x20000
    3bc02ff2:	4505                	li	a0,1
    3bc02ff4:	996fd0ef          	jal	ra,3bc0018a <udelay>
    3bc02ff8:	6008                	ld	a0,0(s0)
    3bc02ffa:	3afd                	addiw	s5,s5,-1
    3bc02ffc:	0541                	addi	a0,a0,16
    3bc02ffe:	f40fe0ef          	jal	ra,3bc0173e <DWC2_UncachedRead32>
    3bc03002:	0005061b          	sext.w	a2,a0
    3bc03006:	000a9b63          	bnez	s5,3bc0301c <dwc2_reconfig_usbd+0x102>
    3bc0300a:	00008597          	auipc	a1,0x8
    3bc0300e:	db658593          	addi	a1,a1,-586 # 3bc0adc0 <__func__.2>
    3bc03012:	00008517          	auipc	a0,0x8
    3bc03016:	cde50513          	addi	a0,a0,-802 # 3bc0acf0 <__func__.5+0x150>
    3bc0301a:	b751                	j	3bc02f9e <dwc2_reconfig_usbd+0x84>
    3bc0301c:	01467633          	and	a2,a2,s4
    3bc03020:	2601                	sext.w	a2,a2
    3bc03022:	da61                	beqz	a2,3bc02ff2 <dwc2_reconfig_usbd+0xd8>
    3bc03024:	6008                	ld	a0,0(s0)
    3bc03026:	0541                	addi	a0,a0,16
    3bc03028:	f16fe0ef          	jal	ra,3bc0173e <DWC2_UncachedRead32>
    3bc0302c:	600c                	ld	a1,0(s0)
    3bc0302e:	2501                	sext.w	a0,a0
    3bc03030:	9979                	andi	a0,a0,-2
    3bc03032:	01456533          	or	a0,a0,s4
    3bc03036:	05c1                	addi	a1,a1,16
    3bc03038:	2501                	sext.w	a0,a0
    3bc0303a:	f0afe0ef          	jal	ra,3bc01744 <DWC2_UncachedWrite32>
    3bc0303e:	bfa5                	j	3bc02fb6 <dwc2_reconfig_usbd+0x9c>
    3bc03040:	f6065de3          	bgez	a2,3bc02fba <dwc2_reconfig_usbd+0xa0>
    3bc03044:	0309a503          	lw	a0,48(s3)
    3bc03048:	e509                	bnez	a0,3bc03052 <dwc2_reconfig_usbd+0x138>
    3bc0304a:	40081537          	lui	a0,0x40081
    3bc0304e:	40f50513          	addi	a0,a0,1039 # 4008140f <__BL2_END__+0x446dfff>
    3bc03052:	600c                	ld	a1,0(s0)
    3bc03054:	05b1                	addi	a1,a1,12
    3bc03056:	eeefe0ef          	jal	ra,3bc01744 <DWC2_UncachedWrite32>
    3bc0305a:	c21ff0ef          	jal	ra,3bc02c7a <dwc2_hsotg_init_fifo.constprop.0>
    3bc0305e:	02091063          	bnez	s2,3bc0307e <dwc2_reconfig_usbd+0x164>
    3bc03062:	6008                	ld	a0,0(s0)
    3bc03064:	6985                	lui	s3,0x1
    3bc03066:	80498993          	addi	s3,s3,-2044 # 804 <__BSS_SIZE__-0x540c>
    3bc0306a:	954e                	add	a0,a0,s3
    3bc0306c:	ed2fe0ef          	jal	ra,3bc0173e <DWC2_UncachedRead32>
    3bc03070:	600c                	ld	a1,0(s0)
    3bc03072:	2501                	sext.w	a0,a0
    3bc03074:	00256513          	ori	a0,a0,2
    3bc03078:	95ce                	add	a1,a1,s3
    3bc0307a:	ecafe0ef          	jal	ra,3bc01744 <DWC2_UncachedWrite32>
    3bc0307e:	600c                	ld	a1,0(s0)
    3bc03080:	6985                	lui	s3,0x1
    3bc03082:	80098a13          	addi	s4,s3,-2048 # 800 <__BSS_SIZE__-0x5410>
    3bc03086:	95d2                	add	a1,a1,s4
    3bc03088:	00040537          	lui	a0,0x40
    3bc0308c:	eb8fe0ef          	jal	ra,3bc01744 <DWC2_UncachedWrite32>
    3bc03090:	600c                	ld	a1,0(s0)
    3bc03092:	557d                	li	a0,-1
    3bc03094:	0591                	addi	a1,a1,4
    3bc03096:	eaefe0ef          	jal	ra,3bc01744 <DWC2_UncachedWrite32>
    3bc0309a:	600c                	ld	a1,0(s0)
    3bc0309c:	557d                	li	a0,-1
    3bc0309e:	05d1                	addi	a1,a1,20
    3bc030a0:	ea4fe0ef          	jal	ra,3bc01744 <DWC2_UncachedWrite32>
    3bc030a4:	600c                	ld	a1,0(s0)
    3bc030a6:	800c4537          	lui	a0,0x800c4
    3bc030aa:	81050513          	addi	a0,a0,-2032 # ffffffff800c3810 <__BL2_END__+0xffffffff444b0400>
    3bc030ae:	05e1                	addi	a1,a1,24
    3bc030b0:	e94fe0ef          	jal	ra,3bc01744 <DWC2_UncachedWrite32>
    3bc030b4:	600c                	ld	a1,0(s0)
    3bc030b6:	4505                	li	a0,1
    3bc030b8:	05a1                	addi	a1,a1,8
    3bc030ba:	e8afe0ef          	jal	ra,3bc01744 <DWC2_UncachedWrite32>
    3bc030be:	600c                	ld	a1,0(s0)
    3bc030c0:	81098793          	addi	a5,s3,-2032
    3bc030c4:	4535                	li	a0,13
    3bc030c6:	95be                	add	a1,a1,a5
    3bc030c8:	e7cfe0ef          	jal	ra,3bc01744 <DWC2_UncachedWrite32>
    3bc030cc:	600c                	ld	a1,0(s0)
    3bc030ce:	81498793          	addi	a5,s3,-2028
    3bc030d2:	4535                	li	a0,13
    3bc030d4:	95be                	add	a1,a1,a5
    3bc030d6:	e6efe0ef          	jal	ra,3bc01744 <DWC2_UncachedWrite32>
    3bc030da:	600c                	ld	a1,0(s0)
    3bc030dc:	81c98793          	addi	a5,s3,-2020
    3bc030e0:	6541                	lui	a0,0x10
    3bc030e2:	95be                	add	a1,a1,a5
    3bc030e4:	0505                	addi	a0,a0,1
    3bc030e6:	e5efe0ef          	jal	ra,3bc01744 <DWC2_UncachedWrite32>
    3bc030ea:	02091f63          	bnez	s2,3bc03128 <dwc2_reconfig_usbd+0x20e>
    3bc030ee:	6008                	ld	a0,0(s0)
    3bc030f0:	80498993          	addi	s3,s3,-2044
    3bc030f4:	954e                	add	a0,a0,s3
    3bc030f6:	e48fe0ef          	jal	ra,3bc0173e <DWC2_UncachedRead32>
    3bc030fa:	600c                	ld	a1,0(s0)
    3bc030fc:	2501                	sext.w	a0,a0
    3bc030fe:	01456533          	or	a0,a0,s4
    3bc03102:	95ce                	add	a1,a1,s3
    3bc03104:	e40fe0ef          	jal	ra,3bc01744 <DWC2_UncachedWrite32>
    3bc03108:	4529                	li	a0,10
    3bc0310a:	880fd0ef          	jal	ra,3bc0018a <udelay>
    3bc0310e:	6008                	ld	a0,0(s0)
    3bc03110:	954e                	add	a0,a0,s3
    3bc03112:	e2cfe0ef          	jal	ra,3bc0173e <DWC2_UncachedRead32>
    3bc03116:	600c                	ld	a1,0(s0)
    3bc03118:	77fd                	lui	a5,0xfffff
    3bc0311a:	2501                	sext.w	a0,a0
    3bc0311c:	7ff78793          	addi	a5,a5,2047 # fffffffffffff7ff <__BL2_END__+0xffffffffc43ec3ef>
    3bc03120:	95ce                	add	a1,a1,s3
    3bc03122:	8d7d                	and	a0,a0,a5
    3bc03124:	e20fe0ef          	jal	ra,3bc01744 <DWC2_UncachedWrite32>
    3bc03128:	8526                	mv	a0,s1
    3bc0312a:	7dc000ef          	jal	ra,3bc03906 <dwc2_udc_pre_setup>
    3bc0312e:	600c                	ld	a1,0(s0)
    3bc03130:	6785                	lui	a5,0x1
    3bc03132:	90078793          	addi	a5,a5,-1792 # 900 <__BSS_SIZE__-0x5310>
    3bc03136:	95be                	add	a1,a1,a5
    3bc03138:	6521                	lui	a0,0x8
    3bc0313a:	e0afe0ef          	jal	ra,3bc01744 <DWC2_UncachedWrite32>
    3bc0313e:	50000993          	li	s3,1280
    3bc03142:	00091463          	bnez	s2,3bc0314a <dwc2_reconfig_usbd+0x230>
    3bc03146:	50200993          	li	s3,1282
    3bc0314a:	6008                	ld	a0,0(s0)
    3bc0314c:	6485                	lui	s1,0x1
    3bc0314e:	80448493          	addi	s1,s1,-2044 # 804 <__BSS_SIZE__-0x540c>
    3bc03152:	9526                	add	a0,a0,s1
    3bc03154:	deafe0ef          	jal	ra,3bc0173e <DWC2_UncachedRead32>
    3bc03158:	600c                	ld	a1,0(s0)
    3bc0315a:	2501                	sext.w	a0,a0
    3bc0315c:	00a9e533          	or	a0,s3,a0
    3bc03160:	95a6                	add	a1,a1,s1
    3bc03162:	de2fe0ef          	jal	ra,3bc01744 <DWC2_UncachedWrite32>
    3bc03166:	7442                	ld	s0,48(sp)
    3bc03168:	70e2                	ld	ra,56(sp)
    3bc0316a:	74a2                	ld	s1,40(sp)
    3bc0316c:	7902                	ld	s2,32(sp)
    3bc0316e:	69e2                	ld	s3,24(sp)
    3bc03170:	6a42                	ld	s4,16(sp)
    3bc03172:	6aa2                	ld	s5,8(sp)
    3bc03174:	450d                	li	a0,3
    3bc03176:	6121                	addi	sp,sp,64
    3bc03178:	83cfd06f          	j	3bc001b4 <mdelay>
    3bc0317c:	74fc                	ld	a5,232(s1)
    3bc0317e:	c789                	beqz	a5,3bc03188 <dwc2_reconfig_usbd+0x26e>
    3bc03180:	0d048513          	addi	a0,s1,208
    3bc03184:	bd1ff0ef          	jal	ra,3bc02d54 <_dwc2_ep_disable.isra.0>
    3bc03188:	1684b783          	ld	a5,360(s1)
    3bc0318c:	c789                	beqz	a5,3bc03196 <dwc2_reconfig_usbd+0x27c>
    3bc0318e:	15048513          	addi	a0,s1,336
    3bc03192:	bc3ff0ef          	jal	ra,3bc02d54 <_dwc2_ep_disable.isra.0>
    3bc03196:	1e84b783          	ld	a5,488(s1)
    3bc0319a:	ea0785e3          	beqz	a5,3bc03044 <dwc2_reconfig_usbd+0x12a>
    3bc0319e:	1d048513          	addi	a0,s1,464
    3bc031a2:	bb3ff0ef          	jal	ra,3bc02d54 <_dwc2_ep_disable.isra.0>
    3bc031a6:	bd79                	j	3bc03044 <dwc2_reconfig_usbd+0x12a>

000000003bc031a8 <usb_gadget_register_driver>:
    3bc031a8:	7139                	addi	sp,sp,-64
    3bc031aa:	f822                	sd	s0,48(sp)
    3bc031ac:	f426                	sd	s1,40(sp)
    3bc031ae:	fc06                	sd	ra,56(sp)
    3bc031b0:	f04a                	sd	s2,32(sp)
    3bc031b2:	ec4e                	sd	s3,24(sp)
    3bc031b4:	e852                	sd	s4,16(sp)
    3bc031b6:	e456                	sd	s5,8(sp)
    3bc031b8:	00010497          	auipc	s1,0x10
    3bc031bc:	2084b483          	ld	s1,520(s1) # 3bc133c0 <the_controller>
    3bc031c0:	5429                	li	s0,-22
    3bc031c2:	cd0d                	beqz	a0,3bc031fc <usb_gadget_register_driver+0x54>
    3bc031c4:	451c                	lw	a5,8(a0)
    3bc031c6:	4705                	li	a4,1
    3bc031c8:	5429                	li	s0,-22
    3bc031ca:	37f9                	addiw	a5,a5,-2
    3bc031cc:	02f76863          	bltu	a4,a5,3bc031fc <usb_gadget_register_driver+0x54>
    3bc031d0:	691c                	ld	a5,16(a0)
    3bc031d2:	c78d                	beqz	a5,3bc031fc <usb_gadget_register_driver+0x54>
    3bc031d4:	7518                	ld	a4,40(a0)
    3bc031d6:	c31d                	beqz	a4,3bc031fc <usb_gadget_register_driver+0x54>
    3bc031d8:	7118                	ld	a4,32(a0)
    3bc031da:	c30d                	beqz	a4,3bc031fc <usb_gadget_register_driver+0x54>
    3bc031dc:	6538                	ld	a4,72(a0)
    3bc031de:	cf19                	beqz	a4,3bc031fc <usb_gadget_register_driver+0x54>
    3bc031e0:	6938                	ld	a4,80(a0)
    3bc031e2:	cf09                	beqz	a4,3bc031fc <usb_gadget_register_driver+0x54>
    3bc031e4:	5435                	li	s0,-19
    3bc031e6:	c899                	beqz	s1,3bc031fc <usb_gadget_register_driver+0x54>
    3bc031e8:	7c98                	ld	a4,56(s1)
    3bc031ea:	5441                	li	s0,-16
    3bc031ec:	eb01                	bnez	a4,3bc031fc <usb_gadget_register_driver+0x54>
    3bc031ee:	fc88                	sd	a0,56(s1)
    3bc031f0:	8526                	mv	a0,s1
    3bc031f2:	9782                	jalr	a5
    3bc031f4:	842a                	mv	s0,a0
    3bc031f6:	cd09                	beqz	a0,3bc03210 <usb_gadget_register_driver+0x68>
    3bc031f8:	0204bc23          	sd	zero,56(s1)
    3bc031fc:	70e2                	ld	ra,56(sp)
    3bc031fe:	8522                	mv	a0,s0
    3bc03200:	7442                	ld	s0,48(sp)
    3bc03202:	74a2                	ld	s1,40(sp)
    3bc03204:	7902                	ld	s2,32(sp)
    3bc03206:	69e2                	ld	s3,24(sp)
    3bc03208:	6a42                	ld	s4,16(sp)
    3bc0320a:	6aa2                	ld	s5,8(sp)
    3bc0320c:	6121                	addi	sp,sp,64
    3bc0320e:	8082                	ret
    3bc03210:	00010917          	auipc	s2,0x10
    3bc03214:	1a890913          	addi	s2,s2,424 # 3bc133b8 <reg>
    3bc03218:	00093583          	ld	a1,0(s2)
    3bc0321c:	6985                	lui	s3,0x1
    3bc0321e:	81498793          	addi	a5,s3,-2028 # 814 <__BSS_SIZE__-0x53fc>
    3bc03222:	95be                	add	a1,a1,a5
    3bc03224:	4535                	li	a0,13
    3bc03226:	0404ba03          	ld	s4,64(s1)
    3bc0322a:	d1afe0ef          	jal	ra,3bc01744 <DWC2_UncachedWrite32>
    3bc0322e:	00093583          	ld	a1,0(s2)
    3bc03232:	81098793          	addi	a5,s3,-2032
    3bc03236:	4535                	li	a0,13
    3bc03238:	95be                	add	a1,a1,a5
    3bc0323a:	d0afe0ef          	jal	ra,3bc01744 <DWC2_UncachedWrite32>
    3bc0323e:	00093583          	ld	a1,0(s2)
    3bc03242:	81c98793          	addi	a5,s3,-2020
    3bc03246:	4501                	li	a0,0
    3bc03248:	95be                	add	a1,a1,a5
    3bc0324a:	cfafe0ef          	jal	ra,3bc01744 <DWC2_UncachedWrite32>
    3bc0324e:	00093503          	ld	a0,0(s2)
    3bc03252:	80498993          	addi	s3,s3,-2044
    3bc03256:	954e                	add	a0,a0,s3
    3bc03258:	ce6fe0ef          	jal	ra,3bc0173e <DWC2_UncachedRead32>
    3bc0325c:	00093583          	ld	a1,0(s2)
    3bc03260:	2501                	sext.w	a0,a0
    3bc03262:	00256513          	ori	a0,a0,2
    3bc03266:	95ce                	add	a1,a1,s3
    3bc03268:	cdcfe0ef          	jal	ra,3bc01744 <DWC2_UncachedWrite32>
    3bc0326c:	a0fff0ef          	jal	ra,3bc02c7a <dwc2_hsotg_init_fifo.constprop.0>
    3bc03270:	030a2983          	lw	s3,48(s4) # 20000030 <p_rom_api_cryptodma_aes_decrypt+0x1bbfff30>
    3bc03274:	00099663          	bnez	s3,3bc03280 <usb_gadget_register_driver+0xd8>
    3bc03278:	400819b7          	lui	s3,0x40081
    3bc0327c:	40798993          	addi	s3,s3,1031 # 40081407 <__BL2_END__+0x446dff7>
    3bc03280:	0e0007b7          	lui	a5,0xe000
    3bc03284:	0007c783          	lbu	a5,0(a5) # e000000 <p_rom_api_cryptodma_aes_decrypt+0x9bfff00>
    3bc03288:	4a01                	li	s4,0
    3bc0328a:	8ba1                	andi	a5,a5,8
    3bc0328c:	c795                	beqz	a5,3bc032b8 <usb_gadget_register_driver+0x110>
    3bc0328e:	03006ab7          	lui	s5,0x3006
    3bc03292:	014a8513          	addi	a0,s5,20 # 3006014 <__BSS_SIZE__+0x3000404>
    3bc03296:	ca8fe0ef          	jal	ra,3bc0173e <DWC2_UncachedRead32>
    3bc0329a:	00050a1b          	sext.w	s4,a0
    3bc0329e:	014a8593          	addi	a1,s5,20
    3bc032a2:	18b00513          	li	a0,395
    3bc032a6:	c9efe0ef          	jal	ra,3bc01744 <DWC2_UncachedWrite32>
    3bc032aa:	c00037b7          	lui	a5,0xc0003
    3bc032ae:	03000737          	lui	a4,0x3000
    3bc032b2:	07ad                	addi	a5,a5,11
    3bc032b4:	08f72223          	sw	a5,132(a4) # 3000084 <__BSS_SIZE__+0x2ffa474>
    3bc032b8:	00093583          	ld	a1,0(s2)
    3bc032bc:	854e                	mv	a0,s3
    3bc032be:	05b1                	addi	a1,a1,12
    3bc032c0:	c84fe0ef          	jal	ra,3bc01744 <DWC2_UncachedWrite32>
    3bc032c4:	0e0007b7          	lui	a5,0xe000
    3bc032c8:	0007c783          	lbu	a5,0(a5) # e000000 <p_rom_api_cryptodma_aes_decrypt+0x9bfff00>
    3bc032cc:	8ba1                	andi	a5,a5,8
    3bc032ce:	cb99                	beqz	a5,3bc032e4 <usb_gadget_register_driver+0x13c>
    3bc032d0:	030065b7          	lui	a1,0x3006
    3bc032d4:	8552                	mv	a0,s4
    3bc032d6:	05d1                	addi	a1,a1,20
    3bc032d8:	c6cfe0ef          	jal	ra,3bc01744 <DWC2_UncachedWrite32>
    3bc032dc:	06400513          	li	a0,100
    3bc032e0:	eabfc0ef          	jal	ra,3bc0018a <udelay>
    3bc032e4:	00093583          	ld	a1,0(s2)
    3bc032e8:	4505                	li	a0,1
    3bc032ea:	05a1                	addi	a1,a1,8
    3bc032ec:	c58fe0ef          	jal	ra,3bc01744 <DWC2_UncachedWrite32>
    3bc032f0:	4581                	li	a1,0
    3bc032f2:	8526                	mv	a0,s1
    3bc032f4:	c27ff0ef          	jal	ra,3bc02f1a <dwc2_reconfig_usbd>
    3bc032f8:	0204a023          	sw	zero,32(s1)
    3bc032fc:	b701                	j	3bc031fc <usb_gadget_register_driver+0x54>

000000003bc032fe <dwc2_phy_to_log_ep>:
    3bc032fe:	c901                	beqz	a0,3bc0330e <dwc2_phy_to_log_ep+0x10>
    3bc03300:	0015151b          	slliw	a0,a0,0x1
    3bc03304:	00b035b3          	snez	a1,a1
    3bc03308:	9d0d                	subw	a0,a0,a1
    3bc0330a:	0ff57513          	andi	a0,a0,255
    3bc0330e:	8082                	ret

000000003bc03310 <dwc2_udc_probe>:
    3bc03310:	4510                	lw	a2,8(a0)
    3bc03312:	1101                	addi	sp,sp,-32
    3bc03314:	ec06                	sd	ra,24(sp)
    3bc03316:	e822                	sd	s0,16(sp)
    3bc03318:	e426                	sd	s1,8(sp)
    3bc0331a:	27700793          	li	a5,631
    3bc0331e:	02c7e063          	bltu	a5,a2,3bc0333e <dwc2_udc_probe+0x2e>
    3bc03322:	00008517          	auipc	a0,0x8
    3bc03326:	a1e50513          	addi	a0,a0,-1506 # 3bc0ad40 <__func__.5+0x1a0>
    3bc0332a:	27800593          	li	a1,632
    3bc0332e:	82afd0ef          	jal	ra,3bc00358 <tf_printf>
    3bc03332:	557d                	li	a0,-1
    3bc03334:	60e2                	ld	ra,24(sp)
    3bc03336:	6442                	ld	s0,16(sp)
    3bc03338:	64a2                	ld	s1,8(sp)
    3bc0333a:	6105                	addi	sp,sp,32
    3bc0333c:	8082                	ret
    3bc0333e:	6100                	ld	s0,0(a0)
    3bc03340:	84aa                	mv	s1,a0
    3bc03342:	27800613          	li	a2,632
    3bc03346:	4581                	li	a1,0
    3bc03348:	8522                	mv	a0,s0
    3bc0334a:	ec8fd0ef          	jal	ra,3bc00a12 <memset>
    3bc0334e:	708c                	ld	a1,32(s1)
    3bc03350:	00008717          	auipc	a4,0x8
    3bc03354:	35070713          	addi	a4,a4,848 # 3bc0b6a0 <dwc2_ep_ops>
    3bc03358:	20000613          	li	a2,512
    3bc0335c:	00010797          	auipc	a5,0x10
    3bc03360:	04b7be23          	sd	a1,92(a5) # 3bc133b8 <reg>
    3bc03364:	00008797          	auipc	a5,0x8
    3bc03368:	ab478793          	addi	a5,a5,-1356 # 3bc0ae18 <dwc2_udc_ops>
    3bc0336c:	e81c                	sd	a5,16(s0)
    3bc0336e:	05040793          	addi	a5,s0,80
    3bc03372:	ec1c                	sd	a5,24(s0)
    3bc03374:	00008797          	auipc	a5,0x8
    3bc03378:	a9478793          	addi	a5,a5,-1388 # 3bc0ae08 <driver_name>
    3bc0337c:	f81c                	sd	a5,48(s0)
    3bc0337e:	02c44783          	lbu	a5,44(s0)
    3bc03382:	f838                	sd	a4,112(s0)
    3bc03384:	f878                	sd	a4,240(s0)
    3bc03386:	fc07f793          	andi	a5,a5,-64
    3bc0338a:	0017e793          	ori	a5,a5,1
    3bc0338e:	02f40623          	sb	a5,44(s0)
    3bc03392:	478d                	li	a5,3
    3bc03394:	d05c                	sw	a5,36(s0)
    3bc03396:	00008797          	auipc	a5,0x8
    3bc0339a:	aca78793          	addi	a5,a5,-1334 # 3bc0ae60 <ep0name>
    3bc0339e:	f43c                	sd	a5,104(s0)
    3bc033a0:	04000793          	li	a5,64
    3bc033a4:	06f41c23          	sh	a5,120(s0)
    3bc033a8:	00008797          	auipc	a5,0x8
    3bc033ac:	ac878793          	addi	a5,a5,-1336 # 3bc0ae70 <ep1name>
    3bc033b0:	f47c                	sd	a5,232(s0)
    3bc033b2:	28100793          	li	a5,641
    3bc033b6:	14f410a3          	sh	a5,321(s0)
    3bc033ba:	4785                	li	a5,1
    3bc033bc:	02079693          	slli	a3,a5,0x20
    3bc033c0:	00268513          	addi	a0,a3,2
    3bc033c4:	14a43223          	sd	a0,324(s0)
    3bc033c8:	0685                	addi	a3,a3,1
    3bc033ca:	00008517          	auipc	a0,0x8
    3bc033ce:	ab650513          	addi	a0,a0,-1354 # 3bc0ae80 <ep2name>
    3bc033d2:	16a43423          	sd	a0,360(s0)
    3bc033d6:	1cd43223          	sd	a3,452(s0)
    3bc033da:	20100513          	li	a0,513
    3bc033de:	00008697          	auipc	a3,0x8
    3bc033e2:	ab268693          	addi	a3,a3,-1358 # 3bc0ae90 <ep3name>
    3bc033e6:	1786                	slli	a5,a5,0x21
    3bc033e8:	078d                	addi	a5,a5,3
    3bc033ea:	16e43823          	sd	a4,368(s0)
    3bc033ee:	1ee43823          	sd	a4,496(s0)
    3bc033f2:	e024                	sd	s1,64(s0)
    3bc033f4:	24040823          	sb	zero,592(s0)
    3bc033f8:	e440                	sd	s0,136(s0)
    3bc033fa:	0c0410a3          	sh	zero,193(s0)
    3bc033fe:	0c042223          	sw	zero,196(s0)
    3bc03402:	0ec41c23          	sh	a2,248(s0)
    3bc03406:	10843423          	sd	s0,264(s0)
    3bc0340a:	16c41c23          	sh	a2,376(s0)
    3bc0340e:	18843423          	sd	s0,392(s0)
    3bc03412:	1ca410a3          	sh	a0,449(s0)
    3bc03416:	1ed43423          	sd	a3,488(s0)
    3bc0341a:	1ec41c23          	sh	a2,504(s0)
    3bc0341e:	20843423          	sd	s0,520(s0)
    3bc03422:	38200713          	li	a4,898
    3bc03426:	24e410a3          	sh	a4,577(s0)
    3bc0342a:	24f43223          	sd	a5,580(s0)
    3bc0342e:	00010797          	auipc	a5,0x10
    3bc03432:	f887b923          	sd	s0,-110(a5) # 3bc133c0 <the_controller>
    3bc03436:	60bc                	ld	a5,64(s1)
    3bc03438:	24f43c23          	sd	a5,600(s0)
    3bc0343c:	eb89                	bnez	a5,3bc0344e <dwc2_udc_probe+0x13e>
    3bc0343e:	00008517          	auipc	a0,0x8
    3bc03442:	93250513          	addi	a0,a0,-1742 # 3bc0ad70 <__func__.5+0x1d0>
    3bc03446:	f13fc0ef          	jal	ra,3bc00358 <tf_printf>
    3bc0344a:	5551                	li	a0,-12
    3bc0344c:	b5e5                	j	3bc03334 <dwc2_udc_probe+0x24>
    3bc0344e:	8522                	mv	a0,s0
    3bc03450:	26f42023          	sw	a5,608(s0)
    3bc03454:	26b43423          	sd	a1,616(s0)
    3bc03458:	c74ff0ef          	jal	ra,3bc028cc <udc_reinit>
    3bc0345c:	4501                	li	a0,0
    3bc0345e:	bdd9                	j	3bc03334 <dwc2_udc_probe+0x24>

000000003bc03460 <usb_gadget_handle_interrupts>:
    3bc03460:	1101                	addi	sp,sp,-32
    3bc03462:	e426                	sd	s1,8(sp)
    3bc03464:	00010497          	auipc	s1,0x10
    3bc03468:	f5448493          	addi	s1,s1,-172 # 3bc133b8 <reg>
    3bc0346c:	6088                	ld	a0,0(s1)
    3bc0346e:	ec06                	sd	ra,24(sp)
    3bc03470:	e822                	sd	s0,16(sp)
    3bc03472:	0551                	addi	a0,a0,20
    3bc03474:	acafe0ef          	jal	ra,3bc0173e <DWC2_UncachedRead32>
    3bc03478:	0005041b          	sext.w	s0,a0
    3bc0347c:	6088                	ld	a0,0(s1)
    3bc0347e:	0561                	addi	a0,a0,24
    3bc03480:	abefe0ef          	jal	ra,3bc0173e <DWC2_UncachedRead32>
    3bc03484:	2501                	sext.w	a0,a0
    3bc03486:	8c69                	and	s0,s0,a0
    3bc03488:	cc01                	beqz	s0,3bc034a0 <usb_gadget_handle_interrupts+0x40>
    3bc0348a:	6442                	ld	s0,16(sp)
    3bc0348c:	60e2                	ld	ra,24(sp)
    3bc0348e:	64a2                	ld	s1,8(sp)
    3bc03490:	00010597          	auipc	a1,0x10
    3bc03494:	f305b583          	ld	a1,-208(a1) # 3bc133c0 <the_controller>
    3bc03498:	4505                	li	a0,1
    3bc0349a:	6105                	addi	sp,sp,32
    3bc0349c:	3fb0006f          	j	3bc04096 <dwc2_udc_irq>
    3bc034a0:	60e2                	ld	ra,24(sp)
    3bc034a2:	6442                	ld	s0,16(sp)
    3bc034a4:	64a2                	ld	s1,8(sp)
    3bc034a6:	4501                	li	a0,0
    3bc034a8:	6105                	addi	sp,sp,32
    3bc034aa:	8082                	ret

000000003bc034ac <set_max_pktsize>:
    3bc034ac:	7179                	addi	sp,sp,-48
    3bc034ae:	f022                	sd	s0,32(sp)
    3bc034b0:	f406                	sd	ra,40(sp)
    3bc034b2:	ec26                	sd	s1,24(sp)
    3bc034b4:	470d                	li	a4,3
    3bc034b6:	26853403          	ld	s0,616(a0)
    3bc034ba:	00008697          	auipc	a3,0x8
    3bc034be:	23668693          	addi	a3,a3,566 # 3bc0b6f0 <ep0_fifo_size>
    3bc034c2:	00008797          	auipc	a5,0x8
    3bc034c6:	23278793          	addi	a5,a5,562 # 3bc0b6f4 <ep_fifo_size>
    3bc034ca:	06e59163          	bne	a1,a4,3bc0352c <set_max_pktsize+0x80>
    3bc034ce:	04000713          	li	a4,64
    3bc034d2:	c298                	sw	a4,0(a3)
    3bc034d4:	20000713          	li	a4,512
    3bc034d8:	c398                	sw	a4,0(a5)
    3bc034da:	d10c                	sw	a1,32(a0)
    3bc034dc:	0007d783          	lhu	a5,0(a5)
    3bc034e0:	6485                	lui	s1,0x1
    3bc034e2:	90048593          	addi	a1,s1,-1792 # 900 <__BSS_SIZE__-0x5310>
    3bc034e6:	95a2                	add	a1,a1,s0
    3bc034e8:	04000713          	li	a4,64
    3bc034ec:	06e51c23          	sh	a4,120(a0)
    3bc034f0:	0ef51c23          	sh	a5,248(a0)
    3bc034f4:	16f51c23          	sh	a5,376(a0)
    3bc034f8:	1ef51c23          	sh	a5,504(a0)
    3bc034fc:	852e                	mv	a0,a1
    3bc034fe:	e42e                	sd	a1,8(sp)
    3bc03500:	a3efe0ef          	jal	ra,3bc0173e <DWC2_UncachedRead32>
    3bc03504:	65a2                	ld	a1,8(sp)
    3bc03506:	2501                	sext.w	a0,a0
    3bc03508:	9971                	andi	a0,a0,-4
    3bc0350a:	b0048493          	addi	s1,s1,-1280
    3bc0350e:	a36fe0ef          	jal	ra,3bc01744 <DWC2_UncachedWrite32>
    3bc03512:	9426                	add	s0,s0,s1
    3bc03514:	8522                	mv	a0,s0
    3bc03516:	a28fe0ef          	jal	ra,3bc0173e <DWC2_UncachedRead32>
    3bc0351a:	85a2                	mv	a1,s0
    3bc0351c:	7402                	ld	s0,32(sp)
    3bc0351e:	70a2                	ld	ra,40(sp)
    3bc03520:	64e2                	ld	s1,24(sp)
    3bc03522:	2501                	sext.w	a0,a0
    3bc03524:	9971                	andi	a0,a0,-4
    3bc03526:	6145                	addi	sp,sp,48
    3bc03528:	a1cfe06f          	j	3bc01744 <DWC2_UncachedWrite32>
    3bc0352c:	04000713          	li	a4,64
    3bc03530:	c298                	sw	a4,0(a3)
    3bc03532:	c398                	sw	a4,0(a5)
    3bc03534:	4709                	li	a4,2
    3bc03536:	d118                	sw	a4,32(a0)
    3bc03538:	b755                	j	3bc034dc <set_max_pktsize+0x30>

000000003bc0353a <dwc2_udc_ep_clear_stall>:
    3bc0353a:	1101                	addi	sp,sp,-32
    3bc0353c:	e822                	sd	s0,16(sp)
    3bc0353e:	ec06                	sd	ra,24(sp)
    3bc03540:	07154703          	lbu	a4,113(a0)
    3bc03544:	7d1c                	ld	a5,56(a0)
    3bc03546:	842a                	mv	s0,a0
    3bc03548:	fc77368b          	extu	a3,a4,63,7
    3bc0354c:	2687b583          	ld	a1,616(a5)
    3bc03550:	00f77793          	andi	a5,a4,15
    3bc03554:	ce9d                	beqz	a3,3bc03592 <dwc2_udc_ep_clear_stall+0x58>
    3bc03556:	04878793          	addi	a5,a5,72
    3bc0355a:	0796                	slli	a5,a5,0x5
    3bc0355c:	95be                	add	a1,a1,a5
    3bc0355e:	852e                	mv	a0,a1
    3bc03560:	e42e                	sd	a1,8(sp)
    3bc03562:	9dcfe0ef          	jal	ra,3bc0173e <DWC2_UncachedRead32>
    3bc03566:	ffe007b7          	lui	a5,0xffe00
    3bc0356a:	17fd                	addi	a5,a5,-1
    3bc0356c:	2501                	sext.w	a0,a0
    3bc0356e:	8d7d                	and	a0,a0,a5
    3bc03570:	07244783          	lbu	a5,114(s0)
    3bc03574:	4705                	li	a4,1
    3bc03576:	65a2                	ld	a1,8(sp)
    3bc03578:	37f9                	addiw	a5,a5,-2
    3bc0357a:	0ff7f793          	andi	a5,a5,255
    3bc0357e:	00f76563          	bltu	a4,a5,3bc03588 <dwc2_udc_ep_clear_stall+0x4e>
    3bc03582:	100007b7          	lui	a5,0x10000
    3bc03586:	8d5d                	or	a0,a0,a5
    3bc03588:	6442                	ld	s0,16(sp)
    3bc0358a:	60e2                	ld	ra,24(sp)
    3bc0358c:	6105                	addi	sp,sp,32
    3bc0358e:	9b6fe06f          	j	3bc01744 <DWC2_UncachedWrite32>
    3bc03592:	05878793          	addi	a5,a5,88 # 10000058 <p_rom_api_cryptodma_aes_decrypt+0xbbfff58>
    3bc03596:	b7d1                	j	3bc0355a <dwc2_udc_ep_clear_stall+0x20>

000000003bc03598 <dwc2_udc_ep_set_stall>:
    3bc03598:	1101                	addi	sp,sp,-32
    3bc0359a:	ec06                	sd	ra,24(sp)
    3bc0359c:	07154703          	lbu	a4,113(a0)
    3bc035a0:	7d1c                	ld	a5,56(a0)
    3bc035a2:	fc77368b          	extu	a3,a4,63,7
    3bc035a6:	2687b583          	ld	a1,616(a5)
    3bc035aa:	00f77793          	andi	a5,a4,15
    3bc035ae:	ca85                	beqz	a3,3bc035de <dwc2_udc_ep_set_stall+0x46>
    3bc035b0:	04878793          	addi	a5,a5,72
    3bc035b4:	0796                	slli	a5,a5,0x5
    3bc035b6:	95be                	add	a1,a1,a5
    3bc035b8:	852e                	mv	a0,a1
    3bc035ba:	e42e                	sd	a1,8(sp)
    3bc035bc:	982fe0ef          	jal	ra,3bc0173e <DWC2_UncachedRead32>
    3bc035c0:	0005079b          	sext.w	a5,a0
    3bc035c4:	65a2                	ld	a1,8(sp)
    3bc035c6:	0007d563          	bgez	a5,3bc035d0 <dwc2_udc_ep_set_stall+0x38>
    3bc035ca:	40000737          	lui	a4,0x40000
    3bc035ce:	8fd9                	or	a5,a5,a4
    3bc035d0:	00200537          	lui	a0,0x200
    3bc035d4:	8d5d                	or	a0,a0,a5
    3bc035d6:	60e2                	ld	ra,24(sp)
    3bc035d8:	6105                	addi	sp,sp,32
    3bc035da:	96afe06f          	j	3bc01744 <DWC2_UncachedWrite32>
    3bc035de:	05878793          	addi	a5,a5,88
    3bc035e2:	0796                	slli	a5,a5,0x5
    3bc035e4:	95be                	add	a1,a1,a5
    3bc035e6:	852e                	mv	a0,a1
    3bc035e8:	e42e                	sd	a1,8(sp)
    3bc035ea:	954fe0ef          	jal	ra,3bc0173e <DWC2_UncachedRead32>
    3bc035ee:	002007b7          	lui	a5,0x200
    3bc035f2:	8d5d                	or	a0,a0,a5
    3bc035f4:	65a2                	ld	a1,8(sp)
    3bc035f6:	2501                	sext.w	a0,a0
    3bc035f8:	bff9                	j	3bc035d6 <dwc2_udc_ep_set_stall+0x3e>

000000003bc035fa <dwc2_ep0_complete_out>:
    3bc035fa:	7139                	addi	sp,sp,-64
    3bc035fc:	f822                	sd	s0,48(sp)
    3bc035fe:	26853403          	ld	s0,616(a0) # 200268 <__BSS_SIZE__+0x1fa658>
    3bc03602:	f426                	sd	s1,40(sp)
    3bc03604:	6485                	lui	s1,0x1
    3bc03606:	ec4e                	sd	s3,24(sp)
    3bc03608:	b1048593          	addi	a1,s1,-1264 # b10 <__BSS_SIZE__-0x5100>
    3bc0360c:	000809b7          	lui	s3,0x80
    3bc03610:	f04a                	sd	s2,32(sp)
    3bc03612:	95a2                	add	a1,a1,s0
    3bc03614:	892a                	mv	s2,a0
    3bc03616:	00898513          	addi	a0,s3,8 # 80008 <__BSS_SIZE__+0x7a3f8>
    3bc0361a:	fc06                	sd	ra,56(sp)
    3bc0361c:	928fe0ef          	jal	ra,3bc01744 <DWC2_UncachedWrite32>
    3bc03620:	26092503          	lw	a0,608(s2)
    3bc03624:	b1448593          	addi	a1,s1,-1260
    3bc03628:	95a2                	add	a1,a1,s0
    3bc0362a:	91afe0ef          	jal	ra,3bc01744 <DWC2_UncachedWrite32>
    3bc0362e:	b0048593          	addi	a1,s1,-1280
    3bc03632:	95a2                	add	a1,a1,s0
    3bc03634:	852e                	mv	a0,a1
    3bc03636:	e42e                	sd	a1,8(sp)
    3bc03638:	906fe0ef          	jal	ra,3bc0173e <DWC2_UncachedRead32>
    3bc0363c:	0005041b          	sext.w	s0,a0
    3bc03640:	c0000537          	lui	a0,0xc0000
    3bc03644:	157d                	addi	a0,a0,-1
    3bc03646:	65a2                	ld	a1,8(sp)
    3bc03648:	8c69                	and	s0,s0,a0
    3bc0364a:	84000537          	lui	a0,0x84000
    3bc0364e:	8c49                	or	s0,s0,a0
    3bc03650:	8522                	mv	a0,s0
    3bc03652:	8f2fe0ef          	jal	ra,3bc01744 <DWC2_UncachedWrite32>
    3bc03656:	85a2                	mv	a1,s0
    3bc03658:	7442                	ld	s0,48(sp)
    3bc0365a:	26092603          	lw	a2,608(s2)
    3bc0365e:	70e2                	ld	ra,56(sp)
    3bc03660:	74a2                	ld	s1,40(sp)
    3bc03662:	7902                	ld	s2,32(sp)
    3bc03664:	00898693          	addi	a3,s3,8
    3bc03668:	69e2                	ld	s3,24(sp)
    3bc0366a:	00089537          	lui	a0,0x89
    3bc0366e:	4701                	li	a4,0
    3bc03670:	88850513          	addi	a0,a0,-1912 # 88888 <__BSS_SIZE__+0x82c78>
    3bc03674:	6121                	addi	sp,sp,64
    3bc03676:	a4aff06f          	j	3bc028c0 <dwc2_log_write>

000000003bc0367a <dwc2_udc_ep0_zlp>:
    3bc0367a:	7179                	addi	sp,sp,-48
    3bc0367c:	f022                	sd	s0,32(sp)
    3bc0367e:	26853403          	ld	s0,616(a0)
    3bc03682:	ec26                	sd	s1,24(sp)
    3bc03684:	e84a                	sd	s2,16(sp)
    3bc03686:	6485                	lui	s1,0x1
    3bc03688:	892a                	mv	s2,a0
    3bc0368a:	26052503          	lw	a0,608(a0)
    3bc0368e:	91448593          	addi	a1,s1,-1772 # 914 <__BSS_SIZE__-0x52fc>
    3bc03692:	95a2                	add	a1,a1,s0
    3bc03694:	f406                	sd	ra,40(sp)
    3bc03696:	8aefe0ef          	jal	ra,3bc01744 <DWC2_UncachedWrite32>
    3bc0369a:	91048593          	addi	a1,s1,-1776
    3bc0369e:	95a2                	add	a1,a1,s0
    3bc036a0:	00080537          	lui	a0,0x80
    3bc036a4:	8a0fe0ef          	jal	ra,3bc01744 <DWC2_UncachedWrite32>
    3bc036a8:	90048593          	addi	a1,s1,-1792
    3bc036ac:	95a2                	add	a1,a1,s0
    3bc036ae:	852e                	mv	a0,a1
    3bc036b0:	e42e                	sd	a1,8(sp)
    3bc036b2:	88cfe0ef          	jal	ra,3bc0173e <DWC2_UncachedRead32>
    3bc036b6:	0005041b          	sext.w	s0,a0
    3bc036ba:	c0000537          	lui	a0,0xc0000
    3bc036be:	157d                	addi	a0,a0,-1
    3bc036c0:	65a2                	ld	a1,8(sp)
    3bc036c2:	8c69                	and	s0,s0,a0
    3bc036c4:	84000537          	lui	a0,0x84000
    3bc036c8:	8c49                	or	s0,s0,a0
    3bc036ca:	8522                	mv	a0,s0
    3bc036cc:	878fe0ef          	jal	ra,3bc01744 <DWC2_UncachedWrite32>
    3bc036d0:	479d                	li	a5,7
    3bc036d2:	85a2                	mv	a1,s0
    3bc036d4:	7402                	ld	s0,32(sp)
    3bc036d6:	26092603          	lw	a2,608(s2)
    3bc036da:	70a2                	ld	ra,40(sp)
    3bc036dc:	64e2                	ld	s1,24(sp)
    3bc036de:	04f92423          	sw	a5,72(s2)
    3bc036e2:	6942                	ld	s2,16(sp)
    3bc036e4:	000ab537          	lui	a0,0xab
    3bc036e8:	4701                	li	a4,0
    3bc036ea:	000806b7          	lui	a3,0x80
    3bc036ee:	aaa50513          	addi	a0,a0,-1366 # aaaaa <__BSS_SIZE__+0xa4e9a>
    3bc036f2:	6145                	addi	sp,sp,48
    3bc036f4:	9ccff06f          	j	3bc028c0 <dwc2_log_write>

000000003bc036f8 <dwc2_udc_ep0_set_stall.isra.0>:
    3bc036f8:	1101                	addi	sp,sp,-32
    3bc036fa:	e822                	sd	s0,16(sp)
    3bc036fc:	e426                	sd	s1,8(sp)
    3bc036fe:	26853403          	ld	s0,616(a0)
    3bc03702:	84aa                	mv	s1,a0
    3bc03704:	00087537          	lui	a0,0x87
    3bc03708:	08750513          	addi	a0,a0,135 # 87087 <__BSS_SIZE__+0x81477>
    3bc0370c:	4701                	li	a4,0
    3bc0370e:	4681                	li	a3,0
    3bc03710:	4601                	li	a2,0
    3bc03712:	e04a                	sd	s2,0(sp)
    3bc03714:	ec06                	sd	ra,24(sp)
    3bc03716:	892e                	mv	s2,a1
    3bc03718:	9a8ff0ef          	jal	ra,3bc028c0 <dwc2_log_write>
    3bc0371c:	6505                	lui	a0,0x1
    3bc0371e:	02090b63          	beqz	s2,3bc03754 <dwc2_udc_ep0_set_stall.isra.0+0x5c>
    3bc03722:	90050513          	addi	a0,a0,-1792 # 900 <__BSS_SIZE__-0x5310>
    3bc03726:	9522                	add	a0,a0,s0
    3bc03728:	816fe0ef          	jal	ra,3bc0173e <DWC2_UncachedRead32>
    3bc0372c:	2501                	sext.w	a0,a0
    3bc0372e:	002007b7          	lui	a5,0x200
    3bc03732:	8d5d                	or	a0,a0,a5
    3bc03734:	6585                	lui	a1,0x1
    3bc03736:	02090263          	beqz	s2,3bc0375a <dwc2_udc_ep0_set_stall.isra.0+0x62>
    3bc0373a:	90058593          	addi	a1,a1,-1792 # 900 <__BSS_SIZE__-0x5310>
    3bc0373e:	95a2                	add	a1,a1,s0
    3bc03740:	804fe0ef          	jal	ra,3bc01744 <DWC2_UncachedWrite32>
    3bc03744:	60e2                	ld	ra,24(sp)
    3bc03746:	6442                	ld	s0,16(sp)
    3bc03748:	0404a423          	sw	zero,72(s1)
    3bc0374c:	6902                	ld	s2,0(sp)
    3bc0374e:	64a2                	ld	s1,8(sp)
    3bc03750:	6105                	addi	sp,sp,32
    3bc03752:	8082                	ret
    3bc03754:	b0050513          	addi	a0,a0,-1280
    3bc03758:	b7f9                	j	3bc03726 <dwc2_udc_ep0_set_stall.isra.0+0x2e>
    3bc0375a:	b0058593          	addi	a1,a1,-1280
    3bc0375e:	b7c5                	j	3bc0373e <dwc2_udc_ep0_set_stall.isra.0+0x46>

000000003bc03760 <setdma_rx.isra.0>:
    3bc03760:	7179                	addi	sp,sp,-48
    3bc03762:	7d18                	ld	a4,56(a0)
    3bc03764:	5dd4                	lw	a3,60(a1)
    3bc03766:	ec26                	sd	s1,24(sp)
    3bc03768:	f406                	sd	ra,40(sp)
    3bc0376a:	f022                	sd	s0,32(sp)
    3bc0376c:	e84a                	sd	s2,16(sp)
    3bc0376e:	07154783          	lbu	a5,113(a0)
    3bc03772:	84aa                	mv	s1,a0
    3bc03774:	6988                	ld	a0,16(a1)
    3bc03776:	26873603          	ld	a2,616(a4) # 40000268 <__BL2_END__+0x43ece58>
    3bc0377a:	7c06b70b          	extu	a4,a3,31,0
    3bc0377e:	953a                	add	a0,a0,a4
    3bc03780:	4d98                	lw	a4,24(a1)
    3bc03782:	8bbd                	andi	a5,a5,15
    3bc03784:	6591                	lui	a1,0x4
    3bc03786:	9f15                	subw	a4,a4,a3
    3bc03788:	e399                	bnez	a5,3bc0378e <setdma_rx.isra.0+0x2e>
    3bc0378a:	0284d583          	lhu	a1,40(s1)
    3bc0378e:	0007069b          	sext.w	a3,a4
    3bc03792:	00d5b6b3          	sltu	a3,a1,a3
    3bc03796:	0016c693          	xori	a3,a3,1
    3bc0379a:	40d5970b          	mveqz	a4,a1,a3
    3bc0379e:	d0b8                	sw	a4,96(s1)
    3bc037a0:	f4a8                	sd	a0,104(s1)
    3bc037a2:	0007091b          	sext.w	s2,a4
    3bc037a6:	4405                	li	s0,1
    3bc037a8:	cb91                	beqz	a5,3bc037bc <setdma_rx.isra.0+0x5c>
    3bc037aa:	00090963          	beqz	s2,3bc037bc <setdma_rx.isra.0+0x5c>
    3bc037ae:	0284d683          	lhu	a3,40(s1)
    3bc037b2:	fff9041b          	addiw	s0,s2,-1
    3bc037b6:	02d4543b          	divuw	s0,s0,a3
    3bc037ba:	2405                	addiw	s0,s0,1
    3bc037bc:	05878793          	addi	a5,a5,88 # 200058 <__BSS_SIZE__+0x1fa448>
    3bc037c0:	0796                	slli	a5,a5,0x5
    3bc037c2:	00f605b3          	add	a1,a2,a5
    3bc037c6:	852e                	mv	a0,a1
    3bc037c8:	e42e                	sd	a1,8(sp)
    3bc037ca:	f75fd0ef          	jal	ra,3bc0173e <DWC2_UncachedRead32>
    3bc037ce:	54b0                	lw	a2,104(s1)
    3bc037d0:	840004b7          	lui	s1,0x84000
    3bc037d4:	65a2                	ld	a1,8(sp)
    3bc037d6:	8cc9                	or	s1,s1,a0
    3bc037d8:	2481                	sext.w	s1,s1
    3bc037da:	8526                	mv	a0,s1
    3bc037dc:	0134141b          	slliw	s0,s0,0x13
    3bc037e0:	e032                	sd	a2,0(sp)
    3bc037e2:	00896433          	or	s0,s2,s0
    3bc037e6:	f5ffd0ef          	jal	ra,3bc01744 <DWC2_UncachedWrite32>
    3bc037ea:	0004069b          	sext.w	a3,s0
    3bc037ee:	7402                	ld	s0,32(sp)
    3bc037f0:	6602                	ld	a2,0(sp)
    3bc037f2:	70a2                	ld	ra,40(sp)
    3bc037f4:	6942                	ld	s2,16(sp)
    3bc037f6:	85a6                	mv	a1,s1
    3bc037f8:	64e2                	ld	s1,24(sp)
    3bc037fa:	00077537          	lui	a0,0x77
    3bc037fe:	4701                	li	a4,0
    3bc03800:	77750513          	addi	a0,a0,1911 # 77777 <__BSS_SIZE__+0x71b67>
    3bc03804:	6145                	addi	sp,sp,48
    3bc03806:	8baff06f          	j	3bc028c0 <dwc2_log_write>

000000003bc0380a <complete_rx>:
    3bc0380a:	715d                	addi	sp,sp,-80
    3bc0380c:	ec56                	sd	s5,24(sp)
    3bc0380e:	8aae                	mv	s5,a1
    3bc03810:	fc26                	sd	s1,56(sp)
    3bc03812:	4581                	li	a1,0
    3bc03814:	84aa                	mv	s1,a0
    3bc03816:	8556                	mv	a0,s5
    3bc03818:	e0a2                	sd	s0,64(sp)
    3bc0381a:	f84a                	sd	s2,48(sp)
    3bc0381c:	f44e                	sd	s3,40(sp)
    3bc0381e:	f052                	sd	s4,32(sp)
    3bc03820:	e486                	sd	ra,72(sp)
    3bc03822:	addff0ef          	jal	ra,3bc032fe <dwc2_phy_to_log_ep>
    3bc03826:	0005079b          	sext.w	a5,a0
    3bc0382a:	00779a13          	slli	s4,a5,0x7
    3bc0382e:	014487b3          	add	a5,s1,s4
    3bc03832:	00751413          	slli	s0,a0,0x7
    3bc03836:	0987b903          	ld	s2,152(a5)
    3bc0383a:	09840993          	addi	s3,s0,152
    3bc0383e:	99a6                	add	s3,s3,s1
    3bc03840:	09298563          	beq	s3,s2,3bc038ca <complete_rx+0xc0>
    3bc03844:	6505                	lui	a0,0x1
    3bc03846:	b1050513          	addi	a0,a0,-1264 # b10 <__BSS_SIZE__-0x5100>
    3bc0384a:	005a9793          	slli	a5,s5,0x5
    3bc0384e:	97aa                	add	a5,a5,a0
    3bc03850:	2684b503          	ld	a0,616(s1) # ffffffff84000268 <__BL2_END__+0xffffffff483ece58>
    3bc03854:	fc090593          	addi	a1,s2,-64
    3bc03858:	e42e                	sd	a1,8(sp)
    3bc0385a:	953e                	add	a0,a0,a5
    3bc0385c:	ee3fd0ef          	jal	ra,3bc0173e <DWC2_UncachedRead32>
    3bc03860:	0005071b          	sext.w	a4,a0
    3bc03864:	65a2                	ld	a1,8(sp)
    3bc03866:	07f77693          	andi	a3,a4,127
    3bc0386a:	000a8463          	beqz	s5,3bc03872 <complete_rx+0x68>
    3bc0386e:	fe092683          	lw	a3,-32(s2)
    3bc03872:	01448833          	add	a6,s1,s4
    3bc03876:	0b082703          	lw	a4,176(a6)
    3bc0387a:	ffc92883          	lw	a7,-4(s2)
    3bc0387e:	fd892603          	lw	a2,-40(s2)
    3bc03882:	40d7033b          	subw	t1,a4,a3
    3bc03886:	05040513          	addi	a0,s0,80
    3bc0388a:	411607bb          	subw	a5,a2,a7
    3bc0388e:	86be                	mv	a3,a5
    3bc03890:	00f337b3          	sltu	a5,t1,a5
    3bc03894:	0017c793          	xori	a5,a5,1
    3bc03898:	40f3168b          	mveqz	a3,t1,a5
    3bc0389c:	011687bb          	addw	a5,a3,a7
    3bc038a0:	07885683          	lhu	a3,120(a6)
    3bc038a4:	fef92e23          	sw	a5,-4(s2)
    3bc038a8:	9526                	add	a0,a0,s1
    3bc038aa:	02d3773b          	remuw	a4,t1,a3
    3bc038ae:	e319                	bnez	a4,3bc038b4 <complete_rx+0xaa>
    3bc038b0:	04f61263          	bne	a2,a5,3bc038f4 <complete_rx+0xea>
    3bc038b4:	020a9463          	bnez	s5,3bc038dc <complete_rx+0xd2>
    3bc038b8:	44b8                	lw	a4,72(s1)
    3bc038ba:	4791                	li	a5,4
    3bc038bc:	02f71063          	bne	a4,a5,3bc038dc <complete_rx+0xd2>
    3bc038c0:	8526                	mv	a0,s1
    3bc038c2:	db9ff0ef          	jal	ra,3bc0367a <dwc2_udc_ep0_zlp>
    3bc038c6:	479d                	li	a5,7
    3bc038c8:	c4bc                	sw	a5,72(s1)
    3bc038ca:	60a6                	ld	ra,72(sp)
    3bc038cc:	6406                	ld	s0,64(sp)
    3bc038ce:	74e2                	ld	s1,56(sp)
    3bc038d0:	7942                	ld	s2,48(sp)
    3bc038d2:	79a2                	ld	s3,40(sp)
    3bc038d4:	7a02                	ld	s4,32(sp)
    3bc038d6:	6ae2                	ld	s5,24(sp)
    3bc038d8:	6161                	addi	sp,sp,80
    3bc038da:	8082                	ret
    3bc038dc:	4601                	li	a2,0
    3bc038de:	e42a                	sd	a0,8(sp)
    3bc038e0:	832ff0ef          	jal	ra,3bc02912 <dwc2_done>
    3bc038e4:	014487b3          	add	a5,s1,s4
    3bc038e8:	6fcc                	ld	a1,152(a5)
    3bc038ea:	feb980e3          	beq	s3,a1,3bc038ca <complete_rx+0xc0>
    3bc038ee:	6522                	ld	a0,8(sp)
    3bc038f0:	fc058593          	addi	a1,a1,-64 # 3fc0 <__BSS_SIZE__-0x1c50>
    3bc038f4:	6406                	ld	s0,64(sp)
    3bc038f6:	60a6                	ld	ra,72(sp)
    3bc038f8:	74e2                	ld	s1,56(sp)
    3bc038fa:	7942                	ld	s2,48(sp)
    3bc038fc:	79a2                	ld	s3,40(sp)
    3bc038fe:	7a02                	ld	s4,32(sp)
    3bc03900:	6ae2                	ld	s5,24(sp)
    3bc03902:	6161                	addi	sp,sp,80
    3bc03904:	bdb1                	j	3bc03760 <setdma_rx.isra.0>

000000003bc03906 <dwc2_udc_pre_setup>:
    3bc03906:	26853583          	ld	a1,616(a0)
    3bc0390a:	6785                	lui	a5,0x1
    3bc0390c:	b1078793          	addi	a5,a5,-1264 # b10 <__BSS_SIZE__-0x5100>
    3bc03910:	20080537          	lui	a0,0x20080
    3bc03914:	95be                	add	a1,a1,a5
    3bc03916:	0521                	addi	a0,a0,8
    3bc03918:	e2dfd06f          	j	3bc01744 <DWC2_UncachedWrite32>

000000003bc0391c <dwc2_ep_fifo_write>:
    3bc0391c:	7179                	addi	sp,sp,-48
    3bc0391e:	e84a                	sd	s2,16(sp)
    3bc03920:	26853903          	ld	s2,616(a0) # 20080268 <p_rom_api_cryptodma_aes_decrypt+0x1bc80168>
    3bc03924:	0585                	addi	a1,a1,1
    3bc03926:	f022                	sd	s0,32(sp)
    3bc03928:	05b2                	slli	a1,a1,0xc
    3bc0392a:	0036841b          	addiw	s0,a3,3
    3bc0392e:	ec26                	sd	s1,24(sp)
    3bc03930:	f406                	sd	ra,40(sp)
    3bc03932:	4024340b          	extu	s0,s0,16,2
    3bc03936:	992e                	add	s2,s2,a1
    3bc03938:	4481                	li	s1,0
    3bc0393a:	0004879b          	sext.w	a5,s1
    3bc0393e:	0087e863          	bltu	a5,s0,3bc0394e <dwc2_ep_fifo_write+0x32>
    3bc03942:	70a2                	ld	ra,40(sp)
    3bc03944:	7402                	ld	s0,32(sp)
    3bc03946:	64e2                	ld	s1,24(sp)
    3bc03948:	6942                	ld	s2,16(sp)
    3bc0394a:	6145                	addi	sp,sp,48
    3bc0394c:	8082                	ret
    3bc0394e:	4496450b          	lrw	a0,a2,s1,2
    3bc03952:	85ca                	mv	a1,s2
    3bc03954:	e432                	sd	a2,8(sp)
    3bc03956:	deffd0ef          	jal	ra,3bc01744 <DWC2_UncachedWrite32>
    3bc0395a:	6622                	ld	a2,8(sp)
    3bc0395c:	0485                	addi	s1,s1,1
    3bc0395e:	bff1                	j	3bc0393a <dwc2_ep_fifo_write+0x1e>

000000003bc03960 <setdma_tx>:
    3bc03960:	7d1c                	ld	a5,56(a0)
    3bc03962:	7119                	addi	sp,sp,-128
    3bc03964:	f8a2                	sd	s0,112(sp)
    3bc03966:	f862                	sd	s8,48(sp)
    3bc03968:	f466                	sd	s9,40(sp)
    3bc0396a:	f06a                	sd	s10,32(sp)
    3bc0396c:	2687bc83          	ld	s9,616(a5)
    3bc03970:	fc86                	sd	ra,120(sp)
    3bc03972:	5ddc                	lw	a5,60(a1)
    3bc03974:	f4a6                	sd	s1,104(sp)
    3bc03976:	f0ca                	sd	s2,96(sp)
    3bc03978:	ecce                	sd	s3,88(sp)
    3bc0397a:	e8d2                	sd	s4,80(sp)
    3bc0397c:	e4d6                	sd	s5,72(sp)
    3bc0397e:	e0da                	sd	s6,64(sp)
    3bc03980:	fc5e                	sd	s7,56(sp)
    3bc03982:	ec6e                	sd	s11,24(sp)
    3bc03984:	07154903          	lbu	s2,113(a0)
    3bc03988:	6998                	ld	a4,16(a1)
    3bc0398a:	4d80                	lw	s0,24(a1)
    3bc0398c:	7c07b60b          	extu	a2,a5,31,0
    3bc03990:	00f97d13          	andi	s10,s2,15
    3bc03994:	963a                	add	a2,a2,a4
    3bc03996:	40f4073b          	subw	a4,s0,a5
    3bc0399a:	6791                	lui	a5,0x4
    3bc0399c:	8c2a                	mv	s8,a0
    3bc0399e:	896a                	mv	s2,s10
    3bc039a0:	6411                	lui	s0,0x4
    3bc039a2:	00e7e363          	bltu	a5,a4,3bc039a8 <setdma_tx+0x48>
    3bc039a6:	843a                	mv	s0,a4
    3bc039a8:	000d1d63          	bnez	s10,3bc039c2 <setdma_tx+0x62>
    3bc039ac:	028c5783          	lhu	a5,40(s8)
    3bc039b0:	873e                	mv	a4,a5
    3bc039b2:	00f437b3          	sltu	a5,s0,a5
    3bc039b6:	0017c793          	xori	a5,a5,1
    3bc039ba:	40f4170b          	mveqz	a4,s0,a5
    3bc039be:	0007041b          	sext.w	s0,a4
    3bc039c2:	0004099b          	sext.w	s3,s0
    3bc039c6:	073c2023          	sw	s3,96(s8)
    3bc039ca:	06cc3423          	sd	a2,104(s8)
    3bc039ce:	00060a1b          	sext.w	s4,a2
    3bc039d2:	4785                	li	a5,1
    3bc039d4:	c801                	beqz	s0,3bc039e4 <setdma_tx+0x84>
    3bc039d6:	028c5503          	lhu	a0,40(s8)
    3bc039da:	fff4079b          	addiw	a5,s0,-1
    3bc039de:	02a7d7bb          	divuw	a5,a5,a0
    3bc039e2:	2785                	addiw	a5,a5,1
    3bc039e4:	6d85                	lui	s11,0x1
    3bc039e6:	005d1b13          	slli	s6,s10,0x5
    3bc039ea:	910d8a93          	addi	s5,s11,-1776 # 910 <__BSS_SIZE__-0x5300>
    3bc039ee:	0137979b          	slliw	a5,a5,0x13
    3bc039f2:	9ada                	add	s5,s5,s6
    3bc039f4:	00f46533          	or	a0,s0,a5
    3bc039f8:	9ae6                	add	s5,s5,s9
    3bc039fa:	85d6                	mv	a1,s5
    3bc039fc:	2501                	sext.w	a0,a0
    3bc039fe:	e432                	sd	a2,8(sp)
    3bc03a00:	d45fd0ef          	jal	ra,3bc01744 <DWC2_UncachedWrite32>
    3bc03a04:	900d8793          	addi	a5,s11,-1792
    3bc03a08:	9b3e                	add	s6,s6,a5
    3bc03a0a:	9b66                	add	s6,s6,s9
    3bc03a0c:	855a                	mv	a0,s6
    3bc03a0e:	d31fd0ef          	jal	ra,3bc0173e <DWC2_UncachedRead32>
    3bc03a12:	078c2783          	lw	a5,120(s8)
    3bc03a16:	bc4004b7          	lui	s1,0xbc400
    3bc03a1a:	00050b9b          	sext.w	s7,a0
    3bc03a1e:	14fd                	addi	s1,s1,-1
    3bc03a20:	0167979b          	slliw	a5,a5,0x16
    3bc03a24:	009bf4b3          	and	s1,s7,s1
    3bc03a28:	8cdd                	or	s1,s1,a5
    3bc03a2a:	77e1                	lui	a5,0xffff8
    3bc03a2c:	7ff78793          	addi	a5,a5,2047 # ffffffffffff87ff <__BL2_END__+0xffffffffc43e53ef>
    3bc03a30:	2481                	sext.w	s1,s1
    3bc03a32:	8cfd                	and	s1,s1,a5
    3bc03a34:	840007b7          	lui	a5,0x84000
    3bc03a38:	8cdd                	or	s1,s1,a5
    3bc03a3a:	85da                	mv	a1,s6
    3bc03a3c:	8526                	mv	a0,s1
    3bc03a3e:	d07fd0ef          	jal	ra,3bc01744 <DWC2_UncachedWrite32>
    3bc03a42:	6622                	ld	a2,8(sp)
    3bc03a44:	038c3503          	ld	a0,56(s8)
    3bc03a48:	3c04368b          	extu	a3,s0,15,0
    3bc03a4c:	85ea                	mv	a1,s10
    3bc03a4e:	ecfff0ef          	jal	ra,3bc0391c <dwc2_ep_fifo_write>
    3bc03a52:	c809                	beqz	s0,3bc03a64 <setdma_tx+0x104>
    3bc03a54:	834d8593          	addi	a1,s11,-1996
    3bc03a58:	4505                	li	a0,1
    3bc03a5a:	95e6                	add	a1,a1,s9
    3bc03a5c:	0125153b          	sllw	a0,a0,s2
    3bc03a60:	ce5fd0ef          	jal	ra,3bc01744 <DWC2_UncachedWrite32>
    3bc03a64:	855a                	mv	a0,s6
    3bc03a66:	cd9fd0ef          	jal	ra,3bc0173e <DWC2_UncachedRead32>
    3bc03a6a:	0005071b          	sext.w	a4,a0
    3bc03a6e:	00044537          	lui	a0,0x44
    3bc03a72:	86de                	mv	a3,s7
    3bc03a74:	8652                	mv	a2,s4
    3bc03a76:	85a6                	mv	a1,s1
    3bc03a78:	44450513          	addi	a0,a0,1092 # 44444 <__BSS_SIZE__+0x3e834>
    3bc03a7c:	e45fe0ef          	jal	ra,3bc028c0 <dwc2_log_write>
    3bc03a80:	8556                	mv	a0,s5
    3bc03a82:	cbdfd0ef          	jal	ra,3bc0173e <DWC2_UncachedRead32>
    3bc03a86:	0005059b          	sext.w	a1,a0
    3bc03a8a:	00046537          	lui	a0,0x46
    3bc03a8e:	86ca                	mv	a3,s2
    3bc03a90:	8622                	mv	a2,s0
    3bc03a92:	46450513          	addi	a0,a0,1124 # 46464 <__BSS_SIZE__+0x40854>
    3bc03a96:	4701                	li	a4,0
    3bc03a98:	e29fe0ef          	jal	ra,3bc028c0 <dwc2_log_write>
    3bc03a9c:	70e6                	ld	ra,120(sp)
    3bc03a9e:	7446                	ld	s0,112(sp)
    3bc03aa0:	74a6                	ld	s1,104(sp)
    3bc03aa2:	7906                	ld	s2,96(sp)
    3bc03aa4:	6a46                	ld	s4,80(sp)
    3bc03aa6:	6aa6                	ld	s5,72(sp)
    3bc03aa8:	6b06                	ld	s6,64(sp)
    3bc03aaa:	7be2                	ld	s7,56(sp)
    3bc03aac:	7c42                	ld	s8,48(sp)
    3bc03aae:	7ca2                	ld	s9,40(sp)
    3bc03ab0:	7d02                	ld	s10,32(sp)
    3bc03ab2:	6de2                	ld	s11,24(sp)
    3bc03ab4:	854e                	mv	a0,s3
    3bc03ab6:	69e6                	ld	s3,88(sp)
    3bc03ab8:	6109                	addi	sp,sp,128
    3bc03aba:	8082                	ret

000000003bc03abc <dwc2_ep_fifo_read>:
    3bc03abc:	7179                	addi	sp,sp,-48
    3bc03abe:	e84a                	sd	s2,16(sp)
    3bc03ac0:	26853903          	ld	s2,616(a0)
    3bc03ac4:	0585                	addi	a1,a1,1
    3bc03ac6:	f022                	sd	s0,32(sp)
    3bc03ac8:	05b2                	slli	a1,a1,0xc
    3bc03aca:	0036841b          	addiw	s0,a3,3
    3bc03ace:	ec26                	sd	s1,24(sp)
    3bc03ad0:	f406                	sd	ra,40(sp)
    3bc03ad2:	4024340b          	extu	s0,s0,16,2
    3bc03ad6:	992e                	add	s2,s2,a1
    3bc03ad8:	4481                	li	s1,0
    3bc03ada:	0004879b          	sext.w	a5,s1
    3bc03ade:	0087e863          	bltu	a5,s0,3bc03aee <dwc2_ep_fifo_read+0x32>
    3bc03ae2:	70a2                	ld	ra,40(sp)
    3bc03ae4:	7402                	ld	s0,32(sp)
    3bc03ae6:	64e2                	ld	s1,24(sp)
    3bc03ae8:	6942                	ld	s2,16(sp)
    3bc03aea:	6145                	addi	sp,sp,48
    3bc03aec:	8082                	ret
    3bc03aee:	854a                	mv	a0,s2
    3bc03af0:	e432                	sd	a2,8(sp)
    3bc03af2:	c4dfd0ef          	jal	ra,3bc0173e <DWC2_UncachedRead32>
    3bc03af6:	6622                	ld	a2,8(sp)
    3bc03af8:	4496550b          	srw	a0,a2,s1,2
    3bc03afc:	0485                	addi	s1,s1,1
    3bc03afe:	bff1                	j	3bc03ada <dwc2_ep_fifo_read+0x1e>

000000003bc03b00 <dwc2_write_fifo_ep0>:
    3bc03b00:	7179                	addi	sp,sp,-48
    3bc03b02:	e44e                	sd	s3,8(sp)
    3bc03b04:	02855983          	lhu	s3,40(a0)
    3bc03b08:	f022                	sd	s0,32(sp)
    3bc03b0a:	ec26                	sd	s1,24(sp)
    3bc03b0c:	f406                	sd	ra,40(sp)
    3bc03b0e:	e84a                	sd	s2,16(sp)
    3bc03b10:	84aa                	mv	s1,a0
    3bc03b12:	842e                	mv	s0,a1
    3bc03b14:	e4dff0ef          	jal	ra,3bc03960 <setdma_tx>
    3bc03b18:	2501                	sext.w	a0,a0
    3bc03b1a:	00a99e63          	bne	s3,a0,3bc03b36 <dwc2_write_fifo_ep0+0x36>
    3bc03b1e:	5c5c                	lw	a5,60(s0)
    3bc03b20:	4c18                	lw	a4,24(s0)
    3bc03b22:	4501                	li	a0,0
    3bc03b24:	013787bb          	addw	a5,a5,s3
    3bc03b28:	00f71b63          	bne	a4,a5,3bc03b3e <dwc2_write_fifo_ep0+0x3e>
    3bc03b2c:	505c                	lw	a5,36(s0)
    3bc03b2e:	02e79713          	slli	a4,a5,0x2e
    3bc03b32:	00074663          	bltz	a4,3bc03b3e <dwc2_write_fifo_ep0+0x3e>
    3bc03b36:	7c9c                	ld	a5,56(s1)
    3bc03b38:	4505                	li	a0,1
    3bc03b3a:	0407a423          	sw	zero,72(a5) # ffffffff84000048 <__BL2_END__+0xffffffff483ecc38>
    3bc03b3e:	70a2                	ld	ra,40(sp)
    3bc03b40:	7402                	ld	s0,32(sp)
    3bc03b42:	64e2                	ld	s1,24(sp)
    3bc03b44:	6942                	ld	s2,16(sp)
    3bc03b46:	69a2                	ld	s3,8(sp)
    3bc03b48:	6145                	addi	sp,sp,48
    3bc03b4a:	8082                	ret

000000003bc03b4c <dwc2_set_address>:
    3bc03b4c:	7179                	addi	sp,sp,-48
    3bc03b4e:	ec26                	sd	s1,24(sp)
    3bc03b50:	84ae                	mv	s1,a1
    3bc03b52:	26853583          	ld	a1,616(a0)
    3bc03b56:	6785                	lui	a5,0x1
    3bc03b58:	80078793          	addi	a5,a5,-2048 # 800 <__BSS_SIZE__-0x5410>
    3bc03b5c:	95be                	add	a1,a1,a5
    3bc03b5e:	f022                	sd	s0,32(sp)
    3bc03b60:	842a                	mv	s0,a0
    3bc03b62:	852e                	mv	a0,a1
    3bc03b64:	f406                	sd	ra,40(sp)
    3bc03b66:	e42e                	sd	a1,8(sp)
    3bc03b68:	bd7fd0ef          	jal	ra,3bc0173e <DWC2_UncachedRead32>
    3bc03b6c:	0044979b          	slliw	a5,s1,0x4
    3bc03b70:	65a2                	ld	a1,8(sp)
    3bc03b72:	8d5d                	or	a0,a0,a5
    3bc03b74:	2501                	sext.w	a0,a0
    3bc03b76:	bcffd0ef          	jal	ra,3bc01744 <DWC2_UncachedWrite32>
    3bc03b7a:	8522                	mv	a0,s0
    3bc03b7c:	affff0ef          	jal	ra,3bc0367a <dwc2_udc_ep0_zlp>
    3bc03b80:	4785                	li	a5,1
    3bc03b82:	24940823          	sb	s1,592(s0) # 4250 <__BSS_SIZE__-0x19c0>
    3bc03b86:	70a2                	ld	ra,40(sp)
    3bc03b88:	26f42823          	sw	a5,624(s0)
    3bc03b8c:	7402                	ld	s0,32(sp)
    3bc03b8e:	64e2                	ld	s1,24(sp)
    3bc03b90:	6145                	addi	sp,sp,48
    3bc03b92:	8082                	ret

000000003bc03b94 <dwc2_ep0_read>:
    3bc03b94:	6d4c                	ld	a1,152(a0)
    3bc03b96:	09850693          	addi	a3,a0,152
    3bc03b9a:	05050713          	addi	a4,a0,80
    3bc03b9e:	00d58e63          	beq	a1,a3,3bc03bba <dwc2_ep0_read+0x26>
    3bc03ba2:	fd85a683          	lw	a3,-40(a1)
    3bc03ba6:	e689                	bnez	a3,3bc03bb0 <dwc2_ep0_read+0x1c>
    3bc03ba8:	0a052823          	sw	zero,176(a0)
    3bc03bac:	acfff06f          	j	3bc0367a <dwc2_udc_ep0_zlp>
    3bc03bb0:	fc058593          	addi	a1,a1,-64
    3bc03bb4:	853a                	mv	a0,a4
    3bc03bb6:	babff06f          	j	3bc03760 <setdma_rx.isra.0>
    3bc03bba:	8082                	ret

000000003bc03bbc <dwc2_ep0_write>:
    3bc03bbc:	6d4c                	ld	a1,152(a0)
    3bc03bbe:	09850693          	addi	a3,a0,152
    3bc03bc2:	02d58b63          	beq	a1,a3,3bc03bf8 <dwc2_ep0_write+0x3c>
    3bc03bc6:	1141                	addi	sp,sp,-16
    3bc03bc8:	e022                	sd	s0,0(sp)
    3bc03bca:	e406                	sd	ra,8(sp)
    3bc03bcc:	fc058593          	addi	a1,a1,-64
    3bc03bd0:	842a                	mv	s0,a0
    3bc03bd2:	05050713          	addi	a4,a0,80
    3bc03bd6:	4501                	li	a0,0
    3bc03bd8:	c989                	beqz	a1,3bc03bea <dwc2_ep0_write+0x2e>
    3bc03bda:	853a                	mv	a0,a4
    3bc03bdc:	f25ff0ef          	jal	ra,3bc03b00 <dwc2_write_fifo_ep0>
    3bc03be0:	4785                	li	a5,1
    3bc03be2:	00f51863          	bne	a0,a5,3bc03bf2 <dwc2_ep0_write+0x36>
    3bc03be6:	4795                	li	a5,5
    3bc03be8:	c43c                	sw	a5,72(s0)
    3bc03bea:	60a2                	ld	ra,8(sp)
    3bc03bec:	6402                	ld	s0,0(sp)
    3bc03bee:	0141                	addi	sp,sp,16
    3bc03bf0:	8082                	ret
    3bc03bf2:	c43c                	sw	a5,72(s0)
    3bc03bf4:	4505                	li	a0,1
    3bc03bf6:	bfd5                	j	3bc03bea <dwc2_ep0_write+0x2e>
    3bc03bf8:	4501                	li	a0,0
    3bc03bfa:	8082                	ret

000000003bc03bfc <dwc2_udc_set_nak>:
    3bc03bfc:	1101                	addi	sp,sp,-32
    3bc03bfe:	ec06                	sd	ra,24(sp)
    3bc03c00:	07154703          	lbu	a4,113(a0)
    3bc03c04:	7d1c                	ld	a5,56(a0)
    3bc03c06:	fc77368b          	extu	a3,a4,63,7
    3bc03c0a:	2687b583          	ld	a1,616(a5)
    3bc03c0e:	00f77793          	andi	a5,a4,15
    3bc03c12:	c295                	beqz	a3,3bc03c36 <dwc2_udc_set_nak+0x3a>
    3bc03c14:	04878793          	addi	a5,a5,72
    3bc03c18:	0796                	slli	a5,a5,0x5
    3bc03c1a:	95be                	add	a1,a1,a5
    3bc03c1c:	852e                	mv	a0,a1
    3bc03c1e:	e42e                	sd	a1,8(sp)
    3bc03c20:	b1ffd0ef          	jal	ra,3bc0173e <DWC2_UncachedRead32>
    3bc03c24:	65a2                	ld	a1,8(sp)
    3bc03c26:	60e2                	ld	ra,24(sp)
    3bc03c28:	080007b7          	lui	a5,0x8000
    3bc03c2c:	8d5d                	or	a0,a0,a5
    3bc03c2e:	2501                	sext.w	a0,a0
    3bc03c30:	6105                	addi	sp,sp,32
    3bc03c32:	b13fd06f          	j	3bc01744 <DWC2_UncachedWrite32>
    3bc03c36:	05878793          	addi	a5,a5,88 # 8000058 <p_rom_api_cryptodma_aes_decrypt+0x3bfff58>
    3bc03c3a:	bff9                	j	3bc03c18 <dwc2_udc_set_nak+0x1c>

000000003bc03c3c <dwc2_udc_set_halt>:
    3bc03c3c:	07154703          	lbu	a4,113(a0)
    3bc03c40:	cd21                	beqz	a0,3bc03c98 <dwc2_udc_set_halt+0x5c>
    3bc03c42:	6134                	ld	a3,64(a0)
    3bc03c44:	87aa                	mv	a5,a0
    3bc03c46:	caa9                	beqz	a3,3bc03c98 <dwc2_udc_set_halt+0x5c>
    3bc03c48:	00f77613          	andi	a2,a4,15
    3bc03c4c:	c631                	beqz	a2,3bc03c98 <dwc2_udc_set_halt+0x5c>
    3bc03c4e:	0036c603          	lbu	a2,3(a3) # 80003 <__BSS_SIZE__+0x7a3f3>
    3bc03c52:	4685                	li	a3,1
    3bc03c54:	04d60263          	beq	a2,a3,3bc03c98 <dwc2_udc_set_halt+0x5c>
    3bc03c58:	1101                	addi	sp,sp,-32
    3bc03c5a:	ec06                	sd	ra,24(sp)
    3bc03c5c:	cd99                	beqz	a1,3bc03c7a <dwc2_udc_set_halt+0x3e>
    3bc03c5e:	fc77368b          	extu	a3,a4,63,7
    3bc03c62:	c29d                	beqz	a3,3bc03c88 <dwc2_udc_set_halt+0x4c>
    3bc03c64:	6534                	ld	a3,72(a0)
    3bc03c66:	04850713          	addi	a4,a0,72
    3bc03c6a:	fdd00593          	li	a1,-35
    3bc03c6e:	00e68d63          	beq	a3,a4,3bc03c88 <dwc2_udc_set_halt+0x4c>
    3bc03c72:	60e2                	ld	ra,24(sp)
    3bc03c74:	852e                	mv	a0,a1
    3bc03c76:	6105                	addi	sp,sp,32
    3bc03c78:	8082                	ret
    3bc03c7a:	06050823          	sb	zero,112(a0)
    3bc03c7e:	e42e                	sd	a1,8(sp)
    3bc03c80:	8bbff0ef          	jal	ra,3bc0353a <dwc2_udc_ep_clear_stall>
    3bc03c84:	65a2                	ld	a1,8(sp)
    3bc03c86:	b7f5                	j	3bc03c72 <dwc2_udc_set_halt+0x36>
    3bc03c88:	4705                	li	a4,1
    3bc03c8a:	06e78823          	sb	a4,112(a5)
    3bc03c8e:	853e                	mv	a0,a5
    3bc03c90:	909ff0ef          	jal	ra,3bc03598 <dwc2_udc_ep_set_stall>
    3bc03c94:	4581                	li	a1,0
    3bc03c96:	bff1                	j	3bc03c72 <dwc2_udc_set_halt+0x36>
    3bc03c98:	55a9                	li	a1,-22
    3bc03c9a:	852e                	mv	a0,a1
    3bc03c9c:	8082                	ret

000000003bc03c9e <dwc2_udc_ep_activate>:
    3bc03c9e:	7d1c                	ld	a5,56(a0)
    3bc03ca0:	7179                	addi	sp,sp,-48
    3bc03ca2:	f022                	sd	s0,32(sp)
    3bc03ca4:	ec26                	sd	s1,24(sp)
    3bc03ca6:	e84a                	sd	s2,16(sp)
    3bc03ca8:	e44e                	sd	s3,8(sp)
    3bc03caa:	f406                	sd	ra,40(sp)
    3bc03cac:	2687b483          	ld	s1,616(a5)
    3bc03cb0:	07154783          	lbu	a5,113(a0)
    3bc03cb4:	4905                	li	s2,1
    3bc03cb6:	89aa                	mv	s3,a0
    3bc03cb8:	00f7f413          	andi	s0,a5,15
    3bc03cbc:	fc77b70b          	extu	a4,a5,63,7
    3bc03cc0:	0089193b          	sllw	s2,s2,s0
    3bc03cc4:	cf25                	beqz	a4,3bc03d3c <dwc2_udc_ep_activate+0x9e>
    3bc03cc6:	04840513          	addi	a0,s0,72
    3bc03cca:	0516                	slli	a0,a0,0x5
    3bc03ccc:	9526                	add	a0,a0,s1
    3bc03cce:	a71fd0ef          	jal	ra,3bc0173e <DWC2_UncachedRead32>
    3bc03cd2:	2501                	sext.w	a0,a0
    3bc03cd4:	3cf5378b          	extu	a5,a0,15,15
    3bc03cd8:	ef9d                	bnez	a5,3bc03d16 <dwc2_udc_ep_activate+0x78>
    3bc03cda:	fff407b7          	lui	a5,0xfff40
    3bc03cde:	17fd                	addi	a5,a5,-1
    3bc03ce0:	8d7d                	and	a0,a0,a5
    3bc03ce2:	0729c783          	lbu	a5,114(s3)
    3bc03ce6:	04840593          	addi	a1,s0,72
    3bc03cea:	0127979b          	slliw	a5,a5,0x12
    3bc03cee:	8d5d                	or	a0,a0,a5
    3bc03cf0:	0289d783          	lhu	a5,40(s3)
    3bc03cf4:	80057513          	andi	a0,a0,-2048
    3bc03cf8:	8d5d                	or	a0,a0,a5
    3bc03cfa:	180087b7          	lui	a5,0x18008
    3bc03cfe:	8d5d                	or	a0,a0,a5
    3bc03d00:	07198783          	lb	a5,113(s3)
    3bc03d04:	2501                	sext.w	a0,a0
    3bc03d06:	0007c463          	bltz	a5,3bc03d0e <dwc2_udc_ep_activate+0x70>
    3bc03d0a:	05840593          	addi	a1,s0,88
    3bc03d0e:	0596                	slli	a1,a1,0x5
    3bc03d10:	95a6                	add	a1,a1,s1
    3bc03d12:	a33fd0ef          	jal	ra,3bc01744 <DWC2_UncachedWrite32>
    3bc03d16:	6585                	lui	a1,0x1
    3bc03d18:	81c58593          	addi	a1,a1,-2020 # 81c <__BSS_SIZE__-0x53f4>
    3bc03d1c:	94ae                	add	s1,s1,a1
    3bc03d1e:	8526                	mv	a0,s1
    3bc03d20:	a1ffd0ef          	jal	ra,3bc0173e <DWC2_UncachedRead32>
    3bc03d24:	2501                	sext.w	a0,a0
    3bc03d26:	7402                	ld	s0,32(sp)
    3bc03d28:	70a2                	ld	ra,40(sp)
    3bc03d2a:	69a2                	ld	s3,8(sp)
    3bc03d2c:	85a6                	mv	a1,s1
    3bc03d2e:	01256533          	or	a0,a0,s2
    3bc03d32:	64e2                	ld	s1,24(sp)
    3bc03d34:	6942                	ld	s2,16(sp)
    3bc03d36:	6145                	addi	sp,sp,48
    3bc03d38:	a0dfd06f          	j	3bc01744 <DWC2_UncachedWrite32>
    3bc03d3c:	05840513          	addi	a0,s0,88
    3bc03d40:	0516                	slli	a0,a0,0x5
    3bc03d42:	9526                	add	a0,a0,s1
    3bc03d44:	9fbfd0ef          	jal	ra,3bc0173e <DWC2_UncachedRead32>
    3bc03d48:	2501                	sext.w	a0,a0
    3bc03d4a:	0109191b          	slliw	s2,s2,0x10
    3bc03d4e:	b759                	j	3bc03cd4 <dwc2_udc_ep_activate+0x36>

000000003bc03d50 <dwc2_handle_ep0>:
    3bc03d50:	453c                	lw	a5,72(a0)
    3bc03d52:	34079163          	bnez	a5,3bc04094 <dwc2_handle_ep0+0x344>
    3bc03d56:	7139                	addi	sp,sp,-64
    3bc03d58:	f426                	sd	s1,40(sp)
    3bc03d5a:	25853483          	ld	s1,600(a0)
    3bc03d5e:	f822                	sd	s0,48(sp)
    3bc03d60:	fa400593          	li	a1,-92
    3bc03d64:	842a                	mv	s0,a0
    3bc03d66:	05050513          	addi	a0,a0,80
    3bc03d6a:	ec4e                	sd	s3,24(sp)
    3bc03d6c:	fc06                	sd	ra,56(sp)
    3bc03d6e:	f04a                	sd	s2,32(sp)
    3bc03d70:	e852                	sd	s4,16(sp)
    3bc03d72:	c35fe0ef          	jal	ra,3bc029a6 <dwc2_nuke>
    3bc03d76:	0004c783          	lbu	a5,0(s1) # ffffffffbc400000 <__BL2_END__+0xffffffff807ecbf0>
    3bc03d7a:	0c144703          	lbu	a4,193(s0)
    3bc03d7e:	0064d983          	lhu	s3,6(s1)
    3bc03d82:	fc77b60b          	extu	a2,a5,63,7
    3bc03d86:	07f77693          	andi	a3,a4,127
    3bc03d8a:	c609                	beqz	a2,3bc03d94 <dwc2_handle_ep0+0x44>
    3bc03d8c:	f8076713          	ori	a4,a4,-128
    3bc03d90:	0ff77693          	andi	a3,a4,255
    3bc03d94:	0607f793          	andi	a5,a5,96
    3bc03d98:	25144703          	lbu	a4,593(s0)
    3bc03d9c:	0017b793          	seqz	a5,a5
    3bc03da0:	0017979b          	slliw	a5,a5,0x1
    3bc03da4:	0017e793          	ori	a5,a5,1
    3bc03da8:	8b8d                	andi	a5,a5,3
    3bc03daa:	9b71                	andi	a4,a4,-4
    3bc03dac:	8fd9                	or	a5,a5,a4
    3bc03dae:	24f408a3          	sb	a5,593(s0)
    3bc03db2:	0cd400a3          	sb	a3,193(s0)
    3bc03db6:	8b89                	andi	a5,a5,2
    3bc03db8:	24078a63          	beqz	a5,3bc0400c <dwc2_handle_ep0+0x2bc>
    3bc03dbc:	0014c703          	lbu	a4,1(s1)
    3bc03dc0:	47ad                	li	a5,11
    3bc03dc2:	2ae7e863          	bltu	a5,a4,3bc04072 <dwc2_handle_ep0+0x322>
    3bc03dc6:	87ba                	mv	a5,a4
    3bc03dc8:	00007717          	auipc	a4,0x7
    3bc03dcc:	0ec70713          	addi	a4,a4,236 # 3bc0aeb4 <ep3name+0x24>
    3bc03dd0:	44f7478b          	lrw	a5,a4,a5,2
    3bc03dd4:	97ba                	add	a5,a5,a4
    3bc03dd6:	8782                	jr	a5
    3bc03dd8:	0024d603          	lhu	a2,2(s1)
    3bc03ddc:	000bc537          	lui	a0,0xbc
    3bc03de0:	4701                	li	a4,0
    3bc03de2:	4681                	li	a3,0
    3bc03de4:	4585                	li	a1,1
    3bc03de6:	bbb50513          	addi	a0,a0,-1093 # bbbbb <__BSS_SIZE__+0xb5fab>
    3bc03dea:	ad7fe0ef          	jal	ra,3bc028c0 <dwc2_log_write>
    3bc03dee:	0004c783          	lbu	a5,0(s1)
    3bc03df2:	20079d63          	bnez	a5,3bc0400c <dwc2_handle_ep0+0x2bc>
    3bc03df6:	8522                	mv	a0,s0
    3bc03df8:	7442                	ld	s0,48(sp)
    3bc03dfa:	0024c583          	lbu	a1,2(s1)
    3bc03dfe:	70e2                	ld	ra,56(sp)
    3bc03e00:	74a2                	ld	s1,40(sp)
    3bc03e02:	7902                	ld	s2,32(sp)
    3bc03e04:	69e2                	ld	s3,24(sp)
    3bc03e06:	6a42                	ld	s4,16(sp)
    3bc03e08:	6121                	addi	sp,sp,64
    3bc03e0a:	d43ff06f          	j	3bc03b4c <dwc2_set_address>
    3bc03e0e:	0024d603          	lhu	a2,2(s1)
    3bc03e12:	4701                	li	a4,0
    3bc03e14:	4681                	li	a3,0
    3bc03e16:	4589                	li	a1,2
    3bc03e18:	000bc537          	lui	a0,0xbc
    3bc03e1c:	bbb50513          	addi	a0,a0,-1093 # bbbbb <__BSS_SIZE__+0xb5fab>
    3bc03e20:	aa1fe0ef          	jal	ra,3bc028c0 <dwc2_log_write>
    3bc03e24:	a2e5                	j	3bc0400c <dwc2_handle_ep0+0x2bc>
    3bc03e26:	4701                	li	a4,0
    3bc03e28:	4681                	li	a3,0
    3bc03e2a:	4601                	li	a2,0
    3bc03e2c:	458d                	li	a1,3
    3bc03e2e:	b7ed                	j	3bc03e18 <dwc2_handle_ep0+0xc8>
    3bc03e30:	4701                	li	a4,0
    3bc03e32:	4681                	li	a3,0
    3bc03e34:	4601                	li	a2,0
    3bc03e36:	4591                	li	a1,4
    3bc03e38:	b7c5                	j	3bc03e18 <dwc2_handle_ep0+0xc8>
    3bc03e3a:	4701                	li	a4,0
    3bc03e3c:	4681                	li	a3,0
    3bc03e3e:	4601                	li	a2,0
    3bc03e40:	4595                	li	a1,5
    3bc03e42:	bfd9                	j	3bc03e18 <dwc2_handle_ep0+0xc8>
    3bc03e44:	000bc537          	lui	a0,0xbc
    3bc03e48:	4701                	li	a4,0
    3bc03e4a:	4681                	li	a3,0
    3bc03e4c:	4601                	li	a2,0
    3bc03e4e:	4599                	li	a1,6
    3bc03e50:	bbb50513          	addi	a0,a0,-1093 # bbbbb <__BSS_SIZE__+0xb5fab>
    3bc03e54:	a6dfe0ef          	jal	ra,3bc028c0 <dwc2_log_write>
    3bc03e58:	0044d503          	lhu	a0,4(s1)
    3bc03e5c:	1c75358b          	extu	a1,a0,7,7
    3bc03e60:	07f57513          	andi	a0,a0,127
    3bc03e64:	c9aff0ef          	jal	ra,3bc032fe <dwc2_phy_to_log_ep>
    3bc03e68:	00011723          	sh	zero,14(sp)
    3bc03e6c:	0004c583          	lbu	a1,0(s1)
    3bc03e70:	892a                	mv	s2,a0
    3bc03e72:	00007517          	auipc	a0,0x7
    3bc03e76:	02e50513          	addi	a0,a0,46 # 3bc0aea0 <ep3name+0x10>
    3bc03e7a:	89bd                	andi	a1,a1,15
    3bc03e7c:	26843a03          	ld	s4,616(s0)
    3bc03e80:	cd8fc0ef          	jal	ra,3bc00358 <tf_printf>
    3bc03e84:	0004c783          	lbu	a5,0(s1)
    3bc03e88:	4705                	li	a4,1
    3bc03e8a:	8bbd                	andi	a5,a5,15
    3bc03e8c:	00e78a63          	beq	a5,a4,3bc03ea0 <dwc2_handle_ep0+0x150>
    3bc03e90:	4689                	li	a3,2
    3bc03e92:	06d78b63          	beq	a5,a3,3bc03f08 <dwc2_handle_ep0+0x1b8>
    3bc03e96:	16079b63          	bnez	a5,3bc0400c <dwc2_handle_ep0+0x2bc>
    3bc03e9a:	00e11723          	sh	a4,14(sp)
    3bc03e9e:	a019                	j	3bc03ea4 <dwc2_handle_ep0+0x154>
    3bc03ea0:	00011723          	sh	zero,14(sp)
    3bc03ea4:	25843503          	ld	a0,600(s0)
    3bc03ea8:	4609                	li	a2,2
    3bc03eaa:	00e10593          	addi	a1,sp,14
    3bc03eae:	bbffc0ef          	jal	ra,3bc00a6c <memcpy>
    3bc03eb2:	6485                	lui	s1,0x1
    3bc03eb4:	26042503          	lw	a0,608(s0)
    3bc03eb8:	91448593          	addi	a1,s1,-1772 # 914 <__BSS_SIZE__-0x52fc>
    3bc03ebc:	95d2                	add	a1,a1,s4
    3bc03ebe:	887fd0ef          	jal	ra,3bc01744 <DWC2_UncachedWrite32>
    3bc03ec2:	91048593          	addi	a1,s1,-1776
    3bc03ec6:	00080537          	lui	a0,0x80
    3bc03eca:	95d2                	add	a1,a1,s4
    3bc03ecc:	0509                	addi	a0,a0,2
    3bc03ece:	90048493          	addi	s1,s1,-1792
    3bc03ed2:	873fd0ef          	jal	ra,3bc01744 <DWC2_UncachedWrite32>
    3bc03ed6:	9a26                	add	s4,s4,s1
    3bc03ed8:	8552                	mv	a0,s4
    3bc03eda:	865fd0ef          	jal	ra,3bc0173e <DWC2_UncachedRead32>
    3bc03ede:	c00007b7          	lui	a5,0xc0000
    3bc03ee2:	17fd                	addi	a5,a5,-1
    3bc03ee4:	2501                	sext.w	a0,a0
    3bc03ee6:	8d7d                	and	a0,a0,a5
    3bc03ee8:	840007b7          	lui	a5,0x84000
    3bc03eec:	8d5d                	or	a0,a0,a5
    3bc03eee:	85d2                	mv	a1,s4
    3bc03ef0:	855fd0ef          	jal	ra,3bc01744 <DWC2_UncachedWrite32>
    3bc03ef4:	47a1                	li	a5,8
    3bc03ef6:	c43c                	sw	a5,72(s0)
    3bc03ef8:	70e2                	ld	ra,56(sp)
    3bc03efa:	7442                	ld	s0,48(sp)
    3bc03efc:	74a2                	ld	s1,40(sp)
    3bc03efe:	7902                	ld	s2,32(sp)
    3bc03f00:	69e2                	ld	s3,24(sp)
    3bc03f02:	6a42                	ld	s4,16(sp)
    3bc03f04:	6121                	addi	sp,sp,64
    3bc03f06:	8082                	ret
    3bc03f08:	0064d703          	lhu	a4,6(s1)
    3bc03f0c:	10e7e063          	bltu	a5,a4,3bc0400c <dwc2_handle_ep0+0x2bc>
    3bc03f10:	2901                	sext.w	s2,s2
    3bc03f12:	091e                	slli	s2,s2,0x7
    3bc03f14:	9922                	add	s2,s2,s0
    3bc03f16:	0c094783          	lbu	a5,192(s2)
    3bc03f1a:	00f11723          	sh	a5,14(sp)
    3bc03f1e:	b759                	j	3bc03ea4 <dwc2_handle_ep0+0x154>
    3bc03f20:	000bc537          	lui	a0,0xbc
    3bc03f24:	4701                	li	a4,0
    3bc03f26:	4681                	li	a3,0
    3bc03f28:	4601                	li	a2,0
    3bc03f2a:	459d                	li	a1,7
    3bc03f2c:	bbb50513          	addi	a0,a0,-1093 # bbbbb <__BSS_SIZE__+0xb5fab>
    3bc03f30:	991fe0ef          	jal	ra,3bc028c0 <dwc2_log_write>
    3bc03f34:	0044d503          	lhu	a0,4(s1)
    3bc03f38:	1c75358b          	extu	a1,a0,7,7
    3bc03f3c:	07f57513          	andi	a0,a0,127
    3bc03f40:	bbeff0ef          	jal	ra,3bc032fe <dwc2_phy_to_log_ep>
    3bc03f44:	00751913          	slli	s2,a0,0x7
    3bc03f48:	05090913          	addi	s2,s2,80
    3bc03f4c:	9922                	add	s2,s2,s0
    3bc03f4e:	03893a03          	ld	s4,56(s2)
    3bc03f52:	258a3703          	ld	a4,600(s4)
    3bc03f56:	00675783          	lhu	a5,6(a4)
    3bc03f5a:	ebcd                	bnez	a5,3bc0400c <dwc2_handle_ep0+0x2bc>
    3bc03f5c:	00074783          	lbu	a5,0(a4)
    3bc03f60:	8bbd                	andi	a5,a5,15
    3bc03f62:	c795                	beqz	a5,3bc03f8e <dwc2_handle_ep0+0x23e>
    3bc03f64:	4689                	li	a3,2
    3bc03f66:	f8d799e3          	bne	a5,a3,3bc03ef8 <dwc2_handle_ep0+0x1a8>
    3bc03f6a:	00275783          	lhu	a5,2(a4)
    3bc03f6e:	f7c9                	bnez	a5,3bc03ef8 <dwc2_handle_ep0+0x1a8>
    3bc03f70:	07194403          	lbu	s0,113(s2)
    3bc03f74:	883d                	andi	s0,s0,15
    3bc03f76:	e415                	bnez	s0,3bc03fa2 <dwc2_handle_ep0+0x252>
    3bc03f78:	4585                	li	a1,1
    3bc03f7a:	8552                	mv	a0,s4
    3bc03f7c:	7442                	ld	s0,48(sp)
    3bc03f7e:	70e2                	ld	ra,56(sp)
    3bc03f80:	74a2                	ld	s1,40(sp)
    3bc03f82:	7902                	ld	s2,32(sp)
    3bc03f84:	69e2                	ld	s3,24(sp)
    3bc03f86:	6a42                	ld	s4,16(sp)
    3bc03f88:	6121                	addi	sp,sp,64
    3bc03f8a:	f6eff06f          	j	3bc036f8 <dwc2_udc_ep0_set_stall.isra.0>
    3bc03f8e:	8552                	mv	a0,s4
    3bc03f90:	7442                	ld	s0,48(sp)
    3bc03f92:	70e2                	ld	ra,56(sp)
    3bc03f94:	74a2                	ld	s1,40(sp)
    3bc03f96:	7902                	ld	s2,32(sp)
    3bc03f98:	69e2                	ld	s3,24(sp)
    3bc03f9a:	6a42                	ld	s4,16(sp)
    3bc03f9c:	6121                	addi	sp,sp,64
    3bc03f9e:	edcff06f          	j	3bc0367a <dwc2_udc_ep0_zlp>
    3bc03fa2:	8552                	mv	a0,s4
    3bc03fa4:	ed6ff0ef          	jal	ra,3bc0367a <dwc2_udc_ep0_zlp>
    3bc03fa8:	854a                	mv	a0,s2
    3bc03faa:	d90ff0ef          	jal	ra,3bc0353a <dwc2_udc_ep_clear_stall>
    3bc03fae:	854a                	mv	a0,s2
    3bc03fb0:	cefff0ef          	jal	ra,3bc03c9e <dwc2_udc_ep_activate>
    3bc03fb4:	4785                	li	a5,1
    3bc03fb6:	06090823          	sb	zero,112(s2)
    3bc03fba:	268a0a23          	sb	s0,628(s4)
    3bc03fbe:	26fa0aa3          	sb	a5,629(s4)
    3bc03fc2:	bf1d                	j	3bc03ef8 <dwc2_handle_ep0+0x1a8>
    3bc03fc4:	000bc537          	lui	a0,0xbc
    3bc03fc8:	4701                	li	a4,0
    3bc03fca:	4681                	li	a3,0
    3bc03fcc:	4601                	li	a2,0
    3bc03fce:	45a1                	li	a1,8
    3bc03fd0:	bbb50513          	addi	a0,a0,-1093 # bbbbb <__BSS_SIZE__+0xb5fab>
    3bc03fd4:	8edfe0ef          	jal	ra,3bc028c0 <dwc2_log_write>
    3bc03fd8:	0044d503          	lhu	a0,4(s1)
    3bc03fdc:	1c75358b          	extu	a1,a0,7,7
    3bc03fe0:	07f57513          	andi	a0,a0,127
    3bc03fe4:	b1aff0ef          	jal	ra,3bc032fe <dwc2_phy_to_log_ep>
    3bc03fe8:	051e                	slli	a0,a0,0x7
    3bc03fea:	05050513          	addi	a0,a0,80
    3bc03fee:	9522                	add	a0,a0,s0
    3bc03ff0:	03853903          	ld	s2,56(a0)
    3bc03ff4:	25893783          	ld	a5,600(s2)
    3bc03ff8:	0067d703          	lhu	a4,6(a5) # ffffffff84000006 <__BL2_END__+0xffffffff483ecbf6>
    3bc03ffc:	eb01                	bnez	a4,3bc0400c <dwc2_handle_ep0+0x2bc>
    3bc03ffe:	0007c703          	lbu	a4,0(a5)
    3bc04002:	8b3d                	andi	a4,a4,15
    3bc04004:	cb15                	beqz	a4,3bc04038 <dwc2_handle_ep0+0x2e8>
    3bc04006:	4689                	li	a3,2
    3bc04008:	04d70563          	beq	a4,a3,3bc04052 <dwc2_handle_ep0+0x302>
    3bc0400c:	7c1c                	ld	a5,56(s0)
    3bc0400e:	cfbd                	beqz	a5,3bc0408c <dwc2_handle_ep0+0x33c>
    3bc04010:	739c                	ld	a5,32(a5)
    3bc04012:	85a6                	mv	a1,s1
    3bc04014:	8522                	mv	a0,s0
    3bc04016:	9782                	jalr	a5
    3bc04018:	06055263          	bgez	a0,3bc0407c <dwc2_handle_ep0+0x32c>
    3bc0401c:	0064d783          	lhu	a5,6(s1)
    3bc04020:	4585                	li	a1,1
    3bc04022:	c789                	beqz	a5,3bc0402c <dwc2_handle_ep0+0x2dc>
    3bc04024:	0c140583          	lb	a1,193(s0)
    3bc04028:	01f5d59b          	srliw	a1,a1,0x1f
    3bc0402c:	6448                	ld	a0,136(s0)
    3bc0402e:	ecaff0ef          	jal	ra,3bc036f8 <dwc2_udc_ep0_set_stall.isra.0>
    3bc04032:	04042423          	sw	zero,72(s0)
    3bc04036:	b5c9                	j	3bc03ef8 <dwc2_handle_ep0+0x1a8>
    3bc04038:	0027d683          	lhu	a3,2(a5)
    3bc0403c:	4709                	li	a4,2
    3bc0403e:	00e69863          	bne	a3,a4,3bc0404e <dwc2_handle_ep0+0x2fe>
    3bc04042:	0047d783          	lhu	a5,4(a5)
    3bc04046:	0087d79b          	srliw	a5,a5,0x8
    3bc0404a:	26f90b23          	sb	a5,630(s2)
    3bc0404e:	854a                	mv	a0,s2
    3bc04050:	b781                	j	3bc03f90 <dwc2_handle_ep0+0x240>
    3bc04052:	0027d783          	lhu	a5,2(a5)
    3bc04056:	ffe5                	bnez	a5,3bc0404e <dwc2_handle_ep0+0x2fe>
    3bc04058:	07154783          	lbu	a5,113(a0)
    3bc0405c:	8bbd                	andi	a5,a5,15
    3bc0405e:	e781                	bnez	a5,3bc04066 <dwc2_handle_ep0+0x316>
    3bc04060:	4585                	li	a1,1
    3bc04062:	854a                	mv	a0,s2
    3bc04064:	bf21                	j	3bc03f7c <dwc2_handle_ep0+0x22c>
    3bc04066:	4785                	li	a5,1
    3bc04068:	06f50823          	sb	a5,112(a0)
    3bc0406c:	d2cff0ef          	jal	ra,3bc03598 <dwc2_udc_ep_set_stall>
    3bc04070:	bff9                	j	3bc0404e <dwc2_handle_ep0+0x2fe>
    3bc04072:	4701                	li	a4,0
    3bc04074:	4681                	li	a3,0
    3bc04076:	4601                	li	a2,0
    3bc04078:	45a5                	li	a1,9
    3bc0407a:	bb79                	j	3bc03e18 <dwc2_handle_ep0+0xc8>
    3bc0407c:	25144783          	lbu	a5,593(s0)
    3bc04080:	0017f713          	andi	a4,a5,1
    3bc04084:	c701                	beqz	a4,3bc0408c <dwc2_handle_ep0+0x33c>
    3bc04086:	9bf9                	andi	a5,a5,-2
    3bc04088:	24f408a3          	sb	a5,593(s0)
    3bc0408c:	e60996e3          	bnez	s3,3bc03ef8 <dwc2_handle_ep0+0x1a8>
    3bc04090:	8522                	mv	a0,s0
    3bc04092:	bdfd                	j	3bc03f90 <dwc2_handle_ep0+0x240>
    3bc04094:	8082                	ret

000000003bc04096 <dwc2_udc_irq>:
    3bc04096:	7119                	addi	sp,sp,-128
    3bc04098:	ecce                	sd	s3,88(sp)
    3bc0409a:	2685b983          	ld	s3,616(a1)
    3bc0409e:	f0ca                	sd	s2,96(sp)
    3bc040a0:	f8a2                	sd	s0,112(sp)
    3bc040a2:	01498913          	addi	s2,s3,20
    3bc040a6:	854a                	mv	a0,s2
    3bc040a8:	f4a6                	sd	s1,104(sp)
    3bc040aa:	e0da                	sd	s6,64(sp)
    3bc040ac:	fc86                	sd	ra,120(sp)
    3bc040ae:	e8d2                	sd	s4,80(sp)
    3bc040b0:	e4d6                	sd	s5,72(sp)
    3bc040b2:	fc5e                	sd	s7,56(sp)
    3bc040b4:	f862                	sd	s8,48(sp)
    3bc040b6:	f466                	sd	s9,40(sp)
    3bc040b8:	f06a                	sd	s10,32(sp)
    3bc040ba:	ec6e                	sd	s11,24(sp)
    3bc040bc:	842e                	mv	s0,a1
    3bc040be:	01898b13          	addi	s6,s3,24
    3bc040c2:	e7cfd0ef          	jal	ra,3bc0173e <DWC2_UncachedRead32>
    3bc040c6:	0005049b          	sext.w	s1,a0
    3bc040ca:	855a                	mv	a0,s6
    3bc040cc:	e72fd0ef          	jal	ra,3bc0173e <DWC2_UncachedRead32>
    3bc040d0:	1c048563          	beqz	s1,3bc0429a <dwc2_udc_irq+0x204>
    3bc040d4:	4430                	lw	a2,72(s0)
    3bc040d6:	00050a9b          	sext.w	s5,a0
    3bc040da:	6505                	lui	a0,0x1
    3bc040dc:	81850513          	addi	a0,a0,-2024 # 818 <__BSS_SIZE__-0x53f8>
    3bc040e0:	954e                	add	a0,a0,s3
    3bc040e2:	e432                	sd	a2,8(sp)
    3bc040e4:	e5afd0ef          	jal	ra,3bc0173e <DWC2_UncachedRead32>
    3bc040e8:	6622                	ld	a2,8(sp)
    3bc040ea:	0005069b          	sext.w	a3,a0
    3bc040ee:	653d                	lui	a0,0xf
    3bc040f0:	4701                	li	a4,0
    3bc040f2:	85a6                	mv	a1,s1
    3bc040f4:	153d                	addi	a0,a0,-17
    3bc040f6:	fcafe0ef          	jal	ra,3bc028c0 <dwc2_log_write>
    3bc040fa:	0104f793          	andi	a5,s1,16
    3bc040fe:	c3b5                	beqz	a5,3bc04162 <dwc2_udc_irq+0xcc>
    3bc04100:	85da                	mv	a1,s6
    3bc04102:	fefaf513          	andi	a0,s5,-17
    3bc04106:	e3efd0ef          	jal	ra,3bc01744 <DWC2_UncachedWrite32>
    3bc0410a:	02098513          	addi	a0,s3,32
    3bc0410e:	e30fd0ef          	jal	ra,3bc0173e <DWC2_UncachedRead32>
    3bc04112:	00f57b93          	andi	s7,a0,15
    3bc04116:	00050a1b          	sext.w	s4,a0
    3bc0411a:	4581                	li	a1,0
    3bc0411c:	855e                	mv	a0,s7
    3bc0411e:	9e0ff0ef          	jal	ra,3bc032fe <dwc2_phy_to_log_ep>
    3bc04122:	001e07b7          	lui	a5,0x1e0
    3bc04126:	00fa77b3          	and	a5,s4,a5
    3bc0412a:	00040737          	lui	a4,0x40
    3bc0412e:	18e79663          	bne	a5,a4,3bc042ba <dwc2_udc_irq+0x224>
    3bc04132:	384a3a0b          	extu	s4,s4,14,4
    3bc04136:	020a0163          	beqz	s4,3bc04158 <dwc2_udc_irq+0xc2>
    3bc0413a:	0005079b          	sext.w	a5,a0
    3bc0413e:	079e                	slli	a5,a5,0x7
    3bc04140:	97a2                	add	a5,a5,s0
    3bc04142:	0987bc03          	ld	s8,152(a5) # 1e0098 <__BSS_SIZE__+0x1da488>
    3bc04146:	86d2                	mv	a3,s4
    3bc04148:	85de                	mv	a1,s7
    3bc0414a:	fd0c3603          	ld	a2,-48(s8)
    3bc0414e:	8522                	mv	a0,s0
    3bc04150:	96dff0ef          	jal	ra,3bc03abc <dwc2_ep_fifo_read>
    3bc04154:	ff4c2023          	sw	s4,-32(s8)
    3bc04158:	85da                	mv	a1,s6
    3bc0415a:	010ae513          	ori	a0,s5,16
    3bc0415e:	de6fd0ef          	jal	ra,3bc01744 <DWC2_UncachedWrite32>
    3bc04162:	34d4b78b          	extu	a5,s1,13,13
    3bc04166:	cb9d                	beqz	a5,3bc0419c <dwc2_udc_irq+0x106>
    3bc04168:	85ca                	mv	a1,s2
    3bc0416a:	6509                	lui	a0,0x2
    3bc0416c:	dd8fd0ef          	jal	ra,3bc01744 <DWC2_UncachedWrite32>
    3bc04170:	6505                	lui	a0,0x1
    3bc04172:	80850513          	addi	a0,a0,-2040 # 808 <__BSS_SIZE__-0x5408>
    3bc04176:	954e                	add	a0,a0,s3
    3bc04178:	dc6fd0ef          	jal	ra,3bc0173e <DWC2_UncachedRead32>
    3bc0417c:	8919                	andi	a0,a0,6
    3bc0417e:	14050b63          	beqz	a0,3bc042d4 <dwc2_udc_irq+0x23e>
    3bc04182:	4589                	li	a1,2
    3bc04184:	8522                	mv	a0,s0
    3bc04186:	b26ff0ef          	jal	ra,3bc034ac <set_max_pktsize>
    3bc0418a:	6509                	lui	a0,0x2
    3bc0418c:	4701                	li	a4,0
    3bc0418e:	4681                	li	a3,0
    3bc04190:	4601                	li	a2,0
    3bc04192:	4589                	li	a1,2
    3bc04194:	22250513          	addi	a0,a0,546 # 2222 <__BSS_SIZE__-0x39ee>
    3bc04198:	f28fe0ef          	jal	ra,3bc028c0 <dwc2_log_write>
    3bc0419c:	4004f793          	andi	a5,s1,1024
    3bc041a0:	c791                	beqz	a5,3bc041ac <dwc2_udc_irq+0x116>
    3bc041a2:	85ca                	mv	a1,s2
    3bc041a4:	40000513          	li	a0,1024
    3bc041a8:	d9cfd0ef          	jal	ra,3bc01744 <DWC2_UncachedWrite32>
    3bc041ac:	6505                	lui	a0,0x1
    3bc041ae:	80050a13          	addi	s4,a0,-2048 # 800 <__BSS_SIZE__-0x5410>
    3bc041b2:	0144f7b3          	and	a5,s1,s4
    3bc041b6:	c395                	beqz	a5,3bc041da <dwc2_udc_irq+0x144>
    3bc041b8:	80850513          	addi	a0,a0,-2040
    3bc041bc:	954e                	add	a0,a0,s3
    3bc041be:	d80fd0ef          	jal	ra,3bc0173e <DWC2_UncachedRead32>
    3bc041c2:	85ca                	mv	a1,s2
    3bc041c4:	8552                	mv	a0,s4
    3bc041c6:	d7efd0ef          	jal	ra,3bc01744 <DWC2_UncachedWrite32>
    3bc041ca:	501c                	lw	a5,32(s0)
    3bc041cc:	c799                	beqz	a5,3bc041da <dwc2_udc_irq+0x144>
    3bc041ce:	7c1c                	ld	a5,56(s0)
    3bc041d0:	c789                	beqz	a5,3bc041da <dwc2_udc_irq+0x144>
    3bc041d2:	7b9c                	ld	a5,48(a5)
    3bc041d4:	c399                	beqz	a5,3bc041da <dwc2_udc_irq+0x144>
    3bc041d6:	8522                	mv	a0,s0
    3bc041d8:	9782                	jalr	a5
    3bc041da:	0004df63          	bgez	s1,3bc041f8 <dwc2_udc_irq+0x162>
    3bc041de:	85ca                	mv	a1,s2
    3bc041e0:	80000537          	lui	a0,0x80000
    3bc041e4:	d60fd0ef          	jal	ra,3bc01744 <DWC2_UncachedWrite32>
    3bc041e8:	501c                	lw	a5,32(s0)
    3bc041ea:	c799                	beqz	a5,3bc041f8 <dwc2_udc_irq+0x162>
    3bc041ec:	7c1c                	ld	a5,56(s0)
    3bc041ee:	c789                	beqz	a5,3bc041f8 <dwc2_udc_irq+0x162>
    3bc041f0:	7f9c                	ld	a5,56(a5)
    3bc041f2:	c399                	beqz	a5,3bc041f8 <dwc2_udc_irq+0x162>
    3bc041f4:	8522                	mv	a0,s0
    3bc041f6:	9782                	jalr	a5
    3bc041f8:	008017b7          	lui	a5,0x801
    3bc041fc:	8fe5                	and	a5,a5,s1
    3bc041fe:	c3bd                	beqz	a5,3bc04264 <dwc2_udc_irq+0x1ce>
    3bc04200:	854e                	mv	a0,s3
    3bc04202:	d3cfd0ef          	jal	ra,3bc0173e <DWC2_UncachedRead32>
    3bc04206:	0005099b          	sext.w	s3,a0
    3bc0420a:	6505                	lui	a0,0x1
    3bc0420c:	4701                	li	a4,0
    3bc0420e:	4681                	li	a3,0
    3bc04210:	4601                	li	a2,0
    3bc04212:	85ce                	mv	a1,s3
    3bc04214:	11150513          	addi	a0,a0,273 # 1111 <__BSS_SIZE__-0x4aff>
    3bc04218:	ea8fe0ef          	jal	ra,3bc028c0 <dwc2_log_write>
    3bc0421c:	30c4b78b          	extu	a5,s1,12,12
    3bc04220:	c789                	beqz	a5,3bc0422a <dwc2_udc_irq+0x194>
    3bc04222:	85ca                	mv	a1,s2
    3bc04224:	6505                	lui	a0,0x1
    3bc04226:	d1efd0ef          	jal	ra,3bc01744 <DWC2_UncachedWrite32>
    3bc0422a:	5d74b78b          	extu	a5,s1,23,23
    3bc0422e:	c791                	beqz	a5,3bc0423a <dwc2_udc_irq+0x1a4>
    3bc04230:	85ca                	mv	a1,s2
    3bc04232:	00800537          	lui	a0,0x800
    3bc04236:	d0efd0ef          	jal	ra,3bc01744 <DWC2_UncachedWrite32>
    3bc0423a:	000c0537          	lui	a0,0xc0
    3bc0423e:	00a9f9b3          	and	s3,s3,a0
    3bc04242:	000c07b7          	lui	a5,0xc0
    3bc04246:	00f99f63          	bne	s3,a5,3bc04264 <dwc2_udc_irq+0x1ce>
    3bc0424a:	27042903          	lw	s2,624(s0)
    3bc0424e:	8522                	mv	a0,s0
    3bc04250:	9d5fe0ef          	jal	ra,3bc02c24 <dwc2_disconnect>
    3bc04254:	00090663          	beqz	s2,3bc04260 <dwc2_udc_irq+0x1ca>
    3bc04258:	4585                	li	a1,1
    3bc0425a:	8522                	mv	a0,s0
    3bc0425c:	cbffe0ef          	jal	ra,3bc02f1a <dwc2_reconfig_usbd>
    3bc04260:	04042423          	sw	zero,72(s0)
    3bc04264:	4924b78b          	extu	a5,s1,18,18
    3bc04268:	e7c1                	bnez	a5,3bc042f0 <dwc2_udc_irq+0x25a>
    3bc0426a:	4d34b48b          	extu	s1,s1,19,19
    3bc0426e:	c495                	beqz	s1,3bc0429a <dwc2_udc_irq+0x204>
    3bc04270:	26843b03          	ld	s6,616(s0)
    3bc04274:	6505                	lui	a0,0x1
    3bc04276:	81850513          	addi	a0,a0,-2024 # 818 <__BSS_SIZE__-0x53f8>
    3bc0427a:	955a                	add	a0,a0,s6
    3bc0427c:	cc2fd0ef          	jal	ra,3bc0173e <DWC2_UncachedRead32>
    3bc04280:	00066a37          	lui	s4,0x66
    3bc04284:	6a8d                	lui	s5,0x3
    3bc04286:	7d05398b          	extu	s3,a0,31,16
    3bc0428a:	4901                	li	s2,0
    3bc0428c:	4b99                	li	s7,6
    3bc0428e:	666a0a13          	addi	s4,s4,1638 # 66666 <__BSS_SIZE__+0x60a56>
    3bc04292:	333a8a93          	addi	s5,s5,819 # 3333 <__BSS_SIZE__-0x28dd>
    3bc04296:	2a099963          	bnez	s3,3bc04548 <dwc2_udc_irq+0x4b2>
    3bc0429a:	70e6                	ld	ra,120(sp)
    3bc0429c:	7446                	ld	s0,112(sp)
    3bc0429e:	74a6                	ld	s1,104(sp)
    3bc042a0:	7906                	ld	s2,96(sp)
    3bc042a2:	69e6                	ld	s3,88(sp)
    3bc042a4:	6a46                	ld	s4,80(sp)
    3bc042a6:	6aa6                	ld	s5,72(sp)
    3bc042a8:	6b06                	ld	s6,64(sp)
    3bc042aa:	7be2                	ld	s7,56(sp)
    3bc042ac:	7c42                	ld	s8,48(sp)
    3bc042ae:	7ca2                	ld	s9,40(sp)
    3bc042b0:	7d02                	ld	s10,32(sp)
    3bc042b2:	6de2                	ld	s11,24(sp)
    3bc042b4:	4501                	li	a0,0
    3bc042b6:	6109                	addi	sp,sp,128
    3bc042b8:	8082                	ret
    3bc042ba:	000c0737          	lui	a4,0xc0
    3bc042be:	e8e79de3          	bne	a5,a4,3bc04158 <dwc2_udc_irq+0xc2>
    3bc042c2:	25843603          	ld	a2,600(s0)
    3bc042c6:	384a368b          	extu	a3,s4,14,4
    3bc042ca:	85de                	mv	a1,s7
    3bc042cc:	8522                	mv	a0,s0
    3bc042ce:	feeff0ef          	jal	ra,3bc03abc <dwc2_ep_fifo_read>
    3bc042d2:	b559                	j	3bc04158 <dwc2_udc_irq+0xc2>
    3bc042d4:	6509                	lui	a0,0x2
    3bc042d6:	4701                	li	a4,0
    3bc042d8:	4681                	li	a3,0
    3bc042da:	4601                	li	a2,0
    3bc042dc:	4585                	li	a1,1
    3bc042de:	22250513          	addi	a0,a0,546 # 2222 <__BSS_SIZE__-0x39ee>
    3bc042e2:	ddefe0ef          	jal	ra,3bc028c0 <dwc2_log_write>
    3bc042e6:	458d                	li	a1,3
    3bc042e8:	8522                	mv	a0,s0
    3bc042ea:	9c2ff0ef          	jal	ra,3bc034ac <set_max_pktsize>
    3bc042ee:	b57d                	j	3bc0419c <dwc2_udc_irq+0x106>
    3bc042f0:	26843a03          	ld	s4,616(s0)
    3bc042f4:	6a85                	lui	s5,0x1
    3bc042f6:	818a8513          	addi	a0,s5,-2024 # 818 <__BSS_SIZE__-0x53f8>
    3bc042fa:	9552                	add	a0,a0,s4
    3bc042fc:	c42fd0ef          	jal	ra,3bc0173e <DWC2_UncachedRead32>
    3bc04300:	00737b37          	lui	s6,0x737
    3bc04304:	00747bb7          	lui	s7,0x747
    3bc04308:	00055c37          	lui	s8,0x55
    3bc0430c:	3c05398b          	extu	s3,a0,15,0
    3bc04310:	4901                	li	s2,0
    3bc04312:	373b0b13          	addi	s6,s6,883 # 737373 <__BSS_SIZE__+0x731763>
    3bc04316:	474b8b93          	addi	s7,s7,1140 # 747474 <__BSS_SIZE__+0x741864>
    3bc0431a:	555c0c13          	addi	s8,s8,1365 # 55555 <__BSS_SIZE__+0x4f945>
    3bc0431e:	804a8a93          	addi	s5,s5,-2044
    3bc04322:	f40984e3          	beqz	s3,3bc0426a <dwc2_udc_irq+0x1d4>
    3bc04326:	0019f793          	andi	a5,s3,1
    3bc0432a:	1c078163          	beqz	a5,3bc044ec <dwc2_udc_irq+0x456>
    3bc0432e:	04890c93          	addi	s9,s2,72
    3bc04332:	0c96                	slli	s9,s9,0x5
    3bc04334:	008c8d93          	addi	s11,s9,8
    3bc04338:	9dd2                	add	s11,s11,s4
    3bc0433a:	856e                	mv	a0,s11
    3bc0433c:	c02fd0ef          	jal	ra,3bc0173e <DWC2_UncachedRead32>
    3bc04340:	00050d1b          	sext.w	s10,a0
    3bc04344:	010c8513          	addi	a0,s9,16
    3bc04348:	9552                	add	a0,a0,s4
    3bc0434a:	bf4fd0ef          	jal	ra,3bc0173e <DWC2_UncachedRead32>
    3bc0434e:	0005069b          	sext.w	a3,a0
    3bc04352:	019a0533          	add	a0,s4,s9
    3bc04356:	e436                	sd	a3,8(sp)
    3bc04358:	be6fd0ef          	jal	ra,3bc0173e <DWC2_UncachedRead32>
    3bc0435c:	66a2                	ld	a3,8(sp)
    3bc0435e:	0005071b          	sext.w	a4,a0
    3bc04362:	866a                	mv	a2,s10
    3bc04364:	85ca                	mv	a1,s2
    3bc04366:	855a                	mv	a0,s6
    3bc04368:	d58fe0ef          	jal	ra,3bc028c0 <dwc2_log_write>
    3bc0436c:	014c8513          	addi	a0,s9,20
    3bc04370:	9552                	add	a0,a0,s4
    3bc04372:	bccfd0ef          	jal	ra,3bc0173e <DWC2_UncachedRead32>
    3bc04376:	0ce1                	addi	s9,s9,24
    3bc04378:	0005059b          	sext.w	a1,a0
    3bc0437c:	019a0533          	add	a0,s4,s9
    3bc04380:	e42e                	sd	a1,8(sp)
    3bc04382:	bbcfd0ef          	jal	ra,3bc0173e <DWC2_UncachedRead32>
    3bc04386:	65a2                	ld	a1,8(sp)
    3bc04388:	0005061b          	sext.w	a2,a0
    3bc0438c:	4701                	li	a4,0
    3bc0438e:	4681                	li	a3,0
    3bc04390:	855e                	mv	a0,s7
    3bc04392:	d2efe0ef          	jal	ra,3bc028c0 <dwc2_log_write>
    3bc04396:	856a                	mv	a0,s10
    3bc04398:	85ee                	mv	a1,s11
    3bc0439a:	001d7d13          	andi	s10,s10,1
    3bc0439e:	ba6fd0ef          	jal	ra,3bc01744 <DWC2_UncachedWrite32>
    3bc043a2:	140d0563          	beqz	s10,3bc044ec <dwc2_udc_irq+0x456>
    3bc043a6:	4585                	li	a1,1
    3bc043a8:	854a                	mv	a0,s2
    3bc043aa:	f55fe0ef          	jal	ra,3bc032fe <dwc2_phy_to_log_ep>
    3bc043ae:	00050c9b          	sext.w	s9,a0
    3bc043b2:	0c9e                	slli	s9,s9,0x7
    3bc043b4:	01940833          	add	a6,s0,s9
    3bc043b8:	09883603          	ld	a2,152(a6)
    3bc043bc:	00751d13          	slli	s10,a0,0x7
    3bc043c0:	098d0d93          	addi	s11,s10,152
    3bc043c4:	442c                	lw	a1,72(s0)
    3bc043c6:	9da2                	add	s11,s11,s0
    3bc043c8:	41b60633          	sub	a2,a2,s11
    3bc043cc:	00163613          	seqz	a2,a2
    3bc043d0:	4701                	li	a4,0
    3bc043d2:	4681                	li	a3,0
    3bc043d4:	8562                	mv	a0,s8
    3bc043d6:	e442                	sd	a6,8(sp)
    3bc043d8:	ce8fe0ef          	jal	ra,3bc028c0 <dwc2_log_write>
    3bc043dc:	4430                	lw	a2,72(s0)
    3bc043de:	47a1                	li	a5,8
    3bc043e0:	6822                	ld	a6,8(sp)
    3bc043e2:	00f61a63          	bne	a2,a5,3bc043f6 <dwc2_udc_irq+0x360>
    3bc043e6:	4799                	li	a5,6
    3bc043e8:	c43c                	sw	a5,72(s0)
    3bc043ea:	8522                	mv	a0,s0
    3bc043ec:	a0eff0ef          	jal	ra,3bc035fa <dwc2_ep0_complete_out>
    3bc043f0:	04090c63          	beqz	s2,3bc04448 <dwc2_udc_irq+0x3b2>
    3bc043f4:	a8e5                	j	3bc044ec <dwc2_udc_irq+0x456>
    3bc043f6:	09883703          	ld	a4,152(a6)
    3bc043fa:	feed8be3          	beq	s11,a4,3bc043f0 <dwc2_udc_irq+0x35a>
    3bc043fe:	ffc72303          	lw	t1,-4(a4) # bfffc <__BSS_SIZE__+0xba3ec>
    3bc04402:	fd872883          	lw	a7,-40(a4)
    3bc04406:	0b082783          	lw	a5,176(a6)
    3bc0440a:	050d0513          	addi	a0,s10,80
    3bc0440e:	40688e3b          	subw	t3,a7,t1
    3bc04412:	0007869b          	sext.w	a3,a5
    3bc04416:	000e081b          	sext.w	a6,t3
    3bc0441a:	00d836b3          	sltu	a3,a6,a3
    3bc0441e:	0016c693          	xori	a3,a3,1
    3bc04422:	40de178b          	mveqz	a5,t3,a3
    3bc04426:	006786bb          	addw	a3,a5,t1
    3bc0442a:	fed72e23          	sw	a3,-4(a4)
    3bc0442e:	9522                	add	a0,a0,s0
    3bc04430:	fc070593          	addi	a1,a4,-64
    3bc04434:	08091c63          	bnez	s2,3bc044cc <dwc2_udc_irq+0x436>
    3bc04438:	4785                	li	a5,1
    3bc0443a:	06f61463          	bne	a2,a5,3bc044a2 <dwc2_udc_irq+0x40c>
    3bc0443e:	ec2ff0ef          	jal	ra,3bc03b00 <dwc2_write_fifo_ep0>
    3bc04442:	c119                	beqz	a0,3bc04448 <dwc2_udc_irq+0x3b2>
    3bc04444:	4795                	li	a5,5
    3bc04446:	c43c                	sw	a5,72(s0)
    3bc04448:	27644783          	lbu	a5,630(s0)
    3bc0444c:	c3a9                	beqz	a5,3bc0448e <dwc2_udc_irq+0x3f8>
    3bc0444e:	26843d03          	ld	s10,616(s0)
    3bc04452:	00078d9b          	sext.w	s11,a5
    3bc04456:	e43e                	sd	a5,8(sp)
    3bc04458:	9d56                	add	s10,s10,s5
    3bc0445a:	856a                	mv	a0,s10
    3bc0445c:	ae2fd0ef          	jal	ra,3bc0173e <DWC2_UncachedRead32>
    3bc04460:	67a2                	ld	a5,8(sp)
    3bc04462:	00050c9b          	sext.w	s9,a0
    3bc04466:	4711                	li	a4,4
    3bc04468:	37fd                	addiw	a5,a5,-1
    3bc0446a:	f8fcfc93          	andi	s9,s9,-113
    3bc0446e:	02f76063          	bltu	a4,a5,3bc0448e <dwc2_udc_irq+0x3f8>
    3bc04472:	85ee                	mv	a1,s11
    3bc04474:	00007517          	auipc	a0,0x7
    3bc04478:	a7450513          	addi	a0,a0,-1420 # 3bc0aee8 <ep3name+0x58>
    3bc0447c:	eddfb0ef          	jal	ra,3bc00358 <tf_printf>
    3bc04480:	004d9513          	slli	a0,s11,0x4
    3bc04484:	85ea                	mv	a1,s10
    3bc04486:	01956533          	or	a0,a0,s9
    3bc0448a:	abafd0ef          	jal	ra,3bc01744 <DWC2_UncachedWrite32>
    3bc0448e:	443c                	lw	a5,72(s0)
    3bc04490:	471d                	li	a4,7
    3bc04492:	06e79363          	bne	a5,a4,3bc044f8 <dwc2_udc_irq+0x462>
    3bc04496:	04042423          	sw	zero,72(s0)
    3bc0449a:	8522                	mv	a0,s0
    3bc0449c:	c6aff0ef          	jal	ra,3bc03906 <dwc2_udc_pre_setup>
    3bc044a0:	a8a9                	j	3bc044fa <dwc2_udc_irq+0x464>
    3bc044a2:	479d                	li	a5,7
    3bc044a4:	00f61863          	bne	a2,a5,3bc044b4 <dwc2_udc_irq+0x41e>
    3bc044a8:	4601                	li	a2,0
    3bc044aa:	c68fe0ef          	jal	ra,3bc02912 <dwc2_done>
    3bc044ae:	04042423          	sw	zero,72(s0)
    3bc044b2:	bf59                	j	3bc04448 <dwc2_udc_irq+0x3b2>
    3bc044b4:	4795                	li	a5,5
    3bc044b6:	f8f619e3          	bne	a2,a5,3bc04448 <dwc2_udc_irq+0x3b2>
    3bc044ba:	4601                	li	a2,0
    3bc044bc:	c56fe0ef          	jal	ra,3bc02912 <dwc2_done>
    3bc044c0:	4799                	li	a5,6
    3bc044c2:	c43c                	sw	a5,72(s0)
    3bc044c4:	8522                	mv	a0,s0
    3bc044c6:	934ff0ef          	jal	ra,3bc035fa <dwc2_ep0_complete_out>
    3bc044ca:	bfbd                	j	3bc04448 <dwc2_udc_irq+0x3b2>
    3bc044cc:	00d89763          	bne	a7,a3,3bc044da <dwc2_udc_irq+0x444>
    3bc044d0:	4601                	li	a2,0
    3bc044d2:	e42a                	sd	a0,8(sp)
    3bc044d4:	c3efe0ef          	jal	ra,3bc02912 <dwc2_done>
    3bc044d8:	6522                	ld	a0,8(sp)
    3bc044da:	9ca2                	add	s9,s9,s0
    3bc044dc:	098cb583          	ld	a1,152(s9)
    3bc044e0:	00bd8663          	beq	s11,a1,3bc044ec <dwc2_udc_irq+0x456>
    3bc044e4:	fc058593          	addi	a1,a1,-64
    3bc044e8:	c78ff0ef          	jal	ra,3bc03960 <setdma_tx>
    3bc044ec:	2905                	addiw	s2,s2,1
    3bc044ee:	0ff97913          	andi	s2,s2,255
    3bc044f2:	0019d993          	srli	s3,s3,0x1
    3bc044f6:	b535                	j	3bc04322 <dwc2_udc_irq+0x28c>
    3bc044f8:	d3cd                	beqz	a5,3bc0449a <dwc2_udc_irq+0x404>
    3bc044fa:	27544703          	lbu	a4,629(s0)
    3bc044fe:	4785                	li	a5,1
    3bc04500:	fef716e3          	bne	a4,a5,3bc044ec <dwc2_udc_irq+0x456>
    3bc04504:	27444503          	lbu	a0,628(s0)
    3bc04508:	4585                	li	a1,1
    3bc0450a:	df5fe0ef          	jal	ra,3bc032fe <dwc2_phy_to_log_ep>
    3bc0450e:	0005071b          	sext.w	a4,a0
    3bc04512:	071e                	slli	a4,a4,0x7
    3bc04514:	9722                	add	a4,a4,s0
    3bc04516:	00751793          	slli	a5,a0,0x7
    3bc0451a:	6f4c                	ld	a1,152(a4)
    3bc0451c:	05078513          	addi	a0,a5,80 # c0050 <__BSS_SIZE__+0xba440>
    3bc04520:	09878793          	addi	a5,a5,152
    3bc04524:	97a2                	add	a5,a5,s0
    3bc04526:	9522                	add	a0,a0,s0
    3bc04528:	00f58a63          	beq	a1,a5,3bc0453c <dwc2_udc_irq+0x4a6>
    3bc0452c:	0c170783          	lb	a5,193(a4)
    3bc04530:	fc058593          	addi	a1,a1,-64
    3bc04534:	0007d763          	bgez	a5,3bc04542 <dwc2_udc_irq+0x4ac>
    3bc04538:	c28ff0ef          	jal	ra,3bc03960 <setdma_tx>
    3bc0453c:	26040aa3          	sb	zero,629(s0)
    3bc04540:	b775                	j	3bc044ec <dwc2_udc_irq+0x456>
    3bc04542:	a1eff0ef          	jal	ra,3bc03760 <setdma_rx.isra.0>
    3bc04546:	bfdd                	j	3bc0453c <dwc2_udc_irq+0x4a6>
    3bc04548:	0019f793          	andi	a5,s3,1
    3bc0454c:	c3a1                	beqz	a5,3bc0458c <dwc2_udc_irq+0x4f6>
    3bc0454e:	05890493          	addi	s1,s2,88
    3bc04552:	0496                	slli	s1,s1,0x5
    3bc04554:	04a1                	addi	s1,s1,8
    3bc04556:	94da                	add	s1,s1,s6
    3bc04558:	8526                	mv	a0,s1
    3bc0455a:	9e4fd0ef          	jal	ra,3bc0173e <DWC2_UncachedRead32>
    3bc0455e:	0005061b          	sext.w	a2,a0
    3bc04562:	8532                	mv	a0,a2
    3bc04564:	85a6                	mv	a1,s1
    3bc04566:	e432                	sd	a2,8(sp)
    3bc04568:	9dcfd0ef          	jal	ra,3bc01744 <DWC2_UncachedWrite32>
    3bc0456c:	6622                	ld	a2,8(sp)
    3bc0456e:	06091063          	bnez	s2,3bc045ce <dwc2_udc_irq+0x538>
    3bc04572:	00867793          	andi	a5,a2,8
    3bc04576:	c38d                	beqz	a5,3bc04598 <dwc2_udc_irq+0x502>
    3bc04578:	8556                	mv	a0,s5
    3bc0457a:	4701                	li	a4,0
    3bc0457c:	4681                	li	a3,0
    3bc0457e:	4601                	li	a2,0
    3bc04580:	4581                	li	a1,0
    3bc04582:	b3efe0ef          	jal	ra,3bc028c0 <dwc2_log_write>
    3bc04586:	8522                	mv	a0,s0
    3bc04588:	fc8ff0ef          	jal	ra,3bc03d50 <dwc2_handle_ep0>
    3bc0458c:	2905                	addiw	s2,s2,1
    3bc0458e:	0ff97913          	andi	s2,s2,255
    3bc04592:	0019d993          	srli	s3,s3,0x1
    3bc04596:	b301                	j	3bc04296 <dwc2_udc_irq+0x200>
    3bc04598:	00167793          	andi	a5,a2,1
    3bc0459c:	dbe5                	beqz	a5,3bc0458c <dwc2_udc_irq+0x4f6>
    3bc0459e:	443c                	lw	a5,72(s0)
    3bc045a0:	4701                	li	a4,0
    3bc045a2:	4681                	li	a3,0
    3bc045a4:	01778b63          	beq	a5,s7,3bc045ba <dwc2_udc_irq+0x524>
    3bc045a8:	4585                	li	a1,1
    3bc045aa:	8552                	mv	a0,s4
    3bc045ac:	b14fe0ef          	jal	ra,3bc028c0 <dwc2_log_write>
    3bc045b0:	4581                	li	a1,0
    3bc045b2:	8522                	mv	a0,s0
    3bc045b4:	a56ff0ef          	jal	ra,3bc0380a <complete_rx>
    3bc045b8:	bfd1                	j	3bc0458c <dwc2_udc_irq+0x4f6>
    3bc045ba:	8552                	mv	a0,s4
    3bc045bc:	4589                	li	a1,2
    3bc045be:	b02fe0ef          	jal	ra,3bc028c0 <dwc2_log_write>
    3bc045c2:	8522                	mv	a0,s0
    3bc045c4:	04042423          	sw	zero,72(s0)
    3bc045c8:	b3eff0ef          	jal	ra,3bc03906 <dwc2_udc_pre_setup>
    3bc045cc:	b7c1                	j	3bc0458c <dwc2_udc_irq+0x4f6>
    3bc045ce:	8a05                	andi	a2,a2,1
    3bc045d0:	de55                	beqz	a2,3bc0458c <dwc2_udc_irq+0x4f6>
    3bc045d2:	85ca                	mv	a1,s2
    3bc045d4:	bff9                	j	3bc045b2 <dwc2_udc_irq+0x51c>

000000003bc045d6 <dwc2_ep0_kick>:
    3bc045d6:	07158703          	lb	a4,113(a1)
    3bc045da:	00075663          	bgez	a4,3bc045e6 <dwc2_ep0_kick+0x10>
    3bc045de:	4705                	li	a4,1
    3bc045e0:	c538                	sw	a4,72(a0)
    3bc045e2:	ddaff06f          	j	3bc03bbc <dwc2_ep0_write>
    3bc045e6:	4711                	li	a4,4
    3bc045e8:	c538                	sw	a4,72(a0)
    3bc045ea:	daaff06f          	j	3bc03b94 <dwc2_ep0_read>

000000003bc045ee <dwc2_queue>:
    3bc045ee:	e581                	bnez	a1,3bc045f6 <dwc2_queue+0x8>
    3bc045f0:	57a9                	li	a5,-22
    3bc045f2:	853e                	mv	a0,a5
    3bc045f4:	8082                	ret
    3bc045f6:	759c                	ld	a5,40(a1)
    3bc045f8:	dfe5                	beqz	a5,3bc045f0 <dwc2_queue+0x2>
    3bc045fa:	699c                	ld	a5,16(a1)
    3bc045fc:	dbf5                	beqz	a5,3bc045f0 <dwc2_queue+0x2>
    3bc045fe:	61bc                	ld	a5,64(a1)
    3bc04600:	7179                	addi	sp,sp,-48
    3bc04602:	e84a                	sd	s2,16(sp)
    3bc04604:	f406                	sd	ra,40(sp)
    3bc04606:	f022                	sd	s0,32(sp)
    3bc04608:	ec26                	sd	s1,24(sp)
    3bc0460a:	e44e                	sd	s3,8(sp)
    3bc0460c:	04058913          	addi	s2,a1,64
    3bc04610:	06f91763          	bne	s2,a5,3bc0467e <dwc2_queue+0x90>
    3bc04614:	c52d                	beqz	a0,3bc0467e <dwc2_queue+0x90>
    3bc04616:	613c                	ld	a5,64(a0)
    3bc04618:	84ae                	mv	s1,a1
    3bc0461a:	842a                	mv	s0,a0
    3bc0461c:	cbb9                	beqz	a5,3bc04672 <dwc2_queue+0x84>
    3bc0461e:	7c08                	ld	a0,56(s0)
    3bc04620:	07144683          	lbu	a3,113(s0)
    3bc04624:	fc600793          	li	a5,-58
    3bc04628:	7d18                	ld	a4,56(a0)
    3bc0462a:	cb39                	beqz	a4,3bc04680 <dwc2_queue+0x92>
    3bc0462c:	5118                	lw	a4,32(a0)
    3bc0462e:	fc600793          	li	a5,-58
    3bc04632:	c739                	beqz	a4,3bc04680 <dwc2_queue+0x92>
    3bc04634:	4785                	li	a5,1
    3bc04636:	1782                	slli	a5,a5,0x20
    3bc04638:	fdc78793          	addi	a5,a5,-36
    3bc0463c:	26853703          	ld	a4,616(a0)
    3bc04640:	fc9c                	sd	a5,56(s1)
    3bc04642:	643c                	ld	a5,72(s0)
    3bc04644:	04840993          	addi	s3,s0,72
    3bc04648:	04f99f63          	bne	s3,a5,3bc046a6 <dwc2_queue+0xb8>
    3bc0464c:	07044783          	lbu	a5,112(s0)
    3bc04650:	ebb9                	bnez	a5,3bc046a6 <dwc2_queue+0xb8>
    3bc04652:	00f6f793          	andi	a5,a3,15
    3bc04656:	ef8d                	bnez	a5,3bc04690 <dwc2_queue+0xa2>
    3bc04658:	683c                	ld	a5,80(s0)
    3bc0465a:	05243823          	sd	s2,80(s0)
    3bc0465e:	0534b023          	sd	s3,64(s1)
    3bc04662:	e4bc                	sd	a5,72(s1)
    3bc04664:	0127b023          	sd	s2,0(a5)
    3bc04668:	85a2                	mv	a1,s0
    3bc0466a:	f6dff0ef          	jal	ra,3bc045d6 <dwc2_ep0_kick>
    3bc0466e:	4781                	li	a5,0
    3bc04670:	a801                	j	3bc04680 <dwc2_queue+0x92>
    3bc04672:	01853983          	ld	s3,24(a0)
    3bc04676:	a4cfe0ef          	jal	ra,3bc028c2 <dwc2_get_ep0_name>
    3bc0467a:	faa982e3          	beq	s3,a0,3bc0461e <dwc2_queue+0x30>
    3bc0467e:	57a9                	li	a5,-22
    3bc04680:	70a2                	ld	ra,40(sp)
    3bc04682:	7402                	ld	s0,32(sp)
    3bc04684:	64e2                	ld	s1,24(sp)
    3bc04686:	6942                	ld	s2,16(sp)
    3bc04688:	69a2                	ld	s3,8(sp)
    3bc0468a:	853e                	mv	a0,a5
    3bc0468c:	6145                	addi	sp,sp,48
    3bc0468e:	8082                	ret
    3bc04690:	fc76b78b          	extu	a5,a3,63,7
    3bc04694:	01470513          	addi	a0,a4,20
    3bc04698:	c385                	beqz	a5,3bc046b8 <dwc2_queue+0xca>
    3bc0469a:	8a4fd0ef          	jal	ra,3bc0173e <DWC2_UncachedRead32>
    3bc0469e:	85a6                	mv	a1,s1
    3bc046a0:	8522                	mv	a0,s0
    3bc046a2:	abeff0ef          	jal	ra,3bc03960 <setdma_tx>
    3bc046a6:	683c                	ld	a5,80(s0)
    3bc046a8:	05243823          	sd	s2,80(s0)
    3bc046ac:	0534b023          	sd	s3,64(s1)
    3bc046b0:	e4bc                	sd	a5,72(s1)
    3bc046b2:	0127b023          	sd	s2,0(a5)
    3bc046b6:	bf65                	j	3bc0466e <dwc2_queue+0x80>
    3bc046b8:	886fd0ef          	jal	ra,3bc0173e <DWC2_UncachedRead32>
    3bc046bc:	85a6                	mv	a1,s1
    3bc046be:	8522                	mv	a0,s0
    3bc046c0:	8a0ff0ef          	jal	ra,3bc03760 <setdma_rx.isra.0>
    3bc046c4:	b7cd                	j	3bc046a6 <dwc2_queue+0xb8>

000000003bc046c6 <usb_polling>:
    3bc046c6:	7179                	addi	sp,sp,-48
    3bc046c8:	f022                	sd	s0,32(sp)
    3bc046ca:	ec26                	sd	s1,24(sp)
    3bc046cc:	f406                	sd	ra,40(sp)
    3bc046ce:	e432                	sd	a2,8(sp)
    3bc046d0:	0e0007b7          	lui	a5,0xe000
    3bc046d4:	84ae                	mv	s1,a1
    3bc046d6:	638c                	ld	a1,0(a5)
    3bc046d8:	842a                	mv	s0,a0
    3bc046da:	00007517          	auipc	a0,0x7
    3bc046de:	82650513          	addi	a0,a0,-2010 # 3bc0af00 <ep3name+0x70>
    3bc046e2:	5055b78b          	extu	a5,a1,20,5
    3bc046e6:	85be                	mv	a1,a5
    3bc046e8:	00007717          	auipc	a4,0x7
    3bc046ec:	00f71823          	sh	a5,16(a4) # 3bc0b6f8 <cv_usb_vid>
    3bc046f0:	c69fb0ef          	jal	ra,3bc00358 <tf_printf>
    3bc046f4:	8522                	mv	a0,s0
    3bc046f6:	7402                	ld	s0,32(sp)
    3bc046f8:	6622                	ld	a2,8(sp)
    3bc046fa:	70a2                	ld	ra,40(sp)
    3bc046fc:	85a6                	mv	a1,s1
    3bc046fe:	64e2                	ld	s1,24(sp)
    3bc04700:	6145                	addi	sp,sp,48
    3bc04702:	bd5fd06f          	j	3bc022d6 <AcmApp>

000000003bc04706 <crc16_ccitt>:
    3bc04706:	4781                	li	a5,0
    3bc04708:	00007697          	auipc	a3,0x7
    3bc0470c:	81068693          	addi	a3,a3,-2032 # 3bc0af18 <crc16_tab>
    3bc04710:	0007871b          	sext.w	a4,a5
    3bc04714:	00c74363          	blt	a4,a2,3bc0471a <crc16_ccitt+0x14>
    3bc04718:	8082                	ret
    3bc0471a:	80f5c80b          	lrbu	a6,a1,a5,0
    3bc0471e:	9c85370b          	extu	a4,a0,39,8
    3bc04722:	0085151b          	slliw	a0,a0,0x8
    3bc04726:	01074733          	xor	a4,a4,a6
    3bc0472a:	a2e6c70b          	lrhu	a4,a3,a4,1
    3bc0472e:	0785                	addi	a5,a5,1
    3bc04730:	8d39                	xor	a0,a0,a4
    3bc04732:	3c05350b          	extu	a0,a0,15,0
    3bc04736:	bfe9                	j	3bc04710 <crc16_ccitt+0xa>

000000003bc04738 <LzmaDec_WriteRem>:
    3bc04738:	4d78                	lw	a4,92(a0)
    3bc0473a:	11000793          	li	a5,272
    3bc0473e:	fff7069b          	addiw	a3,a4,-1
    3bc04742:	04d7e563          	bltu	a5,a3,3bc0478c <LzmaDec_WriteRem+0x54>
    3bc04746:	7510                	ld	a2,40(a0)
    3bc04748:	7c07368b          	extu	a3,a4,31,0
    3bc0474c:	01853803          	ld	a6,24(a0)
    3bc04750:	8d91                	sub	a1,a1,a2
    3bc04752:	02053e03          	ld	t3,32(a0)
    3bc04756:	04856883          	lwu	a7,72(a0)
    3bc0475a:	87ba                	mv	a5,a4
    3bc0475c:	00d5f463          	bgeu	a1,a3,3bc04764 <LzmaDec_WriteRem+0x2c>
    3bc04760:	0005879b          	sext.w	a5,a1
    3bc04764:	416c                	lw	a1,68(a0)
    3bc04766:	4134                	lw	a3,64(a0)
    3bc04768:	e599                	bnez	a1,3bc04776 <LzmaDec_WriteRem+0x3e>
    3bc0476a:	414c                	lw	a1,4(a0)
    3bc0476c:	40d5833b          	subw	t1,a1,a3
    3bc04770:	0067e363          	bltu	a5,t1,3bc04776 <LzmaDec_WriteRem+0x3e>
    3bc04774:	c16c                	sw	a1,68(a0)
    3bc04776:	9ebd                	addw	a3,a3,a5
    3bc04778:	9f1d                	subw	a4,a4,a5
    3bc0477a:	c134                	sw	a3,64(a0)
    3bc0477c:	cd78                	sw	a4,92(a0)
    3bc0477e:	86be                	mv	a3,a5
    3bc04780:	8732                	mv	a4,a2
    3bc04782:	e691                	bnez	a3,3bc0478e <LzmaDec_WriteRem+0x56>
    3bc04784:	7c07b78b          	extu	a5,a5,31,0
    3bc04788:	97b2                	add	a5,a5,a2
    3bc0478a:	f51c                	sd	a5,40(a0)
    3bc0478c:	8082                	ret
    3bc0478e:	36fd                	addiw	a3,a3,-1
    3bc04790:	411705b3          	sub	a1,a4,a7
    3bc04794:	8372                	mv	t1,t3
    3bc04796:	01176363          	bltu	a4,a7,3bc0479c <LzmaDec_WriteRem+0x64>
    3bc0479a:	4301                	li	t1,0
    3bc0479c:	95c2                	add	a1,a1,a6
    3bc0479e:	8065c58b          	lrbu	a1,a1,t1,0
    3bc047a2:	00e8558b          	srb	a1,a6,a4,0
    3bc047a6:	0705                	addi	a4,a4,1
    3bc047a8:	bfe9                	j	3bc04782 <LzmaDec_WriteRem+0x4a>

000000003bc047aa <LzmaDec_DecodeReal2>:
    3bc047aa:	7155                	addi	sp,sp,-208
    3bc047ac:	e1a2                	sd	s0,192(sp)
    3bc047ae:	6405                	lui	s0,0x1
    3bc047b0:	e586                	sd	ra,200(sp)
    3bc047b2:	fd26                	sd	s1,184(sp)
    3bc047b4:	f94a                	sd	s2,176(sp)
    3bc047b6:	f54e                	sd	s3,168(sp)
    3bc047b8:	f152                	sd	s4,160(sp)
    3bc047ba:	ed56                	sd	s5,152(sp)
    3bc047bc:	e95a                	sd	s6,144(sp)
    3bc047be:	e55e                	sd	s7,136(sp)
    3bc047c0:	e162                	sd	s8,128(sp)
    3bc047c2:	fce6                	sd	s9,120(sp)
    3bc047c4:	f8ea                	sd	s10,112(sp)
    3bc047c6:	f4ee                	sd	s11,104(sp)
    3bc047c8:	e82e                	sd	a1,16(sp)
    3bc047ca:	f832                	sd	a2,48(sp)
    3bc047cc:	8004041b          	addiw	s0,s0,-2048
    3bc047d0:	417c                	lw	a5,68(a0)
    3bc047d2:	04052e03          	lw	t3,64(a0)
    3bc047d6:	02853803          	ld	a6,40(a0)
    3bc047da:	ec3e                	sd	a5,24(sp)
    3bc047dc:	eba1                	bnez	a5,3bc0482c <LzmaDec_DecodeReal2+0x82>
    3bc047de:	415c                	lw	a5,4(a0)
    3bc047e0:	6742                	ld	a4,16(sp)
    3bc047e2:	66c2                	ld	a3,16(sp)
    3bc047e4:	41c787bb          	subw	a5,a5,t3
    3bc047e8:	7c07b78b          	extu	a5,a5,31,0
    3bc047ec:	41070733          	sub	a4,a4,a6
    3bc047f0:	e436                	sd	a3,8(sp)
    3bc047f2:	00e7f463          	bgeu	a5,a4,3bc047fa <LzmaDec_DecodeReal2+0x50>
    3bc047f6:	97c2                	add	a5,a5,a6
    3bc047f8:	e43e                	sd	a5,8(sp)
    3bc047fa:	020e1b63          	bnez	t3,3bc04830 <LzmaDec_DecodeReal2+0x86>
    3bc047fe:	5d58                	lw	a4,60(a0)
    3bc04800:	c00007b7          	lui	a5,0xc0000
    3bc04804:	bff78793          	addi	a5,a5,-1025 # ffffffffbffffbff <__BL2_END__+0xffffffff843ec7ef>
    3bc04808:	02e7f463          	bgeu	a5,a4,3bc04830 <LzmaDec_DecodeReal2+0x86>
    3bc0480c:	4505                	li	a0,1
    3bc0480e:	60ae                	ld	ra,200(sp)
    3bc04810:	640e                	ld	s0,192(sp)
    3bc04812:	74ea                	ld	s1,184(sp)
    3bc04814:	794a                	ld	s2,176(sp)
    3bc04816:	79aa                	ld	s3,168(sp)
    3bc04818:	7a0a                	ld	s4,160(sp)
    3bc0481a:	6aea                	ld	s5,152(sp)
    3bc0481c:	6b4a                	ld	s6,144(sp)
    3bc0481e:	6baa                	ld	s7,136(sp)
    3bc04820:	6c0a                	ld	s8,128(sp)
    3bc04822:	7ce6                	ld	s9,120(sp)
    3bc04824:	7d46                	ld	s10,112(sp)
    3bc04826:	7da6                	ld	s11,104(sp)
    3bc04828:	6169                	addi	sp,sp,208
    3bc0482a:	8082                	ret
    3bc0482c:	67c2                	ld	a5,16(sp)
    3bc0482e:	e43e                	sd	a5,8(sp)
    3bc04830:	497c                	lw	a5,84(a0)
    3bc04832:	00154703          	lbu	a4,1(a0)
    3bc04836:	690c                	ld	a1,16(a0)
    3bc04838:	f03e                	sd	a5,32(sp)
    3bc0483a:	00054783          	lbu	a5,0(a0)
    3bc0483e:	00254303          	lbu	t1,2(a0)
    3bc04842:	74fd                	lui	s1,0xfffff
    3bc04844:	f43e                	sd	a5,40(sp)
    3bc04846:	76a2                	ld	a3,40(sp)
    3bc04848:	10000793          	li	a5,256
    3bc0484c:	00e7973b          	sllw	a4,a5,a4
    3bc04850:	02053a83          	ld	s5,32(a0)
    3bc04854:	00d7d7bb          	srlw	a5,a5,a3
    3bc04858:	60048493          	addi	s1,s1,1536 # fffffffffffff600 <__BL2_END__+0xffffffffc43ec1f0>
    3bc0485c:	56fd                	li	a3,-1
    3bc0485e:	40f707bb          	subw	a5,a4,a5
    3bc04862:	006696bb          	sllw	a3,a3,t1
    3bc04866:	94ae                	add	s1,s1,a1
    3bc04868:	fc3e                	sd	a5,56(sp)
    3bc0486a:	fff6c693          	not	a3,a3
    3bc0486e:	e4a6                	sd	s1,72(sp)
    3bc04870:	05852883          	lw	a7,88(a0)
    3bc04874:	a0058493          	addi	s1,a1,-1536
    3bc04878:	04852f83          	lw	t6,72(a0)
    3bc0487c:	04c52f03          	lw	t5,76(a0)
    3bc04880:	05052983          	lw	s3,80(a0)
    3bc04884:	01853a03          	ld	s4,24(a0)
    3bc04888:	7918                	ld	a4,48(a0)
    3bc0488a:	5d10                	lw	a2,56(a0)
    3bc0488c:	5d5c                	lw	a5,60(a0)
    3bc0488e:	2681                	sext.w	a3,a3
    3bc04890:	e8a6                	sd	s1,80(sp)
    3bc04892:	fffa8493          	addi	s1,s5,-1
    3bc04896:	e0b6                	sd	a3,64(sp)
    3bc04898:	4301                	li	t1,0
    3bc0489a:	010006b7          	lui	a3,0x1000
    3bc0489e:	eca6                	sd	s1,88(sp)
    3bc048a0:	6486                	ld	s1,64(sp)
    3bc048a2:	01c4feb3          	and	t4,s1,t3
    3bc048a6:	004e9e9b          	slliw	t4,t4,0x4
    3bc048aa:	011e893b          	addw	s2,t4,a7
    3bc048ae:	02091493          	slli	s1,s2,0x20
    3bc048b2:	01f4d913          	srli	s2,s1,0x1f
    3bc048b6:	e0090b93          	addi	s7,s2,-512
    3bc048ba:	a175cb0b          	lrhu	s6,a1,s7,0
    3bc048be:	000b039b          	sext.w	t2,s6
    3bc048c2:	00d67a63          	bgeu	a2,a3,3bc048d6 <LzmaDec_DecodeReal2+0x12c>
    3bc048c6:	9817428b          	lbuia	t0,(a4),1,0
    3bc048ca:	0087979b          	slliw	a5,a5,0x8
    3bc048ce:	0086161b          	slliw	a2,a2,0x8
    3bc048d2:	00f2e7b3          	or	a5,t0,a5
    3bc048d6:	00b6529b          	srliw	t0,a2,0xb
    3bc048da:	027284bb          	mulw	s1,t0,t2
    3bc048de:	82a6                	mv	t0,s1
    3bc048e0:	7497f663          	bgeu	a5,s1,3bc0502c <LzmaDec_DecodeReal2+0x882>
    3bc048e4:	6ee2                	ld	t4,24(sp)
    3bc048e6:	407403bb          	subw	t2,s0,t2
    3bc048ea:	0053d39b          	srliw	t2,t2,0x5
    3bc048ee:	016383bb          	addw	t2,t2,s6
    3bc048f2:	2175d38b          	srh	t2,a1,s7,0
    3bc048f6:	01ceeeb3          	or	t4,t4,t3
    3bc048fa:	28058613          	addi	a2,a1,640
    3bc048fe:	020e8b63          	beqz	t4,3bc04934 <LzmaDec_DecodeReal2+0x18a>
    3bc04902:	6966                	ld	s2,88(sp)
    3bc04904:	fff80393          	addi	t2,a6,-1
    3bc04908:	008e1e9b          	slliw	t4,t3,0x8
    3bc0490c:	4109138b          	mveqz	t2,s2,a6
    3bc04910:	807a438b          	lrbu	t2,s4,t2,0
    3bc04914:	01d38ebb          	addw	t4,t2,t4
    3bc04918:	73e2                	ld	t2,56(sp)
    3bc0491a:	01d3feb3          	and	t4,t2,t4
    3bc0491e:	73a2                	ld	t2,40(sp)
    3bc04920:	007e9ebb          	sllw	t4,t4,t2
    3bc04924:	438d                	li	t2,3
    3bc04926:	027e8ebb          	mulw	t4,t4,t2
    3bc0492a:	020e9393          	slli	t2,t4,0x20
    3bc0492e:	01f3de93          	srli	t4,t2,0x1f
    3bc04932:	9676                	add	a2,a2,t4
    3bc04934:	4e99                	li	t4,6
    3bc04936:	2e05                	addiw	t3,t3,1
    3bc04938:	311eef63          	bltu	t4,a7,3bc04c56 <LzmaDec_DecodeReal2+0x4ac>
    3bc0493c:	438d                	li	t2,3
    3bc0493e:	8ec6                	mv	t4,a7
    3bc04940:	0113f363          	bgeu	t2,a7,3bc04946 <LzmaDec_DecodeReal2+0x19c>
    3bc04944:	4e8d                	li	t4,3
    3bc04946:	00265383          	lhu	t2,2(a2)
    3bc0494a:	41d888bb          	subw	a7,a7,t4
    3bc0494e:	00038e9b          	sext.w	t4,t2
    3bc04952:	00d4fa63          	bgeu	s1,a3,3bc04966 <LzmaDec_DecodeReal2+0x1bc>
    3bc04956:	0082949b          	slliw	s1,t0,0x8
    3bc0495a:	9817428b          	lbuia	t0,(a4),1,0
    3bc0495e:	0087979b          	slliw	a5,a5,0x8
    3bc04962:	00f2e7b3          	or	a5,t0,a5
    3bc04966:	00b4d29b          	srliw	t0,s1,0xb
    3bc0496a:	03d2893b          	mulw	s2,t0,t4
    3bc0496e:	2327f563          	bgeu	a5,s2,3bc04b98 <LzmaDec_DecodeReal2+0x3ee>
    3bc04972:	41d40ebb          	subw	t4,s0,t4
    3bc04976:	005ede9b          	srliw	t4,t4,0x5
    3bc0497a:	007e83bb          	addw	t2,t4,t2
    3bc0497e:	3c03b38b          	extu	t2,t2,15,0
    3bc04982:	4e89                	li	t4,2
    3bc04984:	00761123          	sh	t2,2(a2)
    3bc04988:	b3d6448b          	lurhu	s1,a2,t4,1
    3bc0498c:	03d61b8b          	addsl	s7,a2,t4,1
    3bc04990:	0004829b          	sext.w	t0,s1
    3bc04994:	00d97a63          	bgeu	s2,a3,3bc049a8 <LzmaDec_DecodeReal2+0x1fe>
    3bc04998:	9817438b          	lbuia	t2,(a4),1,0
    3bc0499c:	0087979b          	slliw	a5,a5,0x8
    3bc049a0:	0089191b          	slliw	s2,s2,0x8
    3bc049a4:	00f3e7b3          	or	a5,t2,a5
    3bc049a8:	00b95b1b          	srliw	s6,s2,0xb
    3bc049ac:	025b03bb          	mulw	t2,s6,t0
    3bc049b0:	001e9c1b          	slliw	s8,t4,0x1
    3bc049b4:	0e86                	slli	t4,t4,0x1
    3bc049b6:	1e77fd63          	bgeu	a5,t2,3bc04bb0 <LzmaDec_DecodeReal2+0x406>
    3bc049ba:	405402bb          	subw	t0,s0,t0
    3bc049be:	0052d29b          	srliw	t0,t0,0x5
    3bc049c2:	009284bb          	addw	s1,t0,s1
    3bc049c6:	3c04b48b          	extu	s1,s1,15,0
    3bc049ca:	009b9023          	sh	s1,0(s7)
    3bc049ce:	b3d6490b          	lurhu	s2,a2,t4,1
    3bc049d2:	020e9493          	slli	s1,t4,0x20
    3bc049d6:	01f4dc13          	srli	s8,s1,0x1f
    3bc049da:	9c32                	add	s8,s8,a2
    3bc049dc:	0009029b          	sext.w	t0,s2
    3bc049e0:	00d3f963          	bgeu	t2,a3,3bc049f2 <LzmaDec_DecodeReal2+0x248>
    3bc049e4:	9817448b          	lbuia	s1,(a4),1,0
    3bc049e8:	0087979b          	slliw	a5,a5,0x8
    3bc049ec:	0083939b          	slliw	t2,t2,0x8
    3bc049f0:	8fc5                	or	a5,a5,s1
    3bc049f2:	00b3db9b          	srliw	s7,t2,0xb
    3bc049f6:	025b84bb          	mulw	s1,s7,t0
    3bc049fa:	001e9b1b          	slliw	s6,t4,0x1
    3bc049fe:	1c97f663          	bgeu	a5,s1,3bc04bca <LzmaDec_DecodeReal2+0x420>
    3bc04a02:	405402bb          	subw	t0,s0,t0
    3bc04a06:	0052d29b          	srliw	t0,t0,0x5
    3bc04a0a:	0122893b          	addw	s2,t0,s2
    3bc04a0e:	3c09390b          	extu	s2,s2,15,0
    3bc04a12:	012c1023          	sh	s2,0(s8)
    3bc04a16:	b366428b          	lurhu	t0,a2,s6,1
    3bc04a1a:	020b1e93          	slli	t4,s6,0x20
    3bc04a1e:	01fedc13          	srli	s8,t4,0x1f
    3bc04a22:	9c32                	add	s8,s8,a2
    3bc04a24:	00028e9b          	sext.w	t4,t0
    3bc04a28:	00d4fa63          	bgeu	s1,a3,3bc04a3c <LzmaDec_DecodeReal2+0x292>
    3bc04a2c:	9817438b          	lbuia	t2,(a4),1,0
    3bc04a30:	0087979b          	slliw	a5,a5,0x8
    3bc04a34:	0084949b          	slliw	s1,s1,0x8
    3bc04a38:	00f3e7b3          	or	a5,t2,a5
    3bc04a3c:	00b4db9b          	srliw	s7,s1,0xb
    3bc04a40:	03db83bb          	mulw	t2,s7,t4
    3bc04a44:	001b191b          	slliw	s2,s6,0x1
    3bc04a48:	1877fc63          	bgeu	a5,t2,3bc04be0 <LzmaDec_DecodeReal2+0x436>
    3bc04a4c:	41d40ebb          	subw	t4,s0,t4
    3bc04a50:	005ede9b          	srliw	t4,t4,0x5
    3bc04a54:	005e82bb          	addw	t0,t4,t0
    3bc04a58:	3c02b28b          	extu	t0,t0,15,0
    3bc04a5c:	02091493          	slli	s1,s2,0x20
    3bc04a60:	005c1023          	sh	t0,0(s8)
    3bc04a64:	01f4db93          	srli	s7,s1,0x1f
    3bc04a68:	b326448b          	lurhu	s1,a2,s2,1
    3bc04a6c:	9bb2                	add	s7,s7,a2
    3bc04a6e:	00048e9b          	sext.w	t4,s1
    3bc04a72:	00d3fa63          	bgeu	t2,a3,3bc04a86 <LzmaDec_DecodeReal2+0x2dc>
    3bc04a76:	9817428b          	lbuia	t0,(a4),1,0
    3bc04a7a:	0087979b          	slliw	a5,a5,0x8
    3bc04a7e:	0083939b          	slliw	t2,t2,0x8
    3bc04a82:	00f2e7b3          	or	a5,t0,a5
    3bc04a86:	00b3db1b          	srliw	s6,t2,0xb
    3bc04a8a:	03db02bb          	mulw	t0,s6,t4
    3bc04a8e:	0019191b          	slliw	s2,s2,0x1
    3bc04a92:	1657f363          	bgeu	a5,t0,3bc04bf8 <LzmaDec_DecodeReal2+0x44e>
    3bc04a96:	41d40ebb          	subw	t4,s0,t4
    3bc04a9a:	005ede9b          	srliw	t4,t4,0x5
    3bc04a9e:	009e84bb          	addw	s1,t4,s1
    3bc04aa2:	3c04b48b          	extu	s1,s1,15,0
    3bc04aa6:	009b9023          	sh	s1,0(s7)
    3bc04aaa:	02091493          	slli	s1,s2,0x20
    3bc04aae:	01f4db93          	srli	s7,s1,0x1f
    3bc04ab2:	b326448b          	lurhu	s1,a2,s2,1
    3bc04ab6:	9bb2                	add	s7,s7,a2
    3bc04ab8:	00048e9b          	sext.w	t4,s1
    3bc04abc:	00d2fa63          	bgeu	t0,a3,3bc04ad0 <LzmaDec_DecodeReal2+0x326>
    3bc04ac0:	9817438b          	lbuia	t2,(a4),1,0
    3bc04ac4:	0087979b          	slliw	a5,a5,0x8
    3bc04ac8:	0082929b          	slliw	t0,t0,0x8
    3bc04acc:	00f3e7b3          	or	a5,t2,a5
    3bc04ad0:	00b2db1b          	srliw	s6,t0,0xb
    3bc04ad4:	03db03bb          	mulw	t2,s6,t4
    3bc04ad8:	0019191b          	slliw	s2,s2,0x1
    3bc04adc:	1277fa63          	bgeu	a5,t2,3bc04c10 <LzmaDec_DecodeReal2+0x466>
    3bc04ae0:	41d40ebb          	subw	t4,s0,t4
    3bc04ae4:	005ede9b          	srliw	t4,t4,0x5
    3bc04ae8:	009e84bb          	addw	s1,t4,s1
    3bc04aec:	3c04b48b          	extu	s1,s1,15,0
    3bc04af0:	009b9023          	sh	s1,0(s7)
    3bc04af4:	02091493          	slli	s1,s2,0x20
    3bc04af8:	01f4db93          	srli	s7,s1,0x1f
    3bc04afc:	b326448b          	lurhu	s1,a2,s2,1
    3bc04b00:	9bb2                	add	s7,s7,a2
    3bc04b02:	00048e9b          	sext.w	t4,s1
    3bc04b06:	00d3fa63          	bgeu	t2,a3,3bc04b1a <LzmaDec_DecodeReal2+0x370>
    3bc04b0a:	9817428b          	lbuia	t0,(a4),1,0
    3bc04b0e:	0087979b          	slliw	a5,a5,0x8
    3bc04b12:	0083939b          	slliw	t2,t2,0x8
    3bc04b16:	00f2e7b3          	or	a5,t0,a5
    3bc04b1a:	00b3db1b          	srliw	s6,t2,0xb
    3bc04b1e:	03db02bb          	mulw	t0,s6,t4
    3bc04b22:	0019191b          	slliw	s2,s2,0x1
    3bc04b26:	1057f163          	bgeu	a5,t0,3bc04c28 <LzmaDec_DecodeReal2+0x47e>
    3bc04b2a:	41d40ebb          	subw	t4,s0,t4
    3bc04b2e:	005ede9b          	srliw	t4,t4,0x5
    3bc04b32:	009e84bb          	addw	s1,t4,s1
    3bc04b36:	3c04b48b          	extu	s1,s1,15,0
    3bc04b3a:	009b9023          	sh	s1,0(s7)
    3bc04b3e:	b3264b8b          	lurhu	s7,a2,s2,1
    3bc04b42:	02091493          	slli	s1,s2,0x20
    3bc04b46:	01f4db13          	srli	s6,s1,0x1f
    3bc04b4a:	9b32                	add	s6,s6,a2
    3bc04b4c:	000b8e9b          	sext.w	t4,s7
    3bc04b50:	00d2f963          	bgeu	t0,a3,3bc04b62 <LzmaDec_DecodeReal2+0x3b8>
    3bc04b54:	9817460b          	lbuia	a2,(a4),1,0
    3bc04b58:	0087979b          	slliw	a5,a5,0x8
    3bc04b5c:	0082929b          	slliw	t0,t0,0x8
    3bc04b60:	8fd1                	or	a5,a5,a2
    3bc04b62:	00b2d39b          	srliw	t2,t0,0xb
    3bc04b66:	03d3863b          	mulw	a2,t2,t4
    3bc04b6a:	0019149b          	slliw	s1,s2,0x1
    3bc04b6e:	0cc7f963          	bgeu	a5,a2,3bc04c40 <LzmaDec_DecodeReal2+0x496>
    3bc04b72:	41d40ebb          	subw	t4,s0,t4
    3bc04b76:	005ede9b          	srliw	t4,t4,0x5
    3bc04b7a:	017e8ebb          	addw	t4,t4,s7
    3bc04b7e:	01db1023          	sh	t4,0(s6)
    3bc04b82:	010a548b          	srb	s1,s4,a6,0
    3bc04b86:	0805                	addi	a6,a6,1
    3bc04b88:	64a2                	ld	s1,8(sp)
    3bc04b8a:	649870e3          	bgeu	a6,s1,3bc059ca <LzmaDec_DecodeReal2+0x1220>
    3bc04b8e:	74c2                	ld	s1,48(sp)
    3bc04b90:	d09768e3          	bltu	a4,s1,3bc048a0 <LzmaDec_DecodeReal2+0xf6>
    3bc04b94:	6370006f          	j	3bc059ca <LzmaDec_DecodeReal2+0x1220>
    3bc04b98:	005ede9b          	srliw	t4,t4,0x5
    3bc04b9c:	41d383bb          	subw	t2,t2,t4
    3bc04ba0:	412787bb          	subw	a5,a5,s2
    3bc04ba4:	3c03b38b          	extu	t2,t2,15,0
    3bc04ba8:	4124893b          	subw	s2,s1,s2
    3bc04bac:	4e8d                	li	t4,3
    3bc04bae:	bbd9                	j	3bc04984 <LzmaDec_DecodeReal2+0x1da>
    3bc04bb0:	0052d29b          	srliw	t0,t0,0x5
    3bc04bb4:	405484bb          	subw	s1,s1,t0
    3bc04bb8:	407787bb          	subw	a5,a5,t2
    3bc04bbc:	3c04b48b          	extu	s1,s1,15,0
    3bc04bc0:	001c0e9b          	addiw	t4,s8,1
    3bc04bc4:	407903bb          	subw	t2,s2,t2
    3bc04bc8:	b509                	j	3bc049ca <LzmaDec_DecodeReal2+0x220>
    3bc04bca:	0052d29b          	srliw	t0,t0,0x5
    3bc04bce:	4059093b          	subw	s2,s2,t0
    3bc04bd2:	9f85                	subw	a5,a5,s1
    3bc04bd4:	3c09390b          	extu	s2,s2,15,0
    3bc04bd8:	2b05                	addiw	s6,s6,1
    3bc04bda:	409384bb          	subw	s1,t2,s1
    3bc04bde:	bd15                	j	3bc04a12 <LzmaDec_DecodeReal2+0x268>
    3bc04be0:	005ede9b          	srliw	t4,t4,0x5
    3bc04be4:	41d282bb          	subw	t0,t0,t4
    3bc04be8:	407787bb          	subw	a5,a5,t2
    3bc04bec:	3c02b28b          	extu	t0,t0,15,0
    3bc04bf0:	2905                	addiw	s2,s2,1
    3bc04bf2:	407483bb          	subw	t2,s1,t2
    3bc04bf6:	b59d                	j	3bc04a5c <LzmaDec_DecodeReal2+0x2b2>
    3bc04bf8:	005ede9b          	srliw	t4,t4,0x5
    3bc04bfc:	41d484bb          	subw	s1,s1,t4
    3bc04c00:	405787bb          	subw	a5,a5,t0
    3bc04c04:	3c04b48b          	extu	s1,s1,15,0
    3bc04c08:	2905                	addiw	s2,s2,1
    3bc04c0a:	405382bb          	subw	t0,t2,t0
    3bc04c0e:	bd61                	j	3bc04aa6 <LzmaDec_DecodeReal2+0x2fc>
    3bc04c10:	005ede9b          	srliw	t4,t4,0x5
    3bc04c14:	41d484bb          	subw	s1,s1,t4
    3bc04c18:	407787bb          	subw	a5,a5,t2
    3bc04c1c:	3c04b48b          	extu	s1,s1,15,0
    3bc04c20:	2905                	addiw	s2,s2,1
    3bc04c22:	407283bb          	subw	t2,t0,t2
    3bc04c26:	b5e9                	j	3bc04af0 <LzmaDec_DecodeReal2+0x346>
    3bc04c28:	005ede9b          	srliw	t4,t4,0x5
    3bc04c2c:	41d484bb          	subw	s1,s1,t4
    3bc04c30:	405787bb          	subw	a5,a5,t0
    3bc04c34:	3c04b48b          	extu	s1,s1,15,0
    3bc04c38:	2905                	addiw	s2,s2,1
    3bc04c3a:	405382bb          	subw	t0,t2,t0
    3bc04c3e:	bdf5                	j	3bc04b3a <LzmaDec_DecodeReal2+0x390>
    3bc04c40:	005ede9b          	srliw	t4,t4,0x5
    3bc04c44:	41db8ebb          	subw	t4,s7,t4
    3bc04c48:	9f91                	subw	a5,a5,a2
    3bc04c4a:	01db1023          	sh	t4,0(s6)
    3bc04c4e:	2485                	addiw	s1,s1,1
    3bc04c50:	40c2863b          	subw	a2,t0,a2
    3bc04c54:	b73d                	j	3bc04b82 <LzmaDec_DecodeReal2+0x3d8>
    3bc04c56:	7c0fb90b          	extu	s2,t6,31,0
    3bc04c5a:	41280eb3          	sub	t4,a6,s2
    3bc04c5e:	83d6                	mv	t2,s5
    3bc04c60:	01286363          	bltu	a6,s2,3bc04c66 <LzmaDec_DecodeReal2+0x4bc>
    3bc04c64:	4381                	li	t2,0
    3bc04c66:	9ed2                	add	t4,t4,s4
    3bc04c68:	4925                	li	s2,9
    3bc04c6a:	807ece8b          	lrbu	t4,t4,t2,0
    3bc04c6e:	438d                	li	t2,3
    3bc04c70:	01197363          	bgeu	s2,a7,3bc04c76 <LzmaDec_DecodeReal2+0x4cc>
    3bc04c74:	4399                	li	t2,6
    3bc04c76:	001e9b1b          	slliw	s6,t4,0x1
    3bc04c7a:	100b7b13          	andi	s6,s6,256
    3bc04c7e:	407888bb          	subw	a7,a7,t2
    3bc04c82:	101b039b          	addiw	t2,s6,257
    3bc04c86:	b2764c0b          	lurhu	s8,a2,t2,1
    3bc04c8a:	101b0b93          	addi	s7,s6,257
    3bc04c8e:	03761b8b          	addsl	s7,a2,s7,1
    3bc04c92:	000c039b          	sext.w	t2,s8
    3bc04c96:	00d4fa63          	bgeu	s1,a3,3bc04caa <LzmaDec_DecodeReal2+0x500>
    3bc04c9a:	0082949b          	slliw	s1,t0,0x8
    3bc04c9e:	9817428b          	lbuia	t0,(a4),1,0
    3bc04ca2:	0087979b          	slliw	a5,a5,0x8
    3bc04ca6:	00f2e7b3          	or	a5,t0,a5
    3bc04caa:	00b4d29b          	srliw	t0,s1,0xb
    3bc04cae:	0272893b          	mulw	s2,t0,t2
    3bc04cb2:	2b27ff63          	bgeu	a5,s2,3bc04f70 <LzmaDec_DecodeReal2+0x7c6>
    3bc04cb6:	407403bb          	subw	t2,s0,t2
    3bc04cba:	0053d39b          	srliw	t2,t2,0x5
    3bc04cbe:	01838c3b          	addw	s8,t2,s8
    3bc04cc2:	3c0c3c0b          	extu	s8,s8,15,0
    3bc04cc6:	100b4b13          	xori	s6,s6,256
    3bc04cca:	4289                	li	t0,2
    3bc04ccc:	002e939b          	slliw	t2,t4,0x2
    3bc04cd0:	007b73b3          	and	t2,s6,t2
    3bc04cd4:	005b04bb          	addw	s1,s6,t0
    3bc04cd8:	018b9023          	sh	s8,0(s7)
    3bc04cdc:	00038c1b          	sext.w	s8,t2
    3bc04ce0:	007483bb          	addw	t2,s1,t2
    3bc04ce4:	b2764b8b          	lurhu	s7,a2,t2,1
    3bc04ce8:	02039493          	slli	s1,t2,0x20
    3bc04cec:	01f4dd13          	srli	s10,s1,0x1f
    3bc04cf0:	9d32                	add	s10,s10,a2
    3bc04cf2:	000b839b          	sext.w	t2,s7
    3bc04cf6:	00d97963          	bgeu	s2,a3,3bc04d08 <LzmaDec_DecodeReal2+0x55e>
    3bc04cfa:	9817448b          	lbuia	s1,(a4),1,0
    3bc04cfe:	0087979b          	slliw	a5,a5,0x8
    3bc04d02:	0089191b          	slliw	s2,s2,0x8
    3bc04d06:	8fc5                	or	a5,a5,s1
    3bc04d08:	00b95c9b          	srliw	s9,s2,0xb
    3bc04d0c:	027c84bb          	mulw	s1,s9,t2
    3bc04d10:	00129d9b          	slliw	s11,t0,0x1
    3bc04d14:	0286                	slli	t0,t0,0x1
    3bc04d16:	2697f963          	bgeu	a5,s1,3bc04f88 <LzmaDec_DecodeReal2+0x7de>
    3bc04d1a:	407403bb          	subw	t2,s0,t2
    3bc04d1e:	0053d39b          	srliw	t2,t2,0x5
    3bc04d22:	01738bbb          	addw	s7,t2,s7
    3bc04d26:	3c0bbb8b          	extu	s7,s7,15,0
    3bc04d2a:	018b4c33          	xor	s8,s6,s8
    3bc04d2e:	003e939b          	slliw	t2,t4,0x3
    3bc04d32:	007c73b3          	and	t2,s8,t2
    3bc04d36:	005c093b          	addw	s2,s8,t0
    3bc04d3a:	017d1023          	sh	s7,0(s10)
    3bc04d3e:	00038b1b          	sext.w	s6,t2
    3bc04d42:	007903bb          	addw	t2,s2,t2
    3bc04d46:	b2764c8b          	lurhu	s9,a2,t2,1
    3bc04d4a:	02039913          	slli	s2,t2,0x20
    3bc04d4e:	01f95d93          	srli	s11,s2,0x1f
    3bc04d52:	9db2                	add	s11,s11,a2
    3bc04d54:	000c839b          	sext.w	t2,s9
    3bc04d58:	00d4fa63          	bgeu	s1,a3,3bc04d6c <LzmaDec_DecodeReal2+0x5c2>
    3bc04d5c:	9817490b          	lbuia	s2,(a4),1,0
    3bc04d60:	0087979b          	slliw	a5,a5,0x8
    3bc04d64:	0084949b          	slliw	s1,s1,0x8
    3bc04d68:	00f967b3          	or	a5,s2,a5
    3bc04d6c:	00b4dd1b          	srliw	s10,s1,0xb
    3bc04d70:	027d093b          	mulw	s2,s10,t2
    3bc04d74:	00129b9b          	slliw	s7,t0,0x1
    3bc04d78:	2327f463          	bgeu	a5,s2,3bc04fa0 <LzmaDec_DecodeReal2+0x7f6>
    3bc04d7c:	407403bb          	subw	t2,s0,t2
    3bc04d80:	0053d39b          	srliw	t2,t2,0x5
    3bc04d84:	01938cbb          	addw	s9,t2,s9
    3bc04d88:	3c0cbc8b          	extu	s9,s9,15,0
    3bc04d8c:	016c4b33          	xor	s6,s8,s6
    3bc04d90:	004e929b          	slliw	t0,t4,0x4
    3bc04d94:	005b72b3          	and	t0,s6,t0
    3bc04d98:	017b03bb          	addw	t2,s6,s7
    3bc04d9c:	019d9023          	sh	s9,0(s11)
    3bc04da0:	00028c1b          	sext.w	s8,t0
    3bc04da4:	005382bb          	addw	t0,t2,t0
    3bc04da8:	b256438b          	lurhu	t2,a2,t0,1
    3bc04dac:	02029493          	slli	s1,t0,0x20
    3bc04db0:	01f4dd13          	srli	s10,s1,0x1f
    3bc04db4:	9d32                	add	s10,s10,a2
    3bc04db6:	0003829b          	sext.w	t0,t2
    3bc04dba:	00d97963          	bgeu	s2,a3,3bc04dcc <LzmaDec_DecodeReal2+0x622>
    3bc04dbe:	9817448b          	lbuia	s1,(a4),1,0
    3bc04dc2:	0087979b          	slliw	a5,a5,0x8
    3bc04dc6:	0089191b          	slliw	s2,s2,0x8
    3bc04dca:	8fc5                	or	a5,a5,s1
    3bc04dcc:	00b95c9b          	srliw	s9,s2,0xb
    3bc04dd0:	025c84bb          	mulw	s1,s9,t0
    3bc04dd4:	001b9b9b          	slliw	s7,s7,0x1
    3bc04dd8:	1e97f063          	bgeu	a5,s1,3bc04fb8 <LzmaDec_DecodeReal2+0x80e>
    3bc04ddc:	405402bb          	subw	t0,s0,t0
    3bc04de0:	0052d29b          	srliw	t0,t0,0x5
    3bc04de4:	007283bb          	addw	t2,t0,t2
    3bc04de8:	3c03b38b          	extu	t2,t2,15,0
    3bc04dec:	018b4c33          	xor	s8,s6,s8
    3bc04df0:	005e929b          	slliw	t0,t4,0x5
    3bc04df4:	007d1023          	sh	t2,0(s10)
    3bc04df8:	005c72b3          	and	t0,s8,t0
    3bc04dfc:	017c03bb          	addw	t2,s8,s7
    3bc04e00:	00028b1b          	sext.w	s6,t0
    3bc04e04:	005382bb          	addw	t0,t2,t0
    3bc04e08:	b256490b          	lurhu	s2,a2,t0,1
    3bc04e0c:	02029393          	slli	t2,t0,0x20
    3bc04e10:	01f3dd13          	srli	s10,t2,0x1f
    3bc04e14:	9d32                	add	s10,s10,a2
    3bc04e16:	0009029b          	sext.w	t0,s2
    3bc04e1a:	00d4fa63          	bgeu	s1,a3,3bc04e2e <LzmaDec_DecodeReal2+0x684>
    3bc04e1e:	9817438b          	lbuia	t2,(a4),1,0
    3bc04e22:	0087979b          	slliw	a5,a5,0x8
    3bc04e26:	0084949b          	slliw	s1,s1,0x8
    3bc04e2a:	00f3e7b3          	or	a5,t2,a5
    3bc04e2e:	00b4dc9b          	srliw	s9,s1,0xb
    3bc04e32:	025c83bb          	mulw	t2,s9,t0
    3bc04e36:	001b9b9b          	slliw	s7,s7,0x1
    3bc04e3a:	1877fa63          	bgeu	a5,t2,3bc04fce <LzmaDec_DecodeReal2+0x824>
    3bc04e3e:	405402bb          	subw	t0,s0,t0
    3bc04e42:	0052d29b          	srliw	t0,t0,0x5
    3bc04e46:	0122893b          	addw	s2,t0,s2
    3bc04e4a:	3c09390b          	extu	s2,s2,15,0
    3bc04e4e:	016c4b33          	xor	s6,s8,s6
    3bc04e52:	006e929b          	slliw	t0,t4,0x6
    3bc04e56:	005b72b3          	and	t0,s6,t0
    3bc04e5a:	017b04bb          	addw	s1,s6,s7
    3bc04e5e:	00028c1b          	sext.w	s8,t0
    3bc04e62:	005482bb          	addw	t0,s1,t0
    3bc04e66:	02029493          	slli	s1,t0,0x20
    3bc04e6a:	012d1023          	sh	s2,0(s10)
    3bc04e6e:	01f4dd13          	srli	s10,s1,0x1f
    3bc04e72:	b256448b          	lurhu	s1,a2,t0,1
    3bc04e76:	9d32                	add	s10,s10,a2
    3bc04e78:	0004829b          	sext.w	t0,s1
    3bc04e7c:	00d3fa63          	bgeu	t2,a3,3bc04e90 <LzmaDec_DecodeReal2+0x6e6>
    3bc04e80:	9817490b          	lbuia	s2,(a4),1,0
    3bc04e84:	0087979b          	slliw	a5,a5,0x8
    3bc04e88:	0083939b          	slliw	t2,t2,0x8
    3bc04e8c:	00f967b3          	or	a5,s2,a5
    3bc04e90:	00b3dc9b          	srliw	s9,t2,0xb
    3bc04e94:	025c893b          	mulw	s2,s9,t0
    3bc04e98:	001b9b9b          	slliw	s7,s7,0x1
    3bc04e9c:	1527f563          	bgeu	a5,s2,3bc04fe6 <LzmaDec_DecodeReal2+0x83c>
    3bc04ea0:	405402bb          	subw	t0,s0,t0
    3bc04ea4:	0052d29b          	srliw	t0,t0,0x5
    3bc04ea8:	009284bb          	addw	s1,t0,s1
    3bc04eac:	3c04b48b          	extu	s1,s1,15,0
    3bc04eb0:	018b4c33          	xor	s8,s6,s8
    3bc04eb4:	007e929b          	slliw	t0,t4,0x7
    3bc04eb8:	005c72b3          	and	t0,s8,t0
    3bc04ebc:	017c03bb          	addw	t2,s8,s7
    3bc04ec0:	009d1023          	sh	s1,0(s10)
    3bc04ec4:	0002849b          	sext.w	s1,t0
    3bc04ec8:	005382bb          	addw	t0,t2,t0
    3bc04ecc:	b2564b0b          	lurhu	s6,a2,t0,1
    3bc04ed0:	02029393          	slli	t2,t0,0x20
    3bc04ed4:	01f3dd93          	srli	s11,t2,0x1f
    3bc04ed8:	9db2                	add	s11,s11,a2
    3bc04eda:	000b029b          	sext.w	t0,s6
    3bc04ede:	00d97a63          	bgeu	s2,a3,3bc04ef2 <LzmaDec_DecodeReal2+0x748>
    3bc04ee2:	9817438b          	lbuia	t2,(a4),1,0
    3bc04ee6:	0087979b          	slliw	a5,a5,0x8
    3bc04eea:	0089191b          	slliw	s2,s2,0x8
    3bc04eee:	00f3e7b3          	or	a5,t2,a5
    3bc04ef2:	00b95d1b          	srliw	s10,s2,0xb
    3bc04ef6:	025d03bb          	mulw	t2,s10,t0
    3bc04efa:	001b9c9b          	slliw	s9,s7,0x1
    3bc04efe:	1077f063          	bgeu	a5,t2,3bc04ffe <LzmaDec_DecodeReal2+0x854>
    3bc04f02:	405402bb          	subw	t0,s0,t0
    3bc04f06:	0052d29b          	srliw	t0,t0,0x5
    3bc04f0a:	01628b3b          	addw	s6,t0,s6
    3bc04f0e:	3c0b3b0b          	extu	s6,s6,15,0
    3bc04f12:	009c44b3          	xor	s1,s8,s1
    3bc04f16:	008e9e9b          	slliw	t4,t4,0x8
    3bc04f1a:	01d4feb3          	and	t4,s1,t4
    3bc04f1e:	019484bb          	addw	s1,s1,s9
    3bc04f22:	01d48ebb          	addw	t4,s1,t4
    3bc04f26:	016d9023          	sh	s6,0(s11)
    3bc04f2a:	b3d64b0b          	lurhu	s6,a2,t4,1
    3bc04f2e:	020e9493          	slli	s1,t4,0x20
    3bc04f32:	01f4d913          	srli	s2,s1,0x1f
    3bc04f36:	9932                	add	s2,s2,a2
    3bc04f38:	000b0e9b          	sext.w	t4,s6
    3bc04f3c:	00d3f963          	bgeu	t2,a3,3bc04f4e <LzmaDec_DecodeReal2+0x7a4>
    3bc04f40:	9817460b          	lbuia	a2,(a4),1,0
    3bc04f44:	0087979b          	slliw	a5,a5,0x8
    3bc04f48:	0083939b          	slliw	t2,t2,0x8
    3bc04f4c:	8fd1                	or	a5,a5,a2
    3bc04f4e:	00b3d29b          	srliw	t0,t2,0xb
    3bc04f52:	03d2863b          	mulw	a2,t0,t4
    3bc04f56:	001c949b          	slliw	s1,s9,0x1
    3bc04f5a:	0ac7fe63          	bgeu	a5,a2,3bc05016 <LzmaDec_DecodeReal2+0x86c>
    3bc04f5e:	41d40ebb          	subw	t4,s0,t4
    3bc04f62:	005ede9b          	srliw	t4,t4,0x5
    3bc04f66:	016e8ebb          	addw	t4,t4,s6
    3bc04f6a:	01d91023          	sh	t4,0(s2)
    3bc04f6e:	b911                	j	3bc04b82 <LzmaDec_DecodeReal2+0x3d8>
    3bc04f70:	0053d39b          	srliw	t2,t2,0x5
    3bc04f74:	407c0c3b          	subw	s8,s8,t2
    3bc04f78:	412787bb          	subw	a5,a5,s2
    3bc04f7c:	3c0c3c0b          	extu	s8,s8,15,0
    3bc04f80:	4124893b          	subw	s2,s1,s2
    3bc04f84:	428d                	li	t0,3
    3bc04f86:	b399                	j	3bc04ccc <LzmaDec_DecodeReal2+0x522>
    3bc04f88:	0053d39b          	srliw	t2,t2,0x5
    3bc04f8c:	407b8bbb          	subw	s7,s7,t2
    3bc04f90:	9f85                	subw	a5,a5,s1
    3bc04f92:	3c0bbb8b          	extu	s7,s7,15,0
    3bc04f96:	001d829b          	addiw	t0,s11,1
    3bc04f9a:	409904bb          	subw	s1,s2,s1
    3bc04f9e:	bb41                	j	3bc04d2e <LzmaDec_DecodeReal2+0x584>
    3bc04fa0:	0053d39b          	srliw	t2,t2,0x5
    3bc04fa4:	407c8cbb          	subw	s9,s9,t2
    3bc04fa8:	412787bb          	subw	a5,a5,s2
    3bc04fac:	3c0cbc8b          	extu	s9,s9,15,0
    3bc04fb0:	2b85                	addiw	s7,s7,1
    3bc04fb2:	4124893b          	subw	s2,s1,s2
    3bc04fb6:	bbe9                	j	3bc04d90 <LzmaDec_DecodeReal2+0x5e6>
    3bc04fb8:	0052d29b          	srliw	t0,t0,0x5
    3bc04fbc:	405383bb          	subw	t2,t2,t0
    3bc04fc0:	9f85                	subw	a5,a5,s1
    3bc04fc2:	3c03b38b          	extu	t2,t2,15,0
    3bc04fc6:	2b85                	addiw	s7,s7,1
    3bc04fc8:	409904bb          	subw	s1,s2,s1
    3bc04fcc:	b515                	j	3bc04df0 <LzmaDec_DecodeReal2+0x646>
    3bc04fce:	0052d29b          	srliw	t0,t0,0x5
    3bc04fd2:	4059093b          	subw	s2,s2,t0
    3bc04fd6:	407787bb          	subw	a5,a5,t2
    3bc04fda:	3c09390b          	extu	s2,s2,15,0
    3bc04fde:	2b85                	addiw	s7,s7,1
    3bc04fe0:	407483bb          	subw	t2,s1,t2
    3bc04fe4:	b5bd                	j	3bc04e52 <LzmaDec_DecodeReal2+0x6a8>
    3bc04fe6:	0052d29b          	srliw	t0,t0,0x5
    3bc04fea:	405484bb          	subw	s1,s1,t0
    3bc04fee:	412787bb          	subw	a5,a5,s2
    3bc04ff2:	3c04b48b          	extu	s1,s1,15,0
    3bc04ff6:	2b85                	addiw	s7,s7,1
    3bc04ff8:	4123893b          	subw	s2,t2,s2
    3bc04ffc:	bd65                	j	3bc04eb4 <LzmaDec_DecodeReal2+0x70a>
    3bc04ffe:	0052d29b          	srliw	t0,t0,0x5
    3bc05002:	405b0b3b          	subw	s6,s6,t0
    3bc05006:	407787bb          	subw	a5,a5,t2
    3bc0500a:	3c0b3b0b          	extu	s6,s6,15,0
    3bc0500e:	2c85                	addiw	s9,s9,1
    3bc05010:	407903bb          	subw	t2,s2,t2
    3bc05014:	b709                	j	3bc04f16 <LzmaDec_DecodeReal2+0x76c>
    3bc05016:	005ede9b          	srliw	t4,t4,0x5
    3bc0501a:	41db0ebb          	subw	t4,s6,t4
    3bc0501e:	9f91                	subw	a5,a5,a2
    3bc05020:	01d91023          	sh	t4,0(s2)
    3bc05024:	2485                	addiw	s1,s1,1
    3bc05026:	40c3863b          	subw	a2,t2,a2
    3bc0502a:	bea1                	j	3bc04b82 <LzmaDec_DecodeReal2+0x3d8>
    3bc0502c:	0053d39b          	srliw	t2,t2,0x5
    3bc05030:	407b03bb          	subw	t2,s6,t2
    3bc05034:	2175d38b          	srh	t2,a1,s7,0
    3bc05038:	7c08bb8b          	extu	s7,a7,31,0
    3bc0503c:	0bc1                	addi	s7,s7,16
    3bc0503e:	a375cc0b          	lrhu	s8,a1,s7,1
    3bc05042:	409604bb          	subw	s1,a2,s1
    3bc05046:	405787bb          	subw	a5,a5,t0
    3bc0504a:	001b9b13          	slli	s6,s7,0x1
    3bc0504e:	000c039b          	sext.w	t2,s8
    3bc05052:	00d4fa63          	bgeu	s1,a3,3bc05066 <LzmaDec_DecodeReal2+0x8bc>
    3bc05056:	0087929b          	slliw	t0,a5,0x8
    3bc0505a:	9817478b          	lbuia	a5,(a4),1,0
    3bc0505e:	0084949b          	slliw	s1,s1,0x8
    3bc05062:	0057e7b3          	or	a5,a5,t0
    3bc05066:	00b4d29b          	srliw	t0,s1,0xb
    3bc0506a:	0272863b          	mulw	a2,t0,t2
    3bc0506e:	36c7ff63          	bgeu	a5,a2,3bc053ec <LzmaDec_DecodeReal2+0xc42>
    3bc05072:	407403bb          	subw	t2,s0,t2
    3bc05076:	0053d39b          	srliw	t2,t2,0x5
    3bc0507a:	62c6                	ld	t0,80(sp)
    3bc0507c:	018383bb          	addw	t2,t2,s8
    3bc05080:	2375d38b          	srh	t2,a1,s7,1
    3bc05084:	28b1                	addiw	a7,a7,12
    3bc05086:	8b7e                	mv	s6,t6
    3bc05088:	0002d383          	lhu	t2,0(t0)
    3bc0508c:	00038f9b          	sext.w	t6,t2
    3bc05090:	00d67a63          	bgeu	a2,a3,3bc050a4 <LzmaDec_DecodeReal2+0x8fa>
    3bc05094:	9817430b          	lbuia	t1,(a4),1,0
    3bc05098:	0087979b          	slliw	a5,a5,0x8
    3bc0509c:	0086161b          	slliw	a2,a2,0x8
    3bc050a0:	00f367b3          	or	a5,t1,a5
    3bc050a4:	00b6531b          	srliw	t1,a2,0xb
    3bc050a8:	03f304bb          	mulw	s1,t1,t6
    3bc050ac:	8326                	mv	t1,s1
    3bc050ae:	5297f663          	bgeu	a5,s1,3bc055da <LzmaDec_DecodeReal2+0xe30>
    3bc050b2:	41f40fbb          	subw	t6,s0,t6
    3bc050b6:	005fdf9b          	srliw	t6,t6,0x5
    3bc050ba:	7c0ebe8b          	extu	t4,t4,31,0
    3bc050be:	007f8fbb          	addw	t6,t6,t2
    3bc050c2:	01f29023          	sh	t6,0(t0)
    3bc050c6:	03d2928b          	addsl	t0,t0,t4,1
    3bc050ca:	0022de83          	lhu	t4,2(t0)
    3bc050ce:	000e861b          	sext.w	a2,t4
    3bc050d2:	00d4fa63          	bgeu	s1,a3,3bc050e6 <LzmaDec_DecodeReal2+0x93c>
    3bc050d6:	9817430b          	lbuia	t1,(a4),1,0
    3bc050da:	0087979b          	slliw	a5,a5,0x8
    3bc050de:	0084949b          	slliw	s1,s1,0x8
    3bc050e2:	00f367b3          	or	a5,t1,a5
    3bc050e6:	00b4d31b          	srliw	t1,s1,0xb
    3bc050ea:	02c30fbb          	mulw	t6,t1,a2
    3bc050ee:	4bf7f263          	bgeu	a5,t6,3bc05592 <LzmaDec_DecodeReal2+0xde8>
    3bc050f2:	40c4063b          	subw	a2,s0,a2
    3bc050f6:	0056561b          	srliw	a2,a2,0x5
    3bc050fa:	01d60ebb          	addw	t4,a2,t4
    3bc050fe:	3c0ebe8b          	extu	t4,t4,15,0
    3bc05102:	4309                	li	t1,2
    3bc05104:	01d29123          	sh	t4,2(t0)
    3bc05108:	b262c38b          	lurhu	t2,t0,t1,1
    3bc0510c:	7c03390b          	extu	s2,t1,31,0
    3bc05110:	0003861b          	sext.w	a2,t2
    3bc05114:	00dffa63          	bgeu	t6,a3,3bc05128 <LzmaDec_DecodeReal2+0x97e>
    3bc05118:	98174e8b          	lbuia	t4,(a4),1,0
    3bc0511c:	0087979b          	slliw	a5,a5,0x8
    3bc05120:	008f9f9b          	slliw	t6,t6,0x8
    3bc05124:	00fee7b3          	or	a5,t4,a5
    3bc05128:	00bfd49b          	srliw	s1,t6,0xb
    3bc0512c:	02c48ebb          	mulw	t4,s1,a2
    3bc05130:	00131b9b          	slliw	s7,t1,0x1
    3bc05134:	0306                	slli	t1,t1,0x1
    3bc05136:	47d7fa63          	bgeu	a5,t4,3bc055aa <LzmaDec_DecodeReal2+0xe00>
    3bc0513a:	40c4063b          	subw	a2,s0,a2
    3bc0513e:	0056561b          	srliw	a2,a2,0x5
    3bc05142:	007603bb          	addw	t2,a2,t2
    3bc05146:	3c03b38b          	extu	t2,t2,15,0
    3bc0514a:	2322d38b          	srh	t2,t0,s2,1
    3bc0514e:	b262c38b          	lurhu	t2,t0,t1,1
    3bc05152:	7c033b8b          	extu	s7,t1,31,0
    3bc05156:	00038f9b          	sext.w	t6,t2
    3bc0515a:	00def963          	bgeu	t4,a3,3bc0516c <LzmaDec_DecodeReal2+0x9c2>
    3bc0515e:	9817460b          	lbuia	a2,(a4),1,0
    3bc05162:	0087979b          	slliw	a5,a5,0x8
    3bc05166:	008e9e9b          	slliw	t4,t4,0x8
    3bc0516a:	8fd1                	or	a5,a5,a2
    3bc0516c:	00bed91b          	srliw	s2,t4,0xb
    3bc05170:	03f9063b          	mulw	a2,s2,t6
    3bc05174:	0013131b          	slliw	t1,t1,0x1
    3bc05178:	44c7f663          	bgeu	a5,a2,3bc055c4 <LzmaDec_DecodeReal2+0xe1a>
    3bc0517c:	41f40fbb          	subw	t6,s0,t6
    3bc05180:	005fdf9b          	srliw	t6,t6,0x5
    3bc05184:	007f83bb          	addw	t2,t6,t2
    3bc05188:	3c03b38b          	extu	t2,t2,15,0
    3bc0518c:	2372d38b          	srh	t2,t0,s7,1
    3bc05190:	3361                	addiw	t1,t1,-8
    3bc05192:	44ad                	li	s1,11
    3bc05194:	1114f5e3          	bgeu	s1,a7,3bc05a9e <LzmaDec_DecodeReal2+0x12f4>
    3bc05198:	448d                	li	s1,3
    3bc0519a:	8f9a                	mv	t6,t1
    3bc0519c:	0064f363          	bgeu	s1,t1,3bc051a2 <LzmaDec_DecodeReal2+0x9f8>
    3bc051a0:	4f8d                	li	t6,3
    3bc051a2:	006f9f9b          	slliw	t6,t6,0x6
    3bc051a6:	040f8f9b          	addiw	t6,t6,64
    3bc051aa:	7c0fbf8b          	extu	t6,t6,31,0
    3bc051ae:	03f59f8b          	addsl	t6,a1,t6,1
    3bc051b2:	002fd383          	lhu	t2,2(t6)
    3bc051b6:	00038e9b          	sext.w	t4,t2
    3bc051ba:	00d67a63          	bgeu	a2,a3,3bc051ce <LzmaDec_DecodeReal2+0xa24>
    3bc051be:	9817428b          	lbuia	t0,(a4),1,0
    3bc051c2:	0087979b          	slliw	a5,a5,0x8
    3bc051c6:	0086161b          	slliw	a2,a2,0x8
    3bc051ca:	00f2e7b3          	or	a5,t0,a5
    3bc051ce:	00b6549b          	srliw	s1,a2,0xb
    3bc051d2:	03d482bb          	mulw	t0,s1,t4
    3bc051d6:	5e57f763          	bgeu	a5,t0,3bc057c4 <LzmaDec_DecodeReal2+0x101a>
    3bc051da:	41d40ebb          	subw	t4,s0,t4
    3bc051de:	005ede9b          	srliw	t4,t4,0x5
    3bc051e2:	007e83bb          	addw	t2,t4,t2
    3bc051e6:	3c03b38b          	extu	t2,t2,15,0
    3bc051ea:	4609                	li	a2,2
    3bc051ec:	007f9123          	sh	t2,2(t6)
    3bc051f0:	b2cfc48b          	lurhu	s1,t6,a2,1
    3bc051f4:	7c063b8b          	extu	s7,a2,31,0
    3bc051f8:	00048e9b          	sext.w	t4,s1
    3bc051fc:	00d2fa63          	bgeu	t0,a3,3bc05210 <LzmaDec_DecodeReal2+0xa66>
    3bc05200:	9817438b          	lbuia	t2,(a4),1,0
    3bc05204:	0087979b          	slliw	a5,a5,0x8
    3bc05208:	0082929b          	slliw	t0,t0,0x8
    3bc0520c:	00f3e7b3          	or	a5,t2,a5
    3bc05210:	00b2d91b          	srliw	s2,t0,0xb
    3bc05214:	03d903bb          	mulw	t2,s2,t4
    3bc05218:	00161c1b          	slliw	s8,a2,0x1
    3bc0521c:	0606                	slli	a2,a2,0x1
    3bc0521e:	5a77ff63          	bgeu	a5,t2,3bc057dc <LzmaDec_DecodeReal2+0x1032>
    3bc05222:	41d40ebb          	subw	t4,s0,t4
    3bc05226:	005ede9b          	srliw	t4,t4,0x5
    3bc0522a:	009e84bb          	addw	s1,t4,s1
    3bc0522e:	3c04b48b          	extu	s1,s1,15,0
    3bc05232:	237fd48b          	srh	s1,t6,s7,1
    3bc05236:	b2cfc48b          	lurhu	s1,t6,a2,1
    3bc0523a:	7c063c0b          	extu	s8,a2,31,0
    3bc0523e:	00048e9b          	sext.w	t4,s1
    3bc05242:	00d3fa63          	bgeu	t2,a3,3bc05256 <LzmaDec_DecodeReal2+0xaac>
    3bc05246:	9817428b          	lbuia	t0,(a4),1,0
    3bc0524a:	0087979b          	slliw	a5,a5,0x8
    3bc0524e:	0083939b          	slliw	t2,t2,0x8
    3bc05252:	00f2e7b3          	or	a5,t0,a5
    3bc05256:	00b3db9b          	srliw	s7,t2,0xb
    3bc0525a:	03db82bb          	mulw	t0,s7,t4
    3bc0525e:	0016191b          	slliw	s2,a2,0x1
    3bc05262:	5857fa63          	bgeu	a5,t0,3bc057f6 <LzmaDec_DecodeReal2+0x104c>
    3bc05266:	41d40ebb          	subw	t4,s0,t4
    3bc0526a:	005ede9b          	srliw	t4,t4,0x5
    3bc0526e:	009e84bb          	addw	s1,t4,s1
    3bc05272:	3c04b48b          	extu	s1,s1,15,0
    3bc05276:	238fd48b          	srh	s1,t6,s8,1
    3bc0527a:	b32fc38b          	lurhu	t2,t6,s2,1
    3bc0527e:	7c093c0b          	extu	s8,s2,31,0
    3bc05282:	0003861b          	sext.w	a2,t2
    3bc05286:	00d2fa63          	bgeu	t0,a3,3bc0529a <LzmaDec_DecodeReal2+0xaf0>
    3bc0528a:	98174e8b          	lbuia	t4,(a4),1,0
    3bc0528e:	0087979b          	slliw	a5,a5,0x8
    3bc05292:	0082929b          	slliw	t0,t0,0x8
    3bc05296:	00fee7b3          	or	a5,t4,a5
    3bc0529a:	00b2db9b          	srliw	s7,t0,0xb
    3bc0529e:	02cb8ebb          	mulw	t4,s7,a2
    3bc052a2:	0019149b          	slliw	s1,s2,0x1
    3bc052a6:	57d7f463          	bgeu	a5,t4,3bc0580e <LzmaDec_DecodeReal2+0x1064>
    3bc052aa:	40c4063b          	subw	a2,s0,a2
    3bc052ae:	0056561b          	srliw	a2,a2,0x5
    3bc052b2:	007603bb          	addw	t2,a2,t2
    3bc052b6:	3c03b38b          	extu	t2,t2,15,0
    3bc052ba:	238fd38b          	srh	t2,t6,s8,1
    3bc052be:	b29fc28b          	lurhu	t0,t6,s1,1
    3bc052c2:	7c04bc0b          	extu	s8,s1,31,0
    3bc052c6:	0002861b          	sext.w	a2,t0
    3bc052ca:	00defa63          	bgeu	t4,a3,3bc052de <LzmaDec_DecodeReal2+0xb34>
    3bc052ce:	9817438b          	lbuia	t2,(a4),1,0
    3bc052d2:	0087979b          	slliw	a5,a5,0x8
    3bc052d6:	008e9e9b          	slliw	t4,t4,0x8
    3bc052da:	00f3e7b3          	or	a5,t2,a5
    3bc052de:	00bedb9b          	srliw	s7,t4,0xb
    3bc052e2:	02cb83bb          	mulw	t2,s7,a2
    3bc052e6:	0014991b          	slliw	s2,s1,0x1
    3bc052ea:	5277fe63          	bgeu	a5,t2,3bc05826 <LzmaDec_DecodeReal2+0x107c>
    3bc052ee:	40c4063b          	subw	a2,s0,a2
    3bc052f2:	0056561b          	srliw	a2,a2,0x5
    3bc052f6:	005602bb          	addw	t0,a2,t0
    3bc052fa:	3c02b28b          	extu	t0,t0,15,0
    3bc052fe:	238fd28b          	srh	t0,t6,s8,1
    3bc05302:	b32fc48b          	lurhu	s1,t6,s2,1
    3bc05306:	7c093c0b          	extu	s8,s2,31,0
    3bc0530a:	0004829b          	sext.w	t0,s1
    3bc0530e:	00d3f963          	bgeu	t2,a3,3bc05320 <LzmaDec_DecodeReal2+0xb76>
    3bc05312:	9817460b          	lbuia	a2,(a4),1,0
    3bc05316:	0087979b          	slliw	a5,a5,0x8
    3bc0531a:	0083939b          	slliw	t2,t2,0x8
    3bc0531e:	8fd1                	or	a5,a5,a2
    3bc05320:	00b3db9b          	srliw	s7,t2,0xb
    3bc05324:	025b863b          	mulw	a2,s7,t0
    3bc05328:	00191e9b          	slliw	t4,s2,0x1
    3bc0532c:	50c7f963          	bgeu	a5,a2,3bc0583e <LzmaDec_DecodeReal2+0x1094>
    3bc05330:	405402bb          	subw	t0,s0,t0
    3bc05334:	0052d29b          	srliw	t0,t0,0x5
    3bc05338:	009284bb          	addw	s1,t0,s1
    3bc0533c:	3c04b48b          	extu	s1,s1,15,0
    3bc05340:	fc0e8e9b          	addiw	t4,t4,-64
    3bc05344:	238fd48b          	srh	s1,t6,s8,1
    3bc05348:	000e839b          	sext.w	t2,t4
    3bc0534c:	448d                	li	s1,3
    3bc0534e:	0874f063          	bgeu	s1,t2,3bc053ce <LzmaDec_DecodeReal2+0xc24>
    3bc05352:	001eff93          	andi	t6,t4,1
    3bc05356:	44b5                	li	s1,13
    3bc05358:	001ed29b          	srliw	t0,t4,0x1
    3bc0535c:	002fef93          	ori	t6,t6,2
    3bc05360:	5074e963          	bltu	s1,t2,3bc05872 <LzmaDec_DecodeReal2+0x10c8>
    3bc05364:	32fd                	addiw	t0,t0,-1
    3bc05366:	005f9fbb          	sllw	t6,t6,t0
    3bc0536a:	2f85                	addiw	t6,t6,1
    3bc0536c:	4c05                	li	s8,1
    3bc0536e:	020f9493          	slli	s1,t6,0x20
    3bc05372:	01f4db93          	srli	s7,s1,0x1f
    3bc05376:	74fd                	lui	s1,0xfffff
    3bc05378:	30048493          	addi	s1,s1,768 # fffffffffffff300 <__BL2_END__+0xffffffffc43ebef0>
    3bc0537c:	9ba6                	add	s7,s7,s1
    3bc0537e:	a175c48b          	lrhu	s1,a1,s7,0
    3bc05382:	0004839b          	sext.w	t2,s1
    3bc05386:	00d67a63          	bgeu	a2,a3,3bc0539a <LzmaDec_DecodeReal2+0xbf0>
    3bc0538a:	98174e8b          	lbuia	t4,(a4),1,0
    3bc0538e:	0087979b          	slliw	a5,a5,0x8
    3bc05392:	0086161b          	slliw	a2,a2,0x8
    3bc05396:	00fee7b3          	or	a5,t4,a5
    3bc0539a:	00b6591b          	srliw	s2,a2,0xb
    3bc0539e:	02790d3b          	mulw	s10,s2,t2
    3bc053a2:	001c1e9b          	slliw	t4,s8,0x1
    3bc053a6:	4ba7f963          	bgeu	a5,s10,3bc05858 <LzmaDec_DecodeReal2+0x10ae>
    3bc053aa:	407403bb          	subw	t2,s0,t2
    3bc053ae:	0053d39b          	srliw	t2,t2,0x5
    3bc053b2:	009384bb          	addw	s1,t2,s1
    3bc053b6:	3c04b48b          	extu	s1,s1,15,0
    3bc053ba:	018f8fbb          	addw	t6,t6,s8
    3bc053be:	866a                	mv	a2,s10
    3bc053c0:	2175d48b          	srh	s1,a1,s7,0
    3bc053c4:	32fd                	addiw	t0,t0,-1
    3bc053c6:	48029763          	bnez	t0,3bc05854 <LzmaDec_DecodeReal2+0x10aa>
    3bc053ca:	41df83bb          	subw	t2,t6,t4
    3bc053ce:	44c9                	li	s1,18
    3bc053d0:	00138f9b          	addiw	t6,t2,1
    3bc053d4:	6d14f363          	bgeu	s1,a7,3bc05a9a <LzmaDec_DecodeReal2+0x12f0>
    3bc053d8:	48a9                	li	a7,10
    3bc053da:	6ee2                	ld	t4,24(sp)
    3bc053dc:	41de1e8b          	mveqz	t4,t3,t4
    3bc053e0:	73d3e063          	bltu	t2,t4,3bc05b00 <LzmaDec_DecodeReal2+0x1356>
    3bc053e4:	03053423          	sd	a6,40(a0)
    3bc053e8:	c24ff06f          	j	3bc0480c <LzmaDec_DecodeReal2+0x62>
    3bc053ec:	0053d39b          	srliw	t2,t2,0x5
    3bc053f0:	407c03bb          	subw	t2,s8,t2
    3bc053f4:	2375d38b          	srh	t2,a1,s7,1
    3bc053f8:	018b0c13          	addi	s8,s6,24
    3bc053fc:	a185cb8b          	lrhu	s7,a1,s8,0
    3bc05400:	40c48cbb          	subw	s9,s1,a2
    3bc05404:	9f91                	subw	a5,a5,a2
    3bc05406:	000b839b          	sext.w	t2,s7
    3bc0540a:	00dcfa63          	bgeu	s9,a3,3bc0541e <LzmaDec_DecodeReal2+0xc74>
    3bc0540e:	0087929b          	slliw	t0,a5,0x8
    3bc05412:	9817478b          	lbuia	a5,(a4),1,0
    3bc05416:	008c9c9b          	slliw	s9,s9,0x8
    3bc0541a:	0057e7b3          	or	a5,a5,t0
    3bc0541e:	00bcd61b          	srliw	a2,s9,0xb
    3bc05422:	027602bb          	mulw	t0,a2,t2
    3bc05426:	8616                	mv	a2,t0
    3bc05428:	0a57f463          	bgeu	a5,t0,3bc054d0 <LzmaDec_DecodeReal2+0xd26>
    3bc0542c:	407403bb          	subw	t2,s0,t2
    3bc05430:	0053d39b          	srliw	t2,t2,0x5
    3bc05434:	74fd                	lui	s1,0xfffff
    3bc05436:	017383bb          	addw	t2,t2,s7
    3bc0543a:	40048493          	addi	s1,s1,1024 # fffffffffffff400 <__BL2_END__+0xffffffffc43ebff0>
    3bc0543e:	2185d38b          	srh	t2,a1,s8,0
    3bc05442:	9926                	add	s2,s2,s1
    3bc05444:	a125c48b          	lrhu	s1,a1,s2,0
    3bc05448:	0004839b          	sext.w	t2,s1
    3bc0544c:	00d2f963          	bgeu	t0,a3,3bc0545e <LzmaDec_DecodeReal2+0xcb4>
    3bc05450:	9817460b          	lbuia	a2,(a4),1,0
    3bc05454:	0087979b          	slliw	a5,a5,0x8
    3bc05458:	0082929b          	slliw	t0,t0,0x8
    3bc0545c:	8fd1                	or	a5,a5,a2
    3bc0545e:	00b2db1b          	srliw	s6,t0,0xb
    3bc05462:	027b063b          	mulw	a2,s6,t2
    3bc05466:	8b32                	mv	s6,a2
    3bc05468:	02c7ff63          	bgeu	a5,a2,3bc054a6 <LzmaDec_DecodeReal2+0xcfc>
    3bc0546c:	407403bb          	subw	t2,s0,t2
    3bc05470:	0053d39b          	srliw	t2,t2,0x5
    3bc05474:	009383bb          	addw	t2,t2,s1
    3bc05478:	2125d38b          	srh	t2,a1,s2,0
    3bc0547c:	7c0fb38b          	extu	t2,t6,31,0
    3bc05480:	40780eb3          	sub	t4,a6,t2
    3bc05484:	82d6                	mv	t0,s5
    3bc05486:	00786363          	bltu	a6,t2,3bc0548c <LzmaDec_DecodeReal2+0xce2>
    3bc0548a:	4281                	li	t0,0
    3bc0548c:	9ed2                	add	t4,t4,s4
    3bc0548e:	805ece8b          	lrbu	t4,t4,t0,0
    3bc05492:	2e05                	addiw	t3,t3,1
    3bc05494:	010a5e8b          	srb	t4,s4,a6,0
    3bc05498:	4e99                	li	t4,6
    3bc0549a:	0805                	addi	a6,a6,1
    3bc0549c:	691ef963          	bgeu	t4,a7,3bc05b2e <LzmaDec_DecodeReal2+0x1384>
    3bc054a0:	48ad                	li	a7,11
    3bc054a2:	ee6ff06f          	j	3bc04b88 <LzmaDec_DecodeReal2+0x3de>
    3bc054a6:	0053d39b          	srliw	t2,t2,0x5
    3bc054aa:	837a                	mv	t1,t5
    3bc054ac:	407483bb          	subw	t2,s1,t2
    3bc054b0:	8f7e                	mv	t5,t6
    3bc054b2:	40c2863b          	subw	a2,t0,a2
    3bc054b6:	416787bb          	subw	a5,a5,s6
    3bc054ba:	2125d38b          	srh	t2,a1,s2,0
    3bc054be:	8f9a                	mv	t6,t1
    3bc054c0:	4319                	li	t1,6
    3bc054c2:	0d137663          	bgeu	t1,a7,3bc0558e <LzmaDec_DecodeReal2+0xde4>
    3bc054c6:	48ad                	li	a7,11
    3bc054c8:	8b7a                	mv	s6,t5
    3bc054ca:	62a6                	ld	t0,72(sp)
    3bc054cc:	8f7e                	mv	t5,t6
    3bc054ce:	be6d                	j	3bc05088 <LzmaDec_DecodeReal2+0x8de>
    3bc054d0:	0053d39b          	srliw	t2,t2,0x5
    3bc054d4:	407b83bb          	subw	t2,s7,t2
    3bc054d8:	2185d38b          	srh	t2,a1,s8,0
    3bc054dc:	030b0493          	addi	s1,s6,48
    3bc054e0:	a095c38b          	lrhu	t2,a1,s1,0
    3bc054e4:	405c82bb          	subw	t0,s9,t0
    3bc054e8:	9f91                	subw	a5,a5,a2
    3bc054ea:	0003831b          	sext.w	t1,t2
    3bc054ee:	00d2f963          	bgeu	t0,a3,3bc05500 <LzmaDec_DecodeReal2+0xd56>
    3bc054f2:	0087961b          	slliw	a2,a5,0x8
    3bc054f6:	9817478b          	lbuia	a5,(a4),1,0
    3bc054fa:	0082929b          	slliw	t0,t0,0x8
    3bc054fe:	8fd1                	or	a5,a5,a2
    3bc05500:	00b2d91b          	srliw	s2,t0,0xb
    3bc05504:	0269063b          	mulw	a2,s2,t1
    3bc05508:	00c7fb63          	bgeu	a5,a2,3bc0551e <LzmaDec_DecodeReal2+0xd74>
    3bc0550c:	4064033b          	subw	t1,s0,t1
    3bc05510:	0053531b          	srliw	t1,t1,0x5
    3bc05514:	0073033b          	addw	t1,t1,t2
    3bc05518:	2095d30b          	srh	t1,a1,s1,0
    3bc0551c:	b755                	j	3bc054c0 <LzmaDec_DecodeReal2+0xd16>
    3bc0551e:	0053531b          	srliw	t1,t1,0x5
    3bc05522:	4063833b          	subw	t1,t2,t1
    3bc05526:	2095d30b          	srh	t1,a1,s1,0
    3bc0552a:	048b0b13          	addi	s6,s6,72
    3bc0552e:	a165c38b          	lrhu	t2,a1,s6,0
    3bc05532:	40c28bbb          	subw	s7,t0,a2
    3bc05536:	9f91                	subw	a5,a5,a2
    3bc05538:	0003831b          	sext.w	t1,t2
    3bc0553c:	00dbfa63          	bgeu	s7,a3,3bc05550 <LzmaDec_DecodeReal2+0xda6>
    3bc05540:	0087991b          	slliw	s2,a5,0x8
    3bc05544:	9817478b          	lbuia	a5,(a4),1,0
    3bc05548:	008b9b9b          	slliw	s7,s7,0x8
    3bc0554c:	0127e7b3          	or	a5,a5,s2
    3bc05550:	00bbd29b          	srliw	t0,s7,0xb
    3bc05554:	0262863b          	mulw	a2,t0,t1
    3bc05558:	00c7fe63          	bgeu	a5,a2,3bc05574 <LzmaDec_DecodeReal2+0xdca>
    3bc0555c:	4064033b          	subw	t1,s0,t1
    3bc05560:	0053531b          	srliw	t1,t1,0x5
    3bc05564:	0073033b          	addw	t1,t1,t2
    3bc05568:	2165d30b          	srh	t1,a1,s6,0
    3bc0556c:	837a                	mv	t1,t5
    3bc0556e:	8f4e                	mv	t5,s3
    3bc05570:	899a                	mv	s3,t1
    3bc05572:	b7b9                	j	3bc054c0 <LzmaDec_DecodeReal2+0xd16>
    3bc05574:	0053531b          	srliw	t1,t1,0x5
    3bc05578:	4063833b          	subw	t1,t2,t1
    3bc0557c:	9f91                	subw	a5,a5,a2
    3bc0557e:	2165d30b          	srh	t1,a1,s6,0
    3bc05582:	40cb863b          	subw	a2,s7,a2
    3bc05586:	837a                	mv	t1,t5
    3bc05588:	7f02                	ld	t5,32(sp)
    3bc0558a:	f04e                	sd	s3,32(sp)
    3bc0558c:	b7d5                	j	3bc05570 <LzmaDec_DecodeReal2+0xdc6>
    3bc0558e:	48a1                	li	a7,8
    3bc05590:	bf25                	j	3bc054c8 <LzmaDec_DecodeReal2+0xd1e>
    3bc05592:	0056561b          	srliw	a2,a2,0x5
    3bc05596:	40ce8ebb          	subw	t4,t4,a2
    3bc0559a:	41f787bb          	subw	a5,a5,t6
    3bc0559e:	3c0ebe8b          	extu	t4,t4,15,0
    3bc055a2:	41f48fbb          	subw	t6,s1,t6
    3bc055a6:	430d                	li	t1,3
    3bc055a8:	beb1                	j	3bc05104 <LzmaDec_DecodeReal2+0x95a>
    3bc055aa:	0056561b          	srliw	a2,a2,0x5
    3bc055ae:	40c383bb          	subw	t2,t2,a2
    3bc055b2:	41d787bb          	subw	a5,a5,t4
    3bc055b6:	3c03b38b          	extu	t2,t2,15,0
    3bc055ba:	001b831b          	addiw	t1,s7,1
    3bc055be:	41df8ebb          	subw	t4,t6,t4
    3bc055c2:	b661                	j	3bc0514a <LzmaDec_DecodeReal2+0x9a0>
    3bc055c4:	005fdf9b          	srliw	t6,t6,0x5
    3bc055c8:	41f383bb          	subw	t2,t2,t6
    3bc055cc:	9f91                	subw	a5,a5,a2
    3bc055ce:	3c03b38b          	extu	t2,t2,15,0
    3bc055d2:	2305                	addiw	t1,t1,1
    3bc055d4:	40ce863b          	subw	a2,t4,a2
    3bc055d8:	be55                	j	3bc0518c <LzmaDec_DecodeReal2+0x9e2>
    3bc055da:	005fdf9b          	srliw	t6,t6,0x5
    3bc055de:	41f38fbb          	subw	t6,t2,t6
    3bc055e2:	0102d383          	lhu	t2,16(t0)
    3bc055e6:	01f29023          	sh	t6,0(t0)
    3bc055ea:	9e05                	subw	a2,a2,s1
    3bc055ec:	406787bb          	subw	a5,a5,t1
    3bc055f0:	00038f9b          	sext.w	t6,t2
    3bc055f4:	00d67a63          	bgeu	a2,a3,3bc05608 <LzmaDec_DecodeReal2+0xe5e>
    3bc055f8:	0087931b          	slliw	t1,a5,0x8
    3bc055fc:	9817478b          	lbuia	a5,(a4),1,0
    3bc05600:	0086161b          	slliw	a2,a2,0x8
    3bc05604:	0067e7b3          	or	a5,a5,t1
    3bc05608:	00b6531b          	srliw	t1,a2,0xb
    3bc0560c:	03f304bb          	mulw	s1,t1,t6
    3bc05610:	1297f563          	bgeu	a5,s1,3bc0573a <LzmaDec_DecodeReal2+0xf90>
    3bc05614:	41f40fbb          	subw	t6,s0,t6
    3bc05618:	005fdf9b          	srliw	t6,t6,0x5
    3bc0561c:	7c0ebe8b          	extu	t4,t4,31,0
    3bc05620:	007f8fbb          	addw	t6,t6,t2
    3bc05624:	0ea1                	addi	t4,t4,8
    3bc05626:	01f29823          	sh	t6,16(t0)
    3bc0562a:	03d2928b          	addsl	t0,t0,t4,1
    3bc0562e:	0022df83          	lhu	t6,2(t0)
    3bc05632:	000f861b          	sext.w	a2,t6
    3bc05636:	00d4fa63          	bgeu	s1,a3,3bc0564a <LzmaDec_DecodeReal2+0xea0>
    3bc0563a:	9817430b          	lbuia	t1,(a4),1,0
    3bc0563e:	0087979b          	slliw	a5,a5,0x8
    3bc05642:	0084949b          	slliw	s1,s1,0x8
    3bc05646:	00f367b3          	or	a5,t1,a5
    3bc0564a:	00b4d31b          	srliw	t1,s1,0xb
    3bc0564e:	02c30ebb          	mulw	t4,t1,a2
    3bc05652:	0bd7f063          	bgeu	a5,t4,3bc056f2 <LzmaDec_DecodeReal2+0xf48>
    3bc05656:	40c4063b          	subw	a2,s0,a2
    3bc0565a:	0056561b          	srliw	a2,a2,0x5
    3bc0565e:	01f60fbb          	addw	t6,a2,t6
    3bc05662:	3c0fbf8b          	extu	t6,t6,15,0
    3bc05666:	4309                	li	t1,2
    3bc05668:	01f29123          	sh	t6,2(t0)
    3bc0566c:	b262c38b          	lurhu	t2,t0,t1,1
    3bc05670:	7c03390b          	extu	s2,t1,31,0
    3bc05674:	0003861b          	sext.w	a2,t2
    3bc05678:	00defa63          	bgeu	t4,a3,3bc0568c <LzmaDec_DecodeReal2+0xee2>
    3bc0567c:	98174f8b          	lbuia	t6,(a4),1,0
    3bc05680:	0087979b          	slliw	a5,a5,0x8
    3bc05684:	008e9e9b          	slliw	t4,t4,0x8
    3bc05688:	00ffe7b3          	or	a5,t6,a5
    3bc0568c:	00bed49b          	srliw	s1,t4,0xb
    3bc05690:	02c48fbb          	mulw	t6,s1,a2
    3bc05694:	00131b9b          	slliw	s7,t1,0x1
    3bc05698:	0306                	slli	t1,t1,0x1
    3bc0569a:	07f7f863          	bgeu	a5,t6,3bc0570a <LzmaDec_DecodeReal2+0xf60>
    3bc0569e:	40c4063b          	subw	a2,s0,a2
    3bc056a2:	0056561b          	srliw	a2,a2,0x5
    3bc056a6:	007603bb          	addw	t2,a2,t2
    3bc056aa:	3c03b38b          	extu	t2,t2,15,0
    3bc056ae:	2322d38b          	srh	t2,t0,s2,1
    3bc056b2:	b262c48b          	lurhu	s1,t0,t1,1
    3bc056b6:	7c03390b          	extu	s2,t1,31,0
    3bc056ba:	00048e9b          	sext.w	t4,s1
    3bc056be:	00dff963          	bgeu	t6,a3,3bc056d0 <LzmaDec_DecodeReal2+0xf26>
    3bc056c2:	9817460b          	lbuia	a2,(a4),1,0
    3bc056c6:	0087979b          	slliw	a5,a5,0x8
    3bc056ca:	008f9f9b          	slliw	t6,t6,0x8
    3bc056ce:	8fd1                	or	a5,a5,a2
    3bc056d0:	00bfd39b          	srliw	t2,t6,0xb
    3bc056d4:	03d3863b          	mulw	a2,t2,t4
    3bc056d8:	0013131b          	slliw	t1,t1,0x1
    3bc056dc:	04c7f463          	bgeu	a5,a2,3bc05724 <LzmaDec_DecodeReal2+0xf7a>
    3bc056e0:	41d40ebb          	subw	t4,s0,t4
    3bc056e4:	005ede9b          	srliw	t4,t4,0x5
    3bc056e8:	009e8ebb          	addw	t4,t4,s1
    3bc056ec:	2322de8b          	srh	t4,t0,s2,1
    3bc056f0:	b44d                	j	3bc05192 <LzmaDec_DecodeReal2+0x9e8>
    3bc056f2:	0056561b          	srliw	a2,a2,0x5
    3bc056f6:	40cf8fbb          	subw	t6,t6,a2
    3bc056fa:	41d787bb          	subw	a5,a5,t4
    3bc056fe:	3c0fbf8b          	extu	t6,t6,15,0
    3bc05702:	41d48ebb          	subw	t4,s1,t4
    3bc05706:	430d                	li	t1,3
    3bc05708:	b785                	j	3bc05668 <LzmaDec_DecodeReal2+0xebe>
    3bc0570a:	0056561b          	srliw	a2,a2,0x5
    3bc0570e:	40c383bb          	subw	t2,t2,a2
    3bc05712:	41f787bb          	subw	a5,a5,t6
    3bc05716:	3c03b38b          	extu	t2,t2,15,0
    3bc0571a:	001b831b          	addiw	t1,s7,1
    3bc0571e:	41fe8fbb          	subw	t6,t4,t6
    3bc05722:	b771                	j	3bc056ae <LzmaDec_DecodeReal2+0xf04>
    3bc05724:	005ede9b          	srliw	t4,t4,0x5
    3bc05728:	41d48ebb          	subw	t4,s1,t4
    3bc0572c:	9f91                	subw	a5,a5,a2
    3bc0572e:	2322de8b          	srh	t4,t0,s2,1
    3bc05732:	2305                	addiw	t1,t1,1
    3bc05734:	40cf863b          	subw	a2,t6,a2
    3bc05738:	bca9                	j	3bc05192 <LzmaDec_DecodeReal2+0x9e8>
    3bc0573a:	005fdf9b          	srliw	t6,t6,0x5
    3bc0573e:	41f38fbb          	subw	t6,t2,t6
    3bc05742:	9e05                	subw	a2,a2,s1
    3bc05744:	9f85                	subw	a5,a5,s1
    3bc05746:	01f29823          	sh	t6,16(t0)
    3bc0574a:	4305                	li	t1,1
    3bc0574c:	0ff00b93          	li	s7,255
    3bc05750:	02031493          	slli	s1,t1,0x20
    3bc05754:	01f4de93          	srli	t4,s1,0x1f
    3bc05758:	200e8e93          	addi	t4,t4,512
    3bc0575c:	a1d2cf8b          	lrhu	t6,t0,t4,0
    3bc05760:	01d28c33          	add	s8,t0,t4
    3bc05764:	000f8e9b          	sext.w	t4,t6
    3bc05768:	00d67a63          	bgeu	a2,a3,3bc0577c <LzmaDec_DecodeReal2+0xfd2>
    3bc0576c:	9817438b          	lbuia	t2,(a4),1,0
    3bc05770:	0087979b          	slliw	a5,a5,0x8
    3bc05774:	0086161b          	slliw	a2,a2,0x8
    3bc05778:	00f3e7b3          	or	a5,t2,a5
    3bc0577c:	00b6539b          	srliw	t2,a2,0xb
    3bc05780:	03d3893b          	mulw	s2,t2,t4
    3bc05784:	0013131b          	slliw	t1,t1,0x1
    3bc05788:	0327f263          	bgeu	a5,s2,3bc057ac <LzmaDec_DecodeReal2+0x1002>
    3bc0578c:	41d40ebb          	subw	t4,s0,t4
    3bc05790:	005ede9b          	srliw	t4,t4,0x5
    3bc05794:	01fe8fbb          	addw	t6,t4,t6
    3bc05798:	3c0fbf8b          	extu	t6,t6,15,0
    3bc0579c:	864a                	mv	a2,s2
    3bc0579e:	01fc1023          	sh	t6,0(s8)
    3bc057a2:	fa6bf7e3          	bgeu	s7,t1,3bc05750 <LzmaDec_DecodeReal2+0xfa6>
    3bc057a6:	f103031b          	addiw	t1,t1,-240
    3bc057aa:	b2e5                	j	3bc05192 <LzmaDec_DecodeReal2+0x9e8>
    3bc057ac:	005ede9b          	srliw	t4,t4,0x5
    3bc057b0:	41df8fbb          	subw	t6,t6,t4
    3bc057b4:	4126063b          	subw	a2,a2,s2
    3bc057b8:	412787bb          	subw	a5,a5,s2
    3bc057bc:	3c0fbf8b          	extu	t6,t6,15,0
    3bc057c0:	2305                	addiw	t1,t1,1
    3bc057c2:	bff1                	j	3bc0579e <LzmaDec_DecodeReal2+0xff4>
    3bc057c4:	005ede9b          	srliw	t4,t4,0x5
    3bc057c8:	41d383bb          	subw	t2,t2,t4
    3bc057cc:	405787bb          	subw	a5,a5,t0
    3bc057d0:	3c03b38b          	extu	t2,t2,15,0
    3bc057d4:	405602bb          	subw	t0,a2,t0
    3bc057d8:	460d                	li	a2,3
    3bc057da:	bc09                	j	3bc051ec <LzmaDec_DecodeReal2+0xa42>
    3bc057dc:	005ede9b          	srliw	t4,t4,0x5
    3bc057e0:	41d484bb          	subw	s1,s1,t4
    3bc057e4:	407787bb          	subw	a5,a5,t2
    3bc057e8:	3c04b48b          	extu	s1,s1,15,0
    3bc057ec:	001c061b          	addiw	a2,s8,1
    3bc057f0:	407283bb          	subw	t2,t0,t2
    3bc057f4:	bc3d                	j	3bc05232 <LzmaDec_DecodeReal2+0xa88>
    3bc057f6:	005ede9b          	srliw	t4,t4,0x5
    3bc057fa:	41d484bb          	subw	s1,s1,t4
    3bc057fe:	405787bb          	subw	a5,a5,t0
    3bc05802:	3c04b48b          	extu	s1,s1,15,0
    3bc05806:	2905                	addiw	s2,s2,1
    3bc05808:	405382bb          	subw	t0,t2,t0
    3bc0580c:	b4ad                	j	3bc05276 <LzmaDec_DecodeReal2+0xacc>
    3bc0580e:	0056561b          	srliw	a2,a2,0x5
    3bc05812:	40c383bb          	subw	t2,t2,a2
    3bc05816:	41d787bb          	subw	a5,a5,t4
    3bc0581a:	3c03b38b          	extu	t2,t2,15,0
    3bc0581e:	2485                	addiw	s1,s1,1
    3bc05820:	41d28ebb          	subw	t4,t0,t4
    3bc05824:	bc59                	j	3bc052ba <LzmaDec_DecodeReal2+0xb10>
    3bc05826:	0056561b          	srliw	a2,a2,0x5
    3bc0582a:	40c282bb          	subw	t0,t0,a2
    3bc0582e:	407787bb          	subw	a5,a5,t2
    3bc05832:	3c02b28b          	extu	t0,t0,15,0
    3bc05836:	2905                	addiw	s2,s2,1
    3bc05838:	407e83bb          	subw	t2,t4,t2
    3bc0583c:	b4c9                	j	3bc052fe <LzmaDec_DecodeReal2+0xb54>
    3bc0583e:	0052d29b          	srliw	t0,t0,0x5
    3bc05842:	405484bb          	subw	s1,s1,t0
    3bc05846:	9f91                	subw	a5,a5,a2
    3bc05848:	3c04b48b          	extu	s1,s1,15,0
    3bc0584c:	2e85                	addiw	t4,t4,1
    3bc0584e:	40c3863b          	subw	a2,t2,a2
    3bc05852:	b4fd                	j	3bc05340 <LzmaDec_DecodeReal2+0xb96>
    3bc05854:	8c76                	mv	s8,t4
    3bc05856:	be21                	j	3bc0536e <LzmaDec_DecodeReal2+0xbc4>
    3bc05858:	0053d39b          	srliw	t2,t2,0x5
    3bc0585c:	407484bb          	subw	s1,s1,t2
    3bc05860:	41a6063b          	subw	a2,a2,s10
    3bc05864:	41a787bb          	subw	a5,a5,s10
    3bc05868:	3c04b48b          	extu	s1,s1,15,0
    3bc0586c:	01fe8fbb          	addw	t6,t4,t6
    3bc05870:	be81                	j	3bc053c0 <LzmaDec_DecodeReal2+0xc16>
    3bc05872:	32ed                	addiw	t0,t0,-5
    3bc05874:	00d67a63          	bgeu	a2,a3,3bc05888 <LzmaDec_DecodeReal2+0x10de>
    3bc05878:	98174e8b          	lbuia	t4,(a4),1,0
    3bc0587c:	0087979b          	slliw	a5,a5,0x8
    3bc05880:	0086161b          	slliw	a2,a2,0x8
    3bc05884:	00fee7b3          	or	a5,t4,a5
    3bc05888:	0016539b          	srliw	t2,a2,0x1
    3bc0588c:	407787bb          	subw	a5,a5,t2
    3bc05890:	41f7d49b          	sraiw	s1,a5,0x1f
    3bc05894:	001f9f9b          	slliw	t6,t6,0x1
    3bc05898:	0003861b          	sext.w	a2,t2
    3bc0589c:	2f85                	addiw	t6,t6,1
    3bc0589e:	0093f3b3          	and	t2,t2,s1
    3bc058a2:	32fd                	addiw	t0,t0,-1
    3bc058a4:	01f48fbb          	addw	t6,s1,t6
    3bc058a8:	007787bb          	addw	a5,a5,t2
    3bc058ac:	fc0294e3          	bnez	t0,3bc05874 <LzmaDec_DecodeReal2+0x10ca>
    3bc058b0:	0025d283          	lhu	t0,2(a1)
    3bc058b4:	004f9f9b          	slliw	t6,t6,0x4
    3bc058b8:	00028e9b          	sext.w	t4,t0
    3bc058bc:	00d67a63          	bgeu	a2,a3,3bc058d0 <LzmaDec_DecodeReal2+0x1126>
    3bc058c0:	9817438b          	lbuia	t2,(a4),1,0
    3bc058c4:	0087979b          	slliw	a5,a5,0x8
    3bc058c8:	0086161b          	slliw	a2,a2,0x8
    3bc058cc:	00f3e7b3          	or	a5,t2,a5
    3bc058d0:	00b6549b          	srliw	s1,a2,0xb
    3bc058d4:	03d483bb          	mulw	t2,s1,t4
    3bc058d8:	1677f463          	bgeu	a5,t2,3bc05a40 <LzmaDec_DecodeReal2+0x1296>
    3bc058dc:	41d40ebb          	subw	t4,s0,t4
    3bc058e0:	005ede9b          	srliw	t4,t4,0x5
    3bc058e4:	005e82bb          	addw	t0,t4,t0
    3bc058e8:	3c02b28b          	extu	t0,t0,15,0
    3bc058ec:	4e89                	li	t4,2
    3bc058ee:	00559123          	sh	t0,2(a1)
    3bc058f2:	b3d5c48b          	lurhu	s1,a1,t4,1
    3bc058f6:	7c0ebb8b          	extu	s7,t4,31,0
    3bc058fa:	0004861b          	sext.w	a2,s1
    3bc058fe:	00d3fa63          	bgeu	t2,a3,3bc05912 <LzmaDec_DecodeReal2+0x1168>
    3bc05902:	9817428b          	lbuia	t0,(a4),1,0
    3bc05906:	0087979b          	slliw	a5,a5,0x8
    3bc0590a:	0083939b          	slliw	t2,t2,0x8
    3bc0590e:	00f2e7b3          	or	a5,t0,a5
    3bc05912:	00b3d91b          	srliw	s2,t2,0xb
    3bc05916:	02c902bb          	mulw	t0,s2,a2
    3bc0591a:	1257ff63          	bgeu	a5,t0,3bc05a58 <LzmaDec_DecodeReal2+0x12ae>
    3bc0591e:	40c4063b          	subw	a2,s0,a2
    3bc05922:	0056561b          	srliw	a2,a2,0x5
    3bc05926:	9cb1                	addw	s1,s1,a2
    3bc05928:	3c04b48b          	extu	s1,s1,15,0
    3bc0592c:	0e89                	addi	t4,t4,2
    3bc0592e:	2375d48b          	srh	s1,a1,s7,1
    3bc05932:	b3d5cb8b          	lurhu	s7,a1,t4,1
    3bc05936:	7c0eb90b          	extu	s2,t4,31,0
    3bc0593a:	000b861b          	sext.w	a2,s7
    3bc0593e:	00d2fa63          	bgeu	t0,a3,3bc05952 <LzmaDec_DecodeReal2+0x11a8>
    3bc05942:	9817438b          	lbuia	t2,(a4),1,0
    3bc05946:	0087979b          	slliw	a5,a5,0x8
    3bc0594a:	0082929b          	slliw	t0,t0,0x8
    3bc0594e:	00f3e7b3          	or	a5,t2,a5
    3bc05952:	00b2d49b          	srliw	s1,t0,0xb
    3bc05956:	02c483bb          	mulw	t2,s1,a2
    3bc0595a:	1077fa63          	bgeu	a5,t2,3bc05a6e <LzmaDec_DecodeReal2+0x12c4>
    3bc0595e:	40c4063b          	subw	a2,s0,a2
    3bc05962:	0056561b          	srliw	a2,a2,0x5
    3bc05966:	01760bbb          	addw	s7,a2,s7
    3bc0596a:	3c0bbb8b          	extu	s7,s7,15,0
    3bc0596e:	2e91                	addiw	t4,t4,4
    3bc05970:	2325db8b          	srh	s7,a1,s2,1
    3bc05974:	b3d5c48b          	lurhu	s1,a1,t4,1
    3bc05978:	7c0ebb8b          	extu	s7,t4,31,0
    3bc0597c:	0004829b          	sext.w	t0,s1
    3bc05980:	00d3f963          	bgeu	t2,a3,3bc05992 <LzmaDec_DecodeReal2+0x11e8>
    3bc05984:	9817460b          	lbuia	a2,(a4),1,0
    3bc05988:	0087979b          	slliw	a5,a5,0x8
    3bc0598c:	0083939b          	slliw	t2,t2,0x8
    3bc05990:	8fd1                	or	a5,a5,a2
    3bc05992:	00b3d91b          	srliw	s2,t2,0xb
    3bc05996:	0259063b          	mulw	a2,s2,t0
    3bc0599a:	0ec7f663          	bgeu	a5,a2,3bc05a86 <LzmaDec_DecodeReal2+0x12dc>
    3bc0599e:	405402bb          	subw	t0,s0,t0
    3bc059a2:	0052d29b          	srliw	t0,t0,0x5
    3bc059a6:	009284bb          	addw	s1,t0,s1
    3bc059aa:	3c04b48b          	extu	s1,s1,15,0
    3bc059ae:	3ee1                	addiw	t4,t4,-8
    3bc059b0:	01feefb3          	or	t6,t4,t6
    3bc059b4:	2375d48b          	srh	s1,a1,s7,1
    3bc059b8:	000f839b          	sext.w	t2,t6
    3bc059bc:	54fd                	li	s1,-1
    3bc059be:	a09398e3          	bne	t2,s1,3bc053ce <LzmaDec_DecodeReal2+0xc24>
    3bc059c2:	38d1                	addiw	a7,a7,-12
    3bc059c4:	8fda                	mv	t6,s6
    3bc059c6:	11200313          	li	t1,274
    3bc059ca:	010006b7          	lui	a3,0x1000
    3bc059ce:	00d67963          	bgeu	a2,a3,3bc059e0 <LzmaDec_DecodeReal2+0x1236>
    3bc059d2:	9817468b          	lbuia	a3,(a4),1,0
    3bc059d6:	0087979b          	slliw	a5,a5,0x8
    3bc059da:	0086161b          	slliw	a2,a2,0x8
    3bc059de:	8fd5                	or	a5,a5,a3
    3bc059e0:	dd5c                	sw	a5,60(a0)
    3bc059e2:	7782                	ld	a5,32(sp)
    3bc059e4:	f918                	sd	a4,48(a0)
    3bc059e6:	dd10                	sw	a2,56(a0)
    3bc059e8:	c97c                	sw	a5,84(a0)
    3bc059ea:	417c                	lw	a5,68(a0)
    3bc059ec:	04652e23          	sw	t1,92(a0)
    3bc059f0:	03053423          	sd	a6,40(a0)
    3bc059f4:	05c52023          	sw	t3,64(a0)
    3bc059f8:	05f52423          	sw	t6,72(a0)
    3bc059fc:	05e52623          	sw	t5,76(a0)
    3bc05a00:	05352823          	sw	s3,80(a0)
    3bc05a04:	05152c23          	sw	a7,88(a0)
    3bc05a08:	e789                	bnez	a5,3bc05a12 <LzmaDec_DecodeReal2+0x1268>
    3bc05a0a:	415c                	lw	a5,4(a0)
    3bc05a0c:	00fe6363          	bltu	t3,a5,3bc05a12 <LzmaDec_DecodeReal2+0x1268>
    3bc05a10:	c17c                	sw	a5,68(a0)
    3bc05a12:	65c2                	ld	a1,16(sp)
    3bc05a14:	e42a                	sd	a0,8(sp)
    3bc05a16:	d23fe0ef          	jal	ra,3bc04738 <LzmaDec_WriteRem>
    3bc05a1a:	6522                	ld	a0,8(sp)
    3bc05a1c:	6742                	ld	a4,16(sp)
    3bc05a1e:	751c                	ld	a5,40(a0)
    3bc05a20:	00e7fd63          	bgeu	a5,a4,3bc05a3a <LzmaDec_DecodeReal2+0x1290>
    3bc05a24:	791c                	ld	a5,48(a0)
    3bc05a26:	7742                	ld	a4,48(sp)
    3bc05a28:	00e7f963          	bgeu	a5,a4,3bc05a3a <LzmaDec_DecodeReal2+0x1290>
    3bc05a2c:	4d78                	lw	a4,92(a0)
    3bc05a2e:	11100793          	li	a5,273
    3bc05a32:	00e7e463          	bltu	a5,a4,3bc05a3a <LzmaDec_DecodeReal2+0x1290>
    3bc05a36:	d9bfe06f          	j	3bc047d0 <LzmaDec_DecodeReal2+0x26>
    3bc05a3a:	4501                	li	a0,0
    3bc05a3c:	dd3fe06f          	j	3bc0480e <LzmaDec_DecodeReal2+0x64>
    3bc05a40:	005ede9b          	srliw	t4,t4,0x5
    3bc05a44:	41d282bb          	subw	t0,t0,t4
    3bc05a48:	407787bb          	subw	a5,a5,t2
    3bc05a4c:	3c02b28b          	extu	t0,t0,15,0
    3bc05a50:	407603bb          	subw	t2,a2,t2
    3bc05a54:	4e8d                	li	t4,3
    3bc05a56:	bd61                	j	3bc058ee <LzmaDec_DecodeReal2+0x1144>
    3bc05a58:	0056561b          	srliw	a2,a2,0x5
    3bc05a5c:	9c91                	subw	s1,s1,a2
    3bc05a5e:	405787bb          	subw	a5,a5,t0
    3bc05a62:	3c04b48b          	extu	s1,s1,15,0
    3bc05a66:	0e91                	addi	t4,t4,4
    3bc05a68:	405382bb          	subw	t0,t2,t0
    3bc05a6c:	b5c9                	j	3bc0592e <LzmaDec_DecodeReal2+0x1184>
    3bc05a6e:	0056561b          	srliw	a2,a2,0x5
    3bc05a72:	40cb8bbb          	subw	s7,s7,a2
    3bc05a76:	407787bb          	subw	a5,a5,t2
    3bc05a7a:	3c0bbb8b          	extu	s7,s7,15,0
    3bc05a7e:	2ea1                	addiw	t4,t4,8
    3bc05a80:	407283bb          	subw	t2,t0,t2
    3bc05a84:	b5f5                	j	3bc05970 <LzmaDec_DecodeReal2+0x11c6>
    3bc05a86:	0052d29b          	srliw	t0,t0,0x5
    3bc05a8a:	405484bb          	subw	s1,s1,t0
    3bc05a8e:	9f91                	subw	a5,a5,a2
    3bc05a90:	3c04b48b          	extu	s1,s1,15,0
    3bc05a94:	40c3863b          	subw	a2,t2,a2
    3bc05a98:	bf21                	j	3bc059b0 <LzmaDec_DecodeReal2+0x1206>
    3bc05a9a:	489d                	li	a7,7
    3bc05a9c:	ba3d                	j	3bc053da <LzmaDec_DecodeReal2+0xc30>
    3bc05a9e:	8fda                	mv	t6,s6
    3bc05aa0:	64a2                	ld	s1,8(sp)
    3bc05aa2:	00230e9b          	addiw	t4,t1,2
    3bc05aa6:	8376                	mv	t1,t4
    3bc05aa8:	410483b3          	sub	t2,s1,a6
    3bc05aac:	93048ce3          	beq	s1,a6,3bc053e4 <LzmaDec_DecodeReal2+0xc3a>
    3bc05ab0:	7c0eb28b          	extu	t0,t4,31,0
    3bc05ab4:	0053f463          	bgeu	t2,t0,3bc05abc <LzmaDec_DecodeReal2+0x1312>
    3bc05ab8:	00038e9b          	sext.w	t4,t2
    3bc05abc:	7c0fb48b          	extu	s1,t6,31,0
    3bc05ac0:	409803b3          	sub	t2,a6,s1
    3bc05ac4:	82d6                	mv	t0,s5
    3bc05ac6:	00986363          	bltu	a6,s1,3bc05acc <LzmaDec_DecodeReal2+0x1322>
    3bc05aca:	4281                	li	t0,0
    3bc05acc:	9396                	add	t2,t2,t0
    3bc05ace:	7c0eb48b          	extu	s1,t4,31,0
    3bc05ad2:	407a8933          	sub	s2,s5,t2
    3bc05ad6:	01de0e3b          	addw	t3,t3,t4
    3bc05ada:	41d3033b          	subw	t1,t1,t4
    3bc05ade:	010a02b3          	add	t0,s4,a6
    3bc05ae2:	02996363          	bltu	s2,s1,3bc05b08 <LzmaDec_DecodeReal2+0x135e>
    3bc05ae6:	410383b3          	sub	t2,t2,a6
    3bc05aea:	00928eb3          	add	t4,t0,s1
    3bc05aee:	9826                	add	a6,a6,s1
    3bc05af0:	8072c48b          	lrbu	s1,t0,t2,0
    3bc05af4:	1812d48b          	sbia	s1,(t0),1,0
    3bc05af8:	fe5e9ce3          	bne	t4,t0,3bc05af0 <LzmaDec_DecodeReal2+0x1346>
    3bc05afc:	88cff06f          	j	3bc04b88 <LzmaDec_DecodeReal2+0x3de>
    3bc05b00:	f04e                	sd	s3,32(sp)
    3bc05b02:	89fa                	mv	s3,t5
    3bc05b04:	8f5a                	mv	t5,s6
    3bc05b06:	bf69                	j	3bc05aa0 <LzmaDec_DecodeReal2+0x12f6>
    3bc05b08:	84f6                	mv	s1,t4
    3bc05b0a:	807a490b          	lrbu	s2,s4,t2,0
    3bc05b0e:	0385                	addi	t2,t2,1
    3bc05b10:	01228023          	sb	s2,0(t0)
    3bc05b14:	007a9363          	bne	s5,t2,3bc05b1a <LzmaDec_DecodeReal2+0x1370>
    3bc05b18:	4381                	li	t2,0
    3bc05b1a:	34fd                	addiw	s1,s1,-1
    3bc05b1c:	0285                	addi	t0,t0,1
    3bc05b1e:	f4f5                	bnez	s1,3bc05b0a <LzmaDec_DecodeReal2+0x1360>
    3bc05b20:	3efd                	addiw	t4,t4,-1
    3bc05b22:	0805                	addi	a6,a6,1
    3bc05b24:	7c0ebe8b          	extu	t4,t4,31,0
    3bc05b28:	9876                	add	a6,a6,t4
    3bc05b2a:	85eff06f          	j	3bc04b88 <LzmaDec_DecodeReal2+0x3de>
    3bc05b2e:	48a5                	li	a7,9
    3bc05b30:	858ff06f          	j	3bc04b88 <LzmaDec_DecodeReal2+0x3de>

000000003bc05b34 <LzmaDec_TryDummy>:
    3bc05b34:	00254703          	lbu	a4,2(a0)
    3bc05b38:	04052303          	lw	t1,64(a0)
    3bc05b3c:	4805                	li	a6,1
    3bc05b3e:	00e8183b          	sllw	a6,a6,a4
    3bc05b42:	05852e83          	lw	t4,88(a0)
    3bc05b46:	387d                	addiw	a6,a6,-1
    3bc05b48:	01037833          	and	a6,t1,a6
    3bc05b4c:	0048181b          	slliw	a6,a6,0x4
    3bc05b50:	010e8e3b          	addw	t3,t4,a6
    3bc05b54:	01053883          	ld	a7,16(a0)
    3bc05b58:	020e1713          	slli	a4,t3,0x20
    3bc05b5c:	5d14                	lw	a3,56(a0)
    3bc05b5e:	01f75e13          	srli	t3,a4,0x1f
    3bc05b62:	9e46                	add	t3,t3,a7
    3bc05b64:	01000737          	lui	a4,0x1000
    3bc05b68:	5d5c                	lw	a5,60(a0)
    3bc05b6a:	e00e5f83          	lhu	t6,-512(t3)
    3bc05b6e:	8f2a                	mv	t5,a0
    3bc05b70:	962e                	add	a2,a2,a1
    3bc05b72:	00e6fc63          	bgeu	a3,a4,3bc05b8a <LzmaDec_TryDummy+0x56>
    3bc05b76:	4501                	li	a0,0
    3bc05b78:	0cc5f463          	bgeu	a1,a2,3bc05c40 <LzmaDec_TryDummy+0x10c>
    3bc05b7c:	9815c70b          	lbuia	a4,(a1),1,0
    3bc05b80:	0087979b          	slliw	a5,a5,0x8
    3bc05b84:	0086969b          	slliw	a3,a3,0x8
    3bc05b88:	8fd9                	or	a5,a5,a4
    3bc05b8a:	00b6d71b          	srliw	a4,a3,0xb
    3bc05b8e:	03f7073b          	mulw	a4,a4,t6
    3bc05b92:	14e7f063          	bgeu	a5,a4,3bc05cd2 <LzmaDec_TryDummy+0x19e>
    3bc05b96:	040f3683          	ld	a3,64(t5)
    3bc05b9a:	28088893          	addi	a7,a7,640 # f0280 <__BSS_SIZE__+0xea670>
    3bc05b9e:	caa1                	beqz	a3,3bc05bee <LzmaDec_TryDummy+0xba>
    3bc05ba0:	001f4503          	lbu	a0,1(t5)
    3bc05ba4:	4685                	li	a3,1
    3bc05ba6:	000f4803          	lbu	a6,0(t5)
    3bc05baa:	00a696bb          	sllw	a3,a3,a0
    3bc05bae:	36fd                	addiw	a3,a3,-1
    3bc05bb0:	00d37333          	and	t1,t1,a3
    3bc05bb4:	028f3683          	ld	a3,40(t5)
    3bc05bb8:	018f3e03          	ld	t3,24(t5)
    3bc05bbc:	0103133b          	sllw	t1,t1,a6
    3bc05bc0:	fff68513          	addi	a0,a3,-1 # ffffff <__BSS_SIZE__+0xffa3ef>
    3bc05bc4:	e681                	bnez	a3,3bc05bcc <LzmaDec_TryDummy+0x98>
    3bc05bc6:	020f3503          	ld	a0,32(t5)
    3bc05bca:	157d                	addi	a0,a0,-1
    3bc05bcc:	80ae468b          	lrbu	a3,t3,a0,0
    3bc05bd0:	4521                	li	a0,8
    3bc05bd2:	4105053b          	subw	a0,a0,a6
    3bc05bd6:	40a6d6bb          	sraw	a3,a3,a0
    3bc05bda:	006686bb          	addw	a3,a3,t1
    3bc05bde:	30000513          	li	a0,768
    3bc05be2:	02a686bb          	mulw	a3,a3,a0
    3bc05be6:	7c06b68b          	extu	a3,a3,31,0
    3bc05bea:	02d8988b          	addsl	a7,a7,a3,1
    3bc05bee:	4699                	li	a3,6
    3bc05bf0:	05d6eb63          	bltu	a3,t4,3bc05c46 <LzmaDec_TryDummy+0x112>
    3bc05bf4:	4685                	li	a3,1
    3bc05bf6:	01000eb7          	lui	t4,0x1000
    3bc05bfa:	0ff00e13          	li	t3,255
    3bc05bfe:	b2d8c80b          	lurhu	a6,a7,a3,1
    3bc05c02:	01d77b63          	bgeu	a4,t4,3bc05c18 <LzmaDec_TryDummy+0xe4>
    3bc05c06:	2ec5f363          	bgeu	a1,a2,3bc05eec <LzmaDec_TryDummy+0x3b8>
    3bc05c0a:	9815c50b          	lbuia	a0,(a1),1,0
    3bc05c0e:	0087979b          	slliw	a5,a5,0x8
    3bc05c12:	0087171b          	slliw	a4,a4,0x8
    3bc05c16:	8fc9                	or	a5,a5,a0
    3bc05c18:	00b7551b          	srliw	a0,a4,0xb
    3bc05c1c:	0305083b          	mulw	a6,a0,a6
    3bc05c20:	0016969b          	slliw	a3,a3,0x1
    3bc05c24:	0107ef63          	bltu	a5,a6,3bc05c42 <LzmaDec_TryDummy+0x10e>
    3bc05c28:	4107073b          	subw	a4,a4,a6
    3bc05c2c:	410787bb          	subw	a5,a5,a6
    3bc05c30:	2685                	addiw	a3,a3,1
    3bc05c32:	fcde76e3          	bgeu	t3,a3,3bc05bfe <LzmaDec_TryDummy+0xca>
    3bc05c36:	4505                	li	a0,1
    3bc05c38:	010007b7          	lui	a5,0x1000
    3bc05c3c:	2af76663          	bltu	a4,a5,3bc05ee8 <LzmaDec_TryDummy+0x3b4>
    3bc05c40:	8082                	ret
    3bc05c42:	8742                	mv	a4,a6
    3bc05c44:	b7fd                	j	3bc05c32 <LzmaDec_TryDummy+0xfe>
    3bc05c46:	028f3303          	ld	t1,40(t5)
    3bc05c4a:	048f6803          	lwu	a6,72(t5)
    3bc05c4e:	018f3683          	ld	a3,24(t5)
    3bc05c52:	4501                	li	a0,0
    3bc05c54:	41030e33          	sub	t3,t1,a6
    3bc05c58:	01037463          	bgeu	t1,a6,3bc05c60 <LzmaDec_TryDummy+0x12c>
    3bc05c5c:	020f3503          	ld	a0,32(t5)
    3bc05c60:	96f2                	add	a3,a3,t3
    3bc05c62:	80a6ce0b          	lrbu	t3,a3,a0,0
    3bc05c66:	010002b7          	lui	t0,0x1000
    3bc05c6a:	4685                	li	a3,1
    3bc05c6c:	10000513          	li	a0,256
    3bc05c70:	0ff00f93          	li	t6,255
    3bc05c74:	001e181b          	slliw	a6,t3,0x1
    3bc05c78:	00d5033b          	addw	t1,a0,a3
    3bc05c7c:	00080e1b          	sext.w	t3,a6
    3bc05c80:	01057833          	and	a6,a0,a6
    3bc05c84:	00080e9b          	sext.w	t4,a6
    3bc05c88:	0103083b          	addw	a6,t1,a6
    3bc05c8c:	b308c30b          	lurhu	t1,a7,a6,1
    3bc05c90:	00577c63          	bgeu	a4,t0,3bc05ca8 <LzmaDec_TryDummy+0x174>
    3bc05c94:	24c5fc63          	bgeu	a1,a2,3bc05eec <LzmaDec_TryDummy+0x3b8>
    3bc05c98:	9815c80b          	lbuia	a6,(a1),1,0
    3bc05c9c:	0087979b          	slliw	a5,a5,0x8
    3bc05ca0:	0087171b          	slliw	a4,a4,0x8
    3bc05ca4:	00f867b3          	or	a5,a6,a5
    3bc05ca8:	00b7581b          	srliw	a6,a4,0xb
    3bc05cac:	02680f3b          	mulw	t5,a6,t1
    3bc05cb0:	0016969b          	slliw	a3,a3,0x1
    3bc05cb4:	01e7f863          	bgeu	a5,t5,3bc05cc4 <LzmaDec_TryDummy+0x190>
    3bc05cb8:	01d54533          	xor	a0,a0,t4
    3bc05cbc:	877a                	mv	a4,t5
    3bc05cbe:	fadffbe3          	bgeu	t6,a3,3bc05c74 <LzmaDec_TryDummy+0x140>
    3bc05cc2:	bf95                	j	3bc05c36 <LzmaDec_TryDummy+0x102>
    3bc05cc4:	41e7073b          	subw	a4,a4,t5
    3bc05cc8:	41e787bb          	subw	a5,a5,t5
    3bc05ccc:	2685                	addiw	a3,a3,1
    3bc05cce:	8576                	mv	a0,t4
    3bc05cd0:	b7fd                	j	3bc05cbe <LzmaDec_TryDummy+0x18a>
    3bc05cd2:	7c0eb50b          	extu	a0,t4,31,0
    3bc05cd6:	0541                	addi	a0,a0,16
    3bc05cd8:	a2a8cf0b          	lrhu	t5,a7,a0,1
    3bc05cdc:	00151e93          	slli	t4,a0,0x1
    3bc05ce0:	40e6833b          	subw	t1,a3,a4
    3bc05ce4:	01000537          	lui	a0,0x1000
    3bc05ce8:	9f99                	subw	a5,a5,a4
    3bc05cea:	00a37c63          	bgeu	t1,a0,3bc05d02 <LzmaDec_TryDummy+0x1ce>
    3bc05cee:	4501                	li	a0,0
    3bc05cf0:	f4c5f8e3          	bgeu	a1,a2,3bc05c40 <LzmaDec_TryDummy+0x10c>
    3bc05cf4:	9815c70b          	lbuia	a4,(a1),1,0
    3bc05cf8:	0087979b          	slliw	a5,a5,0x8
    3bc05cfc:	0083131b          	slliw	t1,t1,0x8
    3bc05d00:	8fd9                	or	a5,a5,a4
    3bc05d02:	00b3571b          	srliw	a4,t1,0xb
    3bc05d06:	03e706bb          	mulw	a3,a4,t5
    3bc05d0a:	16d7f563          	bgeu	a5,a3,3bc05e74 <LzmaDec_TryDummy+0x340>
    3bc05d0e:	a0088313          	addi	t1,a7,-1536
    3bc05d12:	4509                	li	a0,2
    3bc05d14:	4f01                	li	t5,0
    3bc05d16:	01000e37          	lui	t3,0x1000
    3bc05d1a:	00035703          	lhu	a4,0(t1)
    3bc05d1e:	01c6fc63          	bgeu	a3,t3,3bc05d36 <LzmaDec_TryDummy+0x202>
    3bc05d22:	1cc5f563          	bgeu	a1,a2,3bc05eec <LzmaDec_TryDummy+0x3b8>
    3bc05d26:	9815ce0b          	lbuia	t3,(a1),1,0
    3bc05d2a:	0087979b          	slliw	a5,a5,0x8
    3bc05d2e:	0086969b          	slliw	a3,a3,0x8
    3bc05d32:	00fe67b3          	or	a5,t3,a5
    3bc05d36:	00b6de1b          	srliw	t3,a3,0xb
    3bc05d3a:	02ee073b          	mulw	a4,t3,a4
    3bc05d3e:	22e7fc63          	bgeu	a5,a4,3bc05f76 <LzmaDec_TryDummy+0x442>
    3bc05d42:	7c08380b          	extu	a6,a6,31,0
    3bc05d46:	0303130b          	addsl	t1,t1,a6,1
    3bc05d4a:	4801                	li	a6,0
    3bc05d4c:	46a1                	li	a3,8
    3bc05d4e:	4e05                	li	t3,1
    3bc05d50:	010003b7          	lui	t2,0x1000
    3bc05d54:	b3c34f8b          	lurhu	t6,t1,t3,1
    3bc05d58:	00777c63          	bgeu	a4,t2,3bc05d70 <LzmaDec_TryDummy+0x23c>
    3bc05d5c:	18c5f863          	bgeu	a1,a2,3bc05eec <LzmaDec_TryDummy+0x3b8>
    3bc05d60:	9815ce8b          	lbuia	t4,(a1),1,0
    3bc05d64:	0087979b          	slliw	a5,a5,0x8
    3bc05d68:	0087171b          	slliw	a4,a4,0x8
    3bc05d6c:	00fee7b3          	or	a5,t4,a5
    3bc05d70:	00b75e9b          	srliw	t4,a4,0xb
    3bc05d74:	03fe8fbb          	mulw	t6,t4,t6
    3bc05d78:	001e1e1b          	slliw	t3,t3,0x1
    3bc05d7c:	25f7e663          	bltu	a5,t6,3bc05fc8 <LzmaDec_TryDummy+0x494>
    3bc05d80:	41f7073b          	subw	a4,a4,t6
    3bc05d84:	41f787bb          	subw	a5,a5,t6
    3bc05d88:	2e05                	addiw	t3,t3,1
    3bc05d8a:	fcde65e3          	bltu	t3,a3,3bc05d54 <LzmaDec_TryDummy+0x220>
    3bc05d8e:	430d                	li	t1,3
    3bc05d90:	ebe364e3          	bltu	t1,t5,3bc05c38 <LzmaDec_TryDummy+0x104>
    3bc05d94:	40d806bb          	subw	a3,a6,a3
    3bc05d98:	01c6883b          	addw	a6,a3,t3
    3bc05d9c:	86c2                	mv	a3,a6
    3bc05d9e:	01037363          	bgeu	t1,a6,3bc05da4 <LzmaDec_TryDummy+0x270>
    3bc05da2:	468d                	li	a3,3
    3bc05da4:	0066981b          	slliw	a6,a3,0x6
    3bc05da8:	0408081b          	addiw	a6,a6,64
    3bc05dac:	7c08380b          	extu	a6,a6,31,0
    3bc05db0:	4685                	li	a3,1
    3bc05db2:	01000fb7          	lui	t6,0x1000
    3bc05db6:	03f00f13          	li	t5,63
    3bc05dba:	7c06b30b          	extu	t1,a3,31,0
    3bc05dbe:	9342                	add	t1,t1,a6
    3bc05dc0:	a268ce0b          	lrhu	t3,a7,t1,1
    3bc05dc4:	01f77c63          	bgeu	a4,t6,3bc05ddc <LzmaDec_TryDummy+0x2a8>
    3bc05dc8:	12c5f263          	bgeu	a1,a2,3bc05eec <LzmaDec_TryDummy+0x3b8>
    3bc05dcc:	9815c30b          	lbuia	t1,(a1),1,0
    3bc05dd0:	0087979b          	slliw	a5,a5,0x8
    3bc05dd4:	0087171b          	slliw	a4,a4,0x8
    3bc05dd8:	00f367b3          	or	a5,t1,a5
    3bc05ddc:	00b7531b          	srliw	t1,a4,0xb
    3bc05de0:	03c30e3b          	mulw	t3,t1,t3
    3bc05de4:	0016969b          	slliw	a3,a3,0x1
    3bc05de8:	1fc7e263          	bltu	a5,t3,3bc05fcc <LzmaDec_TryDummy+0x498>
    3bc05dec:	41c7073b          	subw	a4,a4,t3
    3bc05df0:	41c787bb          	subw	a5,a5,t3
    3bc05df4:	2685                	addiw	a3,a3,1
    3bc05df6:	fcdf72e3          	bgeu	t5,a3,3bc05dba <LzmaDec_TryDummy+0x286>
    3bc05dfa:	fc06869b          	addiw	a3,a3,-64
    3bc05dfe:	0006831b          	sext.w	t1,a3
    3bc05e02:	480d                	li	a6,3
    3bc05e04:	e2687ae3          	bgeu	a6,t1,3bc05c38 <LzmaDec_TryDummy+0x104>
    3bc05e08:	4e35                	li	t3,13
    3bc05e0a:	0016d81b          	srliw	a6,a3,0x1
    3bc05e0e:	1c6e6163          	bltu	t3,t1,3bc05fd0 <LzmaDec_TryDummy+0x49c>
    3bc05e12:	8a85                	andi	a3,a3,1
    3bc05e14:	387d                	addiw	a6,a6,-1
    3bc05e16:	0026e693          	ori	a3,a3,2
    3bc05e1a:	010696bb          	sllw	a3,a3,a6
    3bc05e1e:	02069313          	slli	t1,a3,0x20
    3bc05e22:	01f35693          	srli	a3,t1,0x1f
    3bc05e26:	737d                	lui	t1,0xfffff
    3bc05e28:	30030313          	addi	t1,t1,768 # fffffffffffff300 <__BL2_END__+0xffffffffc43ebef0>
    3bc05e2c:	969a                	add	a3,a3,t1
    3bc05e2e:	98b6                	add	a7,a7,a3
    3bc05e30:	4e05                	li	t3,1
    3bc05e32:	4685                	li	a3,1
    3bc05e34:	010002b7          	lui	t0,0x1000
    3bc05e38:	b2d8ce8b          	lurhu	t4,a7,a3,1
    3bc05e3c:	00577c63          	bgeu	a4,t0,3bc05e54 <LzmaDec_TryDummy+0x320>
    3bc05e40:	0ac5f663          	bgeu	a1,a2,3bc05eec <LzmaDec_TryDummy+0x3b8>
    3bc05e44:	9815c30b          	lbuia	t1,(a1),1,0
    3bc05e48:	0087979b          	slliw	a5,a5,0x8
    3bc05e4c:	0087171b          	slliw	a4,a4,0x8
    3bc05e50:	00f367b3          	or	a5,t1,a5
    3bc05e54:	00b7531b          	srliw	t1,a4,0xb
    3bc05e58:	03d30f3b          	mulw	t5,t1,t4
    3bc05e5c:	001e1f9b          	slliw	t6,t3,0x1
    3bc05e60:	1be7f763          	bgeu	a5,t5,3bc0600e <LzmaDec_TryDummy+0x4da>
    3bc05e64:	01c686bb          	addw	a3,a3,t3
    3bc05e68:	877a                	mv	a4,t5
    3bc05e6a:	387d                	addiw	a6,a6,-1
    3bc05e6c:	dc0806e3          	beqz	a6,3bc05c38 <LzmaDec_TryDummy+0x104>
    3bc05e70:	8e7e                	mv	t3,t6
    3bc05e72:	b7d9                	j	3bc05e38 <LzmaDec_TryDummy+0x304>
    3bc05e74:	40d3053b          	subw	a0,t1,a3
    3bc05e78:	9ec6                	add	t4,t4,a7
    3bc05e7a:	01000f37          	lui	t5,0x1000
    3bc05e7e:	40d7873b          	subw	a4,a5,a3
    3bc05e82:	832a                	mv	t1,a0
    3bc05e84:	018ed683          	lhu	a3,24(t4) # 1000018 <__BSS_SIZE__+0xffa408>
    3bc05e88:	01e57c63          	bgeu	a0,t5,3bc05ea0 <LzmaDec_TryDummy+0x36c>
    3bc05e8c:	4501                	li	a0,0
    3bc05e8e:	dac5f9e3          	bgeu	a1,a2,3bc05c40 <LzmaDec_TryDummy+0x10c>
    3bc05e92:	0087179b          	slliw	a5,a4,0x8
    3bc05e96:	9815c70b          	lbuia	a4,(a1),1,0
    3bc05e9a:	0083151b          	slliw	a0,t1,0x8
    3bc05e9e:	8f5d                	or	a4,a4,a5
    3bc05ea0:	00b5531b          	srliw	t1,a0,0xb
    3bc05ea4:	02d306bb          	mulw	a3,t1,a3
    3bc05ea8:	8336                	mv	t1,a3
    3bc05eaa:	04d77e63          	bgeu	a4,a3,3bc05f06 <LzmaDec_TryDummy+0x3d2>
    3bc05eae:	77fd                	lui	a5,0xfffff
    3bc05eb0:	9e3e                	add	t3,t3,a5
    3bc05eb2:	010007b7          	lui	a5,0x1000
    3bc05eb6:	400e5e03          	lhu	t3,1024(t3) # 1000400 <__BSS_SIZE__+0xffa7f0>
    3bc05eba:	00f6fc63          	bgeu	a3,a5,3bc05ed2 <LzmaDec_TryDummy+0x39e>
    3bc05ebe:	4501                	li	a0,0
    3bc05ec0:	d8c5f0e3          	bgeu	a1,a2,3bc05c40 <LzmaDec_TryDummy+0x10c>
    3bc05ec4:	0087179b          	slliw	a5,a4,0x8
    3bc05ec8:	9815c70b          	lbuia	a4,(a1),1,0
    3bc05ecc:	0086969b          	slliw	a3,a3,0x8
    3bc05ed0:	8f5d                	or	a4,a4,a5
    3bc05ed2:	00b6d79b          	srliw	a5,a3,0xb
    3bc05ed6:	03c7833b          	mulw	t1,a5,t3
    3bc05eda:	00677b63          	bgeu	a4,t1,3bc05ef0 <LzmaDec_TryDummy+0x3bc>
    3bc05ede:	010007b7          	lui	a5,0x1000
    3bc05ee2:	450d                	li	a0,3
    3bc05ee4:	d4f37ee3          	bgeu	t1,a5,3bc05c40 <LzmaDec_TryDummy+0x10c>
    3bc05ee8:	d4c5ece3          	bltu	a1,a2,3bc05c40 <LzmaDec_TryDummy+0x10c>
    3bc05eec:	4501                	li	a0,0
    3bc05eee:	bb89                	j	3bc05c40 <LzmaDec_TryDummy+0x10c>
    3bc05ef0:	406686bb          	subw	a3,a3,t1
    3bc05ef4:	406707bb          	subw	a5,a4,t1
    3bc05ef8:	737d                	lui	t1,0xfffff
    3bc05efa:	60030313          	addi	t1,t1,1536 # fffffffffffff600 <__BL2_END__+0xffffffffc43ec1f0>
    3bc05efe:	9346                	add	t1,t1,a7
    3bc05f00:	450d                	li	a0,3
    3bc05f02:	4f31                	li	t5,12
    3bc05f04:	bd09                	j	3bc05d16 <LzmaDec_TryDummy+0x1e2>
    3bc05f06:	9d15                	subw	a0,a0,a3
    3bc05f08:	01000e37          	lui	t3,0x1000
    3bc05f0c:	406707bb          	subw	a5,a4,t1
    3bc05f10:	86aa                	mv	a3,a0
    3bc05f12:	030ed303          	lhu	t1,48(t4)
    3bc05f16:	01c57c63          	bgeu	a0,t3,3bc05f2e <LzmaDec_TryDummy+0x3fa>
    3bc05f1a:	4501                	li	a0,0
    3bc05f1c:	d2c5f2e3          	bgeu	a1,a2,3bc05c40 <LzmaDec_TryDummy+0x10c>
    3bc05f20:	0087971b          	slliw	a4,a5,0x8
    3bc05f24:	9815c78b          	lbuia	a5,(a1),1,0
    3bc05f28:	0086951b          	slliw	a0,a3,0x8
    3bc05f2c:	8fd9                	or	a5,a5,a4
    3bc05f2e:	00b5571b          	srliw	a4,a0,0xb
    3bc05f32:	026706bb          	mulw	a3,a4,t1
    3bc05f36:	8736                	mv	a4,a3
    3bc05f38:	fcd7e0e3          	bltu	a5,a3,3bc05ef8 <LzmaDec_TryDummy+0x3c4>
    3bc05f3c:	9d15                	subw	a0,a0,a3
    3bc05f3e:	01000e37          	lui	t3,0x1000
    3bc05f42:	048ed303          	lhu	t1,72(t4)
    3bc05f46:	86aa                	mv	a3,a0
    3bc05f48:	9f99                	subw	a5,a5,a4
    3bc05f4a:	01c57c63          	bgeu	a0,t3,3bc05f62 <LzmaDec_TryDummy+0x42e>
    3bc05f4e:	4501                	li	a0,0
    3bc05f50:	cec5f8e3          	bgeu	a1,a2,3bc05c40 <LzmaDec_TryDummy+0x10c>
    3bc05f54:	0087971b          	slliw	a4,a5,0x8
    3bc05f58:	9815c78b          	lbuia	a5,(a1),1,0
    3bc05f5c:	0086951b          	slliw	a0,a3,0x8
    3bc05f60:	8fd9                	or	a5,a5,a4
    3bc05f62:	00b5571b          	srliw	a4,a0,0xb
    3bc05f66:	026706bb          	mulw	a3,a4,t1
    3bc05f6a:	f8d7e7e3          	bltu	a5,a3,3bc05ef8 <LzmaDec_TryDummy+0x3c4>
    3bc05f6e:	9f95                	subw	a5,a5,a3
    3bc05f70:	40d506bb          	subw	a3,a0,a3
    3bc05f74:	b751                	j	3bc05ef8 <LzmaDec_TryDummy+0x3c4>
    3bc05f76:	40e68ebb          	subw	t4,a3,a4
    3bc05f7a:	01000fb7          	lui	t6,0x1000
    3bc05f7e:	9f99                	subw	a5,a5,a4
    3bc05f80:	01035703          	lhu	a4,16(t1)
    3bc05f84:	01fefc63          	bgeu	t4,t6,3bc05f9c <LzmaDec_TryDummy+0x468>
    3bc05f88:	f6c5f2e3          	bgeu	a1,a2,3bc05eec <LzmaDec_TryDummy+0x3b8>
    3bc05f8c:	00879e1b          	slliw	t3,a5,0x8
    3bc05f90:	9815c78b          	lbuia	a5,(a1),1,0
    3bc05f94:	008e9e9b          	slliw	t4,t4,0x8
    3bc05f98:	01c7e7b3          	or	a5,a5,t3
    3bc05f9c:	00bed69b          	srliw	a3,t4,0xb
    3bc05fa0:	02e6873b          	mulw	a4,a3,a4
    3bc05fa4:	00e7f963          	bgeu	a5,a4,3bc05fb6 <LzmaDec_TryDummy+0x482>
    3bc05fa8:	7c08368b          	extu	a3,a6,31,0
    3bc05fac:	06a1                	addi	a3,a3,8
    3bc05fae:	02d3130b          	addsl	t1,t1,a3,1
    3bc05fb2:	4821                	li	a6,8
    3bc05fb4:	bb61                	j	3bc05d4c <LzmaDec_TryDummy+0x218>
    3bc05fb6:	9f99                	subw	a5,a5,a4
    3bc05fb8:	20030313          	addi	t1,t1,512
    3bc05fbc:	40ee873b          	subw	a4,t4,a4
    3bc05fc0:	4841                	li	a6,16
    3bc05fc2:	10000693          	li	a3,256
    3bc05fc6:	b361                	j	3bc05d4e <LzmaDec_TryDummy+0x21a>
    3bc05fc8:	877e                	mv	a4,t6
    3bc05fca:	b3c1                	j	3bc05d8a <LzmaDec_TryDummy+0x256>
    3bc05fcc:	8772                	mv	a4,t3
    3bc05fce:	b525                	j	3bc05df6 <LzmaDec_TryDummy+0x2c2>
    3bc05fd0:	386d                	addiw	a6,a6,-5
    3bc05fd2:	01000e37          	lui	t3,0x1000
    3bc05fd6:	01c77b63          	bgeu	a4,t3,3bc05fec <LzmaDec_TryDummy+0x4b8>
    3bc05fda:	f0c5f9e3          	bgeu	a1,a2,3bc05eec <LzmaDec_TryDummy+0x3b8>
    3bc05fde:	9815c68b          	lbuia	a3,(a1),1,0
    3bc05fe2:	0087979b          	slliw	a5,a5,0x8
    3bc05fe6:	0087171b          	slliw	a4,a4,0x8
    3bc05fea:	8fd5                	or	a5,a5,a3
    3bc05fec:	0017531b          	srliw	t1,a4,0x1
    3bc05ff0:	406786bb          	subw	a3,a5,t1
    3bc05ff4:	01f6d69b          	srliw	a3,a3,0x1f
    3bc05ff8:	36fd                	addiw	a3,a3,-1
    3bc05ffa:	0066f6b3          	and	a3,a3,t1
    3bc05ffe:	387d                	addiw	a6,a6,-1
    3bc06000:	0003071b          	sext.w	a4,t1
    3bc06004:	9f95                	subw	a5,a5,a3
    3bc06006:	fc0818e3          	bnez	a6,3bc05fd6 <LzmaDec_TryDummy+0x4a2>
    3bc0600a:	4811                	li	a6,4
    3bc0600c:	b515                	j	3bc05e30 <LzmaDec_TryDummy+0x2fc>
    3bc0600e:	41e7073b          	subw	a4,a4,t5
    3bc06012:	41e787bb          	subw	a5,a5,t5
    3bc06016:	00df86bb          	addw	a3,t6,a3
    3bc0601a:	bd81                	j	3bc05e6a <LzmaDec_TryDummy+0x336>

000000003bc0601c <LzmaDec_Init>:
    3bc0601c:	11400793          	li	a5,276
    3bc06020:	02053423          	sd	zero,40(a0) # 1000028 <__BSS_SIZE__+0xffa418>
    3bc06024:	06052223          	sw	zero,100(a0)
    3bc06028:	04053023          	sd	zero,64(a0)
    3bc0602c:	cd7c                	sw	a5,92(a0)
    3bc0602e:	8082                	ret

000000003bc06030 <LzmaDec_DecodeToDic>:
    3bc06030:	7175                	addi	sp,sp,-144
    3bc06032:	e122                	sd	s0,128(sp)
    3bc06034:	f8ca                	sd	s2,112(sp)
    3bc06036:	f4ce                	sd	s3,104(sp)
    3bc06038:	f0d2                	sd	s4,96(sp)
    3bc0603a:	f86a                	sd	s10,48(sp)
    3bc0603c:	f46e                	sd	s11,40(sp)
    3bc0603e:	e506                	sd	ra,136(sp)
    3bc06040:	fca6                	sd	s1,120(sp)
    3bc06042:	ecd6                	sd	s5,88(sp)
    3bc06044:	e8da                	sd	s6,80(sp)
    3bc06046:	e4de                	sd	s7,72(sp)
    3bc06048:	e0e2                	sd	s8,64(sp)
    3bc0604a:	fc66                	sd	s9,56(sp)
    3bc0604c:	0006bd83          	ld	s11,0(a3)
    3bc06050:	0006b023          	sd	zero,0(a3)
    3bc06054:	0007a023          	sw	zero,0(a5) # 1000000 <__BSS_SIZE__+0xffa3f0>
    3bc06058:	e43a                	sd	a4,8(sp)
    3bc0605a:	4d78                	lw	a4,92(a0)
    3bc0605c:	89be                	mv	s3,a5
    3bc0605e:	11200793          	li	a5,274
    3bc06062:	8932                	mv	s2,a2
    3bc06064:	842a                	mv	s0,a0
    3bc06066:	8a2e                	mv	s4,a1
    3bc06068:	8d36                	mv	s10,a3
    3bc0606a:	4611                	li	a2,4
    3bc0606c:	04e7e263          	bltu	a5,a4,3bc060b0 <LzmaDec_DecodeToDic+0x80>
    3bc06070:	85d2                	mv	a1,s4
    3bc06072:	8522                	mv	a0,s0
    3bc06074:	ec4fe0ef          	jal	ra,3bc04738 <LzmaDec_WriteRem>
    3bc06078:	4b4d                	li	s6,19
    3bc0607a:	06840a93          	addi	s5,s0,104 # 1068 <__BSS_SIZE__-0x4ba8>
    3bc0607e:	4c7c                	lw	a5,92(s0)
    3bc06080:	11200713          	li	a4,274
    3bc06084:	0ce79663          	bne	a5,a4,3bc06150 <LzmaDec_DecodeToDic+0x120>
    3bc06088:	5c5c                	lw	a5,60(s0)
    3bc0608a:	eb9d                	bnez	a5,3bc060c0 <LzmaDec_DecodeToDic+0x90>
    3bc0608c:	4785                	li	a5,1
    3bc0608e:	a8a1                	j	3bc060e6 <LzmaDec_DecodeToDic+0xb6>
    3bc06090:	0017859b          	addiw	a1,a5,1
    3bc06094:	d06c                	sw	a1,100(s0)
    3bc06096:	9819458b          	lbuia	a1,(s2),1,0
    3bc0609a:	7c07b78b          	extu	a5,a5,31,0
    3bc0609e:	97a2                	add	a5,a5,s0
    3bc060a0:	06b78423          	sb	a1,104(a5)
    3bc060a4:	000d3783          	ld	a5,0(s10)
    3bc060a8:	1dfd                	addi	s11,s11,-1
    3bc060aa:	0785                	addi	a5,a5,1
    3bc060ac:	00fd3023          	sd	a5,0(s10)
    3bc060b0:	507c                	lw	a5,100(s0)
    3bc060b2:	020d8863          	beqz	s11,3bc060e2 <LzmaDec_DecodeToDic+0xb2>
    3bc060b6:	fcf67de3          	bgeu	a2,a5,3bc06090 <LzmaDec_DecodeToDic+0x60>
    3bc060ba:	06844603          	lbu	a2,104(s0)
    3bc060be:	ca05                	beqz	a2,3bc060ee <LzmaDec_DecodeToDic+0xbe>
    3bc060c0:	4485                	li	s1,1
    3bc060c2:	60aa                	ld	ra,136(sp)
    3bc060c4:	640a                	ld	s0,128(sp)
    3bc060c6:	7946                	ld	s2,112(sp)
    3bc060c8:	79a6                	ld	s3,104(sp)
    3bc060ca:	7a06                	ld	s4,96(sp)
    3bc060cc:	6ae6                	ld	s5,88(sp)
    3bc060ce:	6b46                	ld	s6,80(sp)
    3bc060d0:	6ba6                	ld	s7,72(sp)
    3bc060d2:	6c06                	ld	s8,64(sp)
    3bc060d4:	7ce2                	ld	s9,56(sp)
    3bc060d6:	7d42                	ld	s10,48(sp)
    3bc060d8:	7da2                	ld	s11,40(sp)
    3bc060da:	8526                	mv	a0,s1
    3bc060dc:	74e6                	ld	s1,120(sp)
    3bc060de:	6149                	addi	sp,sp,144
    3bc060e0:	8082                	ret
    3bc060e2:	ffe1                	bnez	a5,3bc060ba <LzmaDec_DecodeToDic+0x8a>
    3bc060e4:	478d                	li	a5,3
    3bc060e6:	00f9a023          	sw	a5,0(s3)
    3bc060ea:	4481                	li	s1,0
    3bc060ec:	bfd9                	j	3bc060c2 <LzmaDec_DecodeToDic+0x92>
    3bc060ee:	4611                	li	a2,4
    3bc060f0:	fef67ae3          	bgeu	a2,a5,3bc060e4 <LzmaDec_DecodeToDic+0xb4>
    3bc060f4:	06942783          	lw	a5,105(s0)
    3bc060f8:	06042223          	sw	zero,100(s0)
    3bc060fc:	9007978b          	revw	a5,a5
    3bc06100:	dc5c                	sw	a5,60(s0)
    3bc06102:	57fd                	li	a5,-1
    3bc06104:	dc1c                	sw	a5,56(s0)
    3bc06106:	11300793          	li	a5,275
    3bc0610a:	02f70c63          	beq	a4,a5,3bc06142 <LzmaDec_DecodeToDic+0x112>
    3bc0610e:	00044783          	lbu	a5,0(s0)
    3bc06112:	00144703          	lbu	a4,1(s0)
    3bc06116:	6410                	ld	a2,8(s0)
    3bc06118:	40000593          	li	a1,1024
    3bc0611c:	9f3d                	addw	a4,a4,a5
    3bc0611e:	30000793          	li	a5,768
    3bc06122:	00e797bb          	sllw	a5,a5,a4
    3bc06126:	7c07879b          	addiw	a5,a5,1984
    3bc0612a:	7c07b78b          	extu	a5,a5,31,0
    3bc0612e:	4701                	li	a4,0
    3bc06130:	00f76c63          	bltu	a4,a5,3bc06148 <LzmaDec_DecodeToDic+0x118>
    3bc06134:	4785                	li	a5,1
    3bc06136:	1782                	slli	a5,a5,0x20
    3bc06138:	0785                	addi	a5,a5,1
    3bc0613a:	e43c                	sd	a5,72(s0)
    3bc0613c:	e83c                	sd	a5,80(s0)
    3bc0613e:	04042c23          	sw	zero,88(s0)
    3bc06142:	04042e23          	sw	zero,92(s0)
    3bc06146:	b72d                	j	3bc06070 <LzmaDec_DecodeToDic+0x40>
    3bc06148:	22e6558b          	srh	a1,a2,a4,1
    3bc0614c:	0705                	addi	a4,a4,1
    3bc0614e:	b7cd                	j	3bc06130 <LzmaDec_DecodeToDic+0x100>
    3bc06150:	7418                	ld	a4,40(s0)
    3bc06152:	01476b63          	bltu	a4,s4,3bc06168 <LzmaDec_DecodeToDic+0x138>
    3bc06156:	12079f63          	bnez	a5,3bc06294 <LzmaDec_DecodeToDic+0x264>
    3bc0615a:	5c5c                	lw	a5,60(s0)
    3bc0615c:	14079363          	bnez	a5,3bc062a2 <LzmaDec_DecodeToDic+0x272>
    3bc06160:	4791                	li	a5,4
    3bc06162:	b751                	j	3bc060e6 <LzmaDec_DecodeToDic+0xb6>
    3bc06164:	4789                	li	a5,2
    3bc06166:	b741                	j	3bc060e6 <LzmaDec_DecodeToDic+0xb6>
    3bc06168:	4c81                	li	s9,0
    3bc0616a:	06442b83          	lw	s7,100(s0)
    3bc0616e:	0c0b9263          	bnez	s7,3bc06232 <LzmaDec_DecodeToDic+0x202>
    3bc06172:	01bb7463          	bgeu	s6,s11,3bc0617a <LzmaDec_DecodeToDic+0x14a>
    3bc06176:	040c8263          	beqz	s9,3bc061ba <LzmaDec_DecodeToDic+0x18a>
    3bc0617a:	866e                	mv	a2,s11
    3bc0617c:	85ca                	mv	a1,s2
    3bc0617e:	8522                	mv	a0,s0
    3bc06180:	9b5ff0ef          	jal	ra,3bc05b34 <LzmaDec_TryDummy>
    3bc06184:	0005049b          	sext.w	s1,a0
    3bc06188:	e095                	bnez	s1,3bc061ac <LzmaDec_DecodeToDic+0x17c>
    3bc0618a:	866e                	mv	a2,s11
    3bc0618c:	85ca                	mv	a1,s2
    3bc0618e:	06840513          	addi	a0,s0,104
    3bc06192:	8dbfa0ef          	jal	ra,3bc00a6c <memcpy>
    3bc06196:	000d3783          	ld	a5,0(s10)
    3bc0619a:	07b42223          	sw	s11,100(s0)
    3bc0619e:	9dbe                	add	s11,s11,a5
    3bc061a0:	01bd3023          	sd	s11,0(s10)
    3bc061a4:	478d                	li	a5,3
    3bc061a6:	00f9a023          	sw	a5,0(s3)
    3bc061aa:	bf21                	j	3bc060c2 <LzmaDec_DecodeToDic+0x92>
    3bc061ac:	000c8563          	beqz	s9,3bc061b6 <LzmaDec_DecodeToDic+0x186>
    3bc061b0:	4789                	li	a5,2
    3bc061b2:	0ef49463          	bne	s1,a5,3bc0629a <LzmaDec_DecodeToDic+0x26a>
    3bc061b6:	864a                	mv	a2,s2
    3bc061b8:	a021                	j	3bc061c0 <LzmaDec_DecodeToDic+0x190>
    3bc061ba:	fecd8613          	addi	a2,s11,-20
    3bc061be:	964a                	add	a2,a2,s2
    3bc061c0:	03243823          	sd	s2,48(s0)
    3bc061c4:	85d2                	mv	a1,s4
    3bc061c6:	8522                	mv	a0,s0
    3bc061c8:	de2fe0ef          	jal	ra,3bc047aa <LzmaDec_DecodeReal2>
    3bc061cc:	ee051ae3          	bnez	a0,3bc060c0 <LzmaDec_DecodeToDic+0x90>
    3bc061d0:	7818                	ld	a4,48(s0)
    3bc061d2:	000d3783          	ld	a5,0(s10)
    3bc061d6:	41270933          	sub	s2,a4,s2
    3bc061da:	97ca                	add	a5,a5,s2
    3bc061dc:	00fd3023          	sd	a5,0(s10)
    3bc061e0:	412d8db3          	sub	s11,s11,s2
    3bc061e4:	893a                	mv	s2,a4
    3bc061e6:	bd61                	j	3bc0607e <LzmaDec_DecodeToDic+0x4e>
    3bc061e8:	8109478b          	lrbu	a5,s2,a6,0
    3bc061ec:	0106578b          	srb	a5,a2,a6,0
    3bc061f0:	0805                	addi	a6,a6,1
    3bc061f2:	0008079b          	sext.w	a5,a6
    3bc061f6:	e83e                	sd	a5,16(sp)
    3bc061f8:	01780c3b          	addw	s8,a6,s7
    3bc061fc:	018b6463          	bltu	s6,s8,3bc06204 <LzmaDec_DecodeToDic+0x1d4>
    3bc06200:	ffb814e3          	bne	a6,s11,3bc061e8 <LzmaDec_DecodeToDic+0x1b8>
    3bc06204:	07842223          	sw	s8,100(s0)
    3bc06208:	018b7463          	bgeu	s6,s8,3bc06210 <LzmaDec_DecodeToDic+0x1e0>
    3bc0620c:	020c8f63          	beqz	s9,3bc0624a <LzmaDec_DecodeToDic+0x21a>
    3bc06210:	7c0c360b          	extu	a2,s8,31,0
    3bc06214:	85d6                	mv	a1,s5
    3bc06216:	8522                	mv	a0,s0
    3bc06218:	ec42                	sd	a6,24(sp)
    3bc0621a:	91bff0ef          	jal	ra,3bc05b34 <LzmaDec_TryDummy>
    3bc0621e:	0005049b          	sext.w	s1,a0
    3bc06222:	6862                	ld	a6,24(sp)
    3bc06224:	ec91                	bnez	s1,3bc06240 <LzmaDec_DecodeToDic+0x210>
    3bc06226:	000d3783          	ld	a5,0(s10)
    3bc0622a:	983e                	add	a6,a6,a5
    3bc0622c:	010d3023          	sd	a6,0(s10)
    3bc06230:	bf95                	j	3bc061a4 <LzmaDec_DecodeToDic+0x174>
    3bc06232:	7c0bb60b          	extu	a2,s7,31,0
    3bc06236:	06860613          	addi	a2,a2,104
    3bc0623a:	4801                	li	a6,0
    3bc0623c:	9622                	add	a2,a2,s0
    3bc0623e:	bf55                	j	3bc061f2 <LzmaDec_DecodeToDic+0x1c2>
    3bc06240:	000c8563          	beqz	s9,3bc0624a <LzmaDec_DecodeToDic+0x21a>
    3bc06244:	4789                	li	a5,2
    3bc06246:	04f49a63          	bne	s1,a5,3bc0629a <LzmaDec_DecodeToDic+0x26a>
    3bc0624a:	03543823          	sd	s5,48(s0)
    3bc0624e:	8656                	mv	a2,s5
    3bc06250:	85d2                	mv	a1,s4
    3bc06252:	8522                	mv	a0,s0
    3bc06254:	d56fe0ef          	jal	ra,3bc047aa <LzmaDec_DecodeReal2>
    3bc06258:	e60514e3          	bnez	a0,3bc060c0 <LzmaDec_DecodeToDic+0x90>
    3bc0625c:	781c                	ld	a5,48(s0)
    3bc0625e:	415787bb          	subw	a5,a5,s5
    3bc06262:	02fc6763          	bltu	s8,a5,3bc06290 <LzmaDec_DecodeToDic+0x260>
    3bc06266:	66c2                	ld	a3,16(sp)
    3bc06268:	40fc073b          	subw	a4,s8,a5
    3bc0626c:	02e6e263          	bltu	a3,a4,3bc06290 <LzmaDec_DecodeToDic+0x260>
    3bc06270:	000d3703          	ld	a4,0(s10)
    3bc06274:	417787bb          	subw	a5,a5,s7
    3bc06278:	7c07b78b          	extu	a5,a5,31,0
    3bc0627c:	973e                	add	a4,a4,a5
    3bc0627e:	00ed3023          	sd	a4,0(s10)
    3bc06282:	40fd8db3          	sub	s11,s11,a5
    3bc06286:	00f90733          	add	a4,s2,a5
    3bc0628a:	06042223          	sw	zero,100(s0)
    3bc0628e:	bf99                	j	3bc061e4 <LzmaDec_DecodeToDic+0x1b4>
    3bc06290:	44ad                	li	s1,11
    3bc06292:	bd05                	j	3bc060c2 <LzmaDec_DecodeToDic+0x92>
    3bc06294:	67a2                	ld	a5,8(sp)
    3bc06296:	ec0787e3          	beqz	a5,3bc06164 <LzmaDec_DecodeToDic+0x134>
    3bc0629a:	4789                	li	a5,2
    3bc0629c:	00f9a023          	sw	a5,0(s3)
    3bc062a0:	b505                	j	3bc060c0 <LzmaDec_DecodeToDic+0x90>
    3bc062a2:	67a2                	ld	a5,8(sp)
    3bc062a4:	ec0780e3          	beqz	a5,3bc06164 <LzmaDec_DecodeToDic+0x134>
    3bc062a8:	4c85                	li	s9,1
    3bc062aa:	b5c1                	j	3bc0616a <LzmaDec_DecodeToDic+0x13a>

000000003bc062ac <LzmaDec_FreeProbs>:
    3bc062ac:	1141                	addi	sp,sp,-16
    3bc062ae:	e022                	sd	s0,0(sp)
    3bc062b0:	842a                	mv	s0,a0
    3bc062b2:	659c                	ld	a5,8(a1)
    3bc062b4:	852e                	mv	a0,a1
    3bc062b6:	640c                	ld	a1,8(s0)
    3bc062b8:	e406                	sd	ra,8(sp)
    3bc062ba:	9782                	jalr	a5
    3bc062bc:	60a2                	ld	ra,8(sp)
    3bc062be:	00043423          	sd	zero,8(s0)
    3bc062c2:	6402                	ld	s0,0(sp)
    3bc062c4:	0141                	addi	sp,sp,16
    3bc062c6:	8082                	ret

000000003bc062c8 <LzmaDec_AllocateProbs2.isra.0>:
    3bc062c8:	1101                	addi	sp,sp,-32
    3bc062ca:	6518                	ld	a4,8(a0)
    3bc062cc:	e426                	sd	s1,8(sp)
    3bc062ce:	9db1                	addw	a1,a1,a2
    3bc062d0:	30000493          	li	s1,768
    3bc062d4:	e822                	sd	s0,16(sp)
    3bc062d6:	00b494bb          	sllw	s1,s1,a1
    3bc062da:	ec06                	sd	ra,24(sp)
    3bc062dc:	e04a                	sd	s2,0(sp)
    3bc062de:	842a                	mv	s0,a0
    3bc062e0:	7c04849b          	addiw	s1,s1,1984
    3bc062e4:	c719                	beqz	a4,3bc062f2 <LzmaDec_AllocateProbs2.isra.0+0x2a>
    3bc062e6:	5138                	lw	a4,96(a0)
    3bc062e8:	0004879b          	sext.w	a5,s1
    3bc062ec:	4501                	li	a0,0
    3bc062ee:	02f70a63          	beq	a4,a5,3bc06322 <LzmaDec_AllocateProbs2.isra.0+0x5a>
    3bc062f2:	85b6                	mv	a1,a3
    3bc062f4:	8522                	mv	a0,s0
    3bc062f6:	8936                	mv	s2,a3
    3bc062f8:	fb5ff0ef          	jal	ra,3bc062ac <LzmaDec_FreeProbs>
    3bc062fc:	00093783          	ld	a5,0(s2)
    3bc06300:	02049713          	slli	a4,s1,0x20
    3bc06304:	01f75593          	srli	a1,a4,0x1f
    3bc06308:	854a                	mv	a0,s2
    3bc0630a:	9782                	jalr	a5
    3bc0630c:	87aa                	mv	a5,a0
    3bc0630e:	e408                	sd	a0,8(s0)
    3bc06310:	4509                	li	a0,2
    3bc06312:	cb81                	beqz	a5,3bc06322 <LzmaDec_AllocateProbs2.isra.0+0x5a>
    3bc06314:	6505                	lui	a0,0x1
    3bc06316:	d0050513          	addi	a0,a0,-768 # d00 <__BSS_SIZE__-0x4f10>
    3bc0631a:	97aa                	add	a5,a5,a0
    3bc0631c:	e81c                	sd	a5,16(s0)
    3bc0631e:	d024                	sw	s1,96(s0)
    3bc06320:	4501                	li	a0,0
    3bc06322:	60e2                	ld	ra,24(sp)
    3bc06324:	6442                	ld	s0,16(sp)
    3bc06326:	64a2                	ld	s1,8(sp)
    3bc06328:	6902                	ld	s2,0(sp)
    3bc0632a:	6105                	addi	sp,sp,32
    3bc0632c:	8082                	ret

000000003bc0632e <LzmaProps_Decode>:
    3bc0632e:	4791                	li	a5,4
    3bc06330:	00c7e463          	bltu	a5,a2,3bc06338 <LzmaProps_Decode+0xa>
    3bc06334:	4511                	li	a0,4
    3bc06336:	8082                	ret
    3bc06338:	0015a703          	lw	a4,1(a1)
    3bc0633c:	6685                	lui	a3,0x1
    3bc0633e:	87ba                	mv	a5,a4
    3bc06340:	00d77363          	bgeu	a4,a3,3bc06346 <LzmaProps_Decode+0x18>
    3bc06344:	6785                	lui	a5,0x1
    3bc06346:	c15c                	sw	a5,4(a0)
    3bc06348:	0005c783          	lbu	a5,0(a1)
    3bc0634c:	0e000713          	li	a4,224
    3bc06350:	fef762e3          	bltu	a4,a5,3bc06334 <LzmaProps_Decode+0x6>
    3bc06354:	4725                	li	a4,9
    3bc06356:	02e7f6bb          	remuw	a3,a5,a4
    3bc0635a:	02e7d7bb          	divuw	a5,a5,a4
    3bc0635e:	4715                	li	a4,5
    3bc06360:	00d50023          	sb	a3,0(a0)
    3bc06364:	02e7d6bb          	divuw	a3,a5,a4
    3bc06368:	02e7f7bb          	remuw	a5,a5,a4
    3bc0636c:	00d50123          	sb	a3,2(a0)
    3bc06370:	00f500a3          	sb	a5,1(a0)
    3bc06374:	4501                	li	a0,0
    3bc06376:	8082                	ret

000000003bc06378 <LzmaDec_AllocateProbs>:
    3bc06378:	7179                	addi	sp,sp,-48
    3bc0637a:	f022                	sd	s0,32(sp)
    3bc0637c:	842a                	mv	s0,a0
    3bc0637e:	0828                	addi	a0,sp,24
    3bc06380:	f406                	sd	ra,40(sp)
    3bc06382:	e436                	sd	a3,8(sp)
    3bc06384:	fabff0ef          	jal	ra,3bc0632e <LzmaProps_Decode>
    3bc06388:	ed01                	bnez	a0,3bc063a0 <LzmaDec_AllocateProbs+0x28>
    3bc0638a:	66a2                	ld	a3,8(sp)
    3bc0638c:	01914603          	lbu	a2,25(sp)
    3bc06390:	01814583          	lbu	a1,24(sp)
    3bc06394:	8522                	mv	a0,s0
    3bc06396:	f33ff0ef          	jal	ra,3bc062c8 <LzmaDec_AllocateProbs2.isra.0>
    3bc0639a:	e119                	bnez	a0,3bc063a0 <LzmaDec_AllocateProbs+0x28>
    3bc0639c:	67e2                	ld	a5,24(sp)
    3bc0639e:	e01c                	sd	a5,0(s0)
    3bc063a0:	70a2                	ld	ra,40(sp)
    3bc063a2:	7402                	ld	s0,32(sp)
    3bc063a4:	6145                	addi	sp,sp,48
    3bc063a6:	8082                	ret

000000003bc063a8 <LzmaDecode>:
    3bc063a8:	7155                	addi	sp,sp,-208
    3bc063aa:	e1a2                	sd	s0,192(sp)
    3bc063ac:	f152                	sd	s4,160(sp)
    3bc063ae:	ed56                	sd	s5,152(sp)
    3bc063b0:	e586                	sd	ra,200(sp)
    3bc063b2:	fd26                	sd	s1,184(sp)
    3bc063b4:	f94a                	sd	s2,176(sp)
    3bc063b6:	f54e                	sd	s3,168(sp)
    3bc063b8:	e95a                	sd	s6,144(sp)
    3bc063ba:	e55e                	sd	s7,136(sp)
    3bc063bc:	e162                	sd	s8,128(sp)
    3bc063be:	0005ba03          	ld	s4,0(a1)
    3bc063c2:	0006ba83          	ld	s5,0(a3) # 1000 <__BSS_SIZE__-0x4c10>
    3bc063c6:	0006b023          	sd	zero,0(a3)
    3bc063ca:	0005b023          	sd	zero,0(a1)
    3bc063ce:	833a                	mv	t1,a4
    3bc063d0:	0008a023          	sw	zero,0(a7)
    3bc063d4:	4711                	li	a4,4
    3bc063d6:	4419                	li	s0,6
    3bc063d8:	07577063          	bgeu	a4,s5,3bc06438 <LzmaDecode+0x90>
    3bc063dc:	84b6                	mv	s1,a3
    3bc063de:	66ce                	ld	a3,208(sp)
    3bc063e0:	8bb2                	mv	s7,a2
    3bc063e2:	8c2e                	mv	s8,a1
    3bc063e4:	89aa                	mv	s3,a0
    3bc063e6:	863e                	mv	a2,a5
    3bc063e8:	859a                	mv	a1,t1
    3bc063ea:	850a                	mv	a0,sp
    3bc063ec:	8946                	mv	s2,a7
    3bc063ee:	8b42                	mv	s6,a6
    3bc063f0:	ec02                	sd	zero,24(sp)
    3bc063f2:	e402                	sd	zero,8(sp)
    3bc063f4:	f85ff0ef          	jal	ra,3bc06378 <LzmaDec_AllocateProbs>
    3bc063f8:	842a                	mv	s0,a0
    3bc063fa:	ed1d                	bnez	a0,3bc06438 <LzmaDecode+0x90>
    3bc063fc:	850a                	mv	a0,sp
    3bc063fe:	ec4e                	sd	s3,24(sp)
    3bc06400:	f052                	sd	s4,32(sp)
    3bc06402:	c1bff0ef          	jal	ra,3bc0601c <LzmaDec_Init>
    3bc06406:	87ca                	mv	a5,s2
    3bc06408:	0154b023          	sd	s5,0(s1)
    3bc0640c:	875a                	mv	a4,s6
    3bc0640e:	86a6                	mv	a3,s1
    3bc06410:	865e                	mv	a2,s7
    3bc06412:	85d2                	mv	a1,s4
    3bc06414:	850a                	mv	a0,sp
    3bc06416:	c1bff0ef          	jal	ra,3bc06030 <LzmaDec_DecodeToDic>
    3bc0641a:	77a2                	ld	a5,40(sp)
    3bc0641c:	842a                	mv	s0,a0
    3bc0641e:	00fc3023          	sd	a5,0(s8)
    3bc06422:	e519                	bnez	a0,3bc06430 <LzmaDecode+0x88>
    3bc06424:	00092703          	lw	a4,0(s2)
    3bc06428:	478d                	li	a5,3
    3bc0642a:	00f71363          	bne	a4,a5,3bc06430 <LzmaDecode+0x88>
    3bc0642e:	4419                	li	s0,6
    3bc06430:	65ce                	ld	a1,208(sp)
    3bc06432:	850a                	mv	a0,sp
    3bc06434:	e79ff0ef          	jal	ra,3bc062ac <LzmaDec_FreeProbs>
    3bc06438:	60ae                	ld	ra,200(sp)
    3bc0643a:	8522                	mv	a0,s0
    3bc0643c:	640e                	ld	s0,192(sp)
    3bc0643e:	74ea                	ld	s1,184(sp)
    3bc06440:	794a                	ld	s2,176(sp)
    3bc06442:	79aa                	ld	s3,168(sp)
    3bc06444:	7a0a                	ld	s4,160(sp)
    3bc06446:	6aea                	ld	s5,152(sp)
    3bc06448:	6b4a                	ld	s6,144(sp)
    3bc0644a:	6baa                	ld	s7,136(sp)
    3bc0644c:	6c0a                	ld	s8,128(sp)
    3bc0644e:	6169                	addi	sp,sp,208
    3bc06450:	8082                	ret

000000003bc06452 <LZ4F_readLE32>:
    3bc06452:	00154783          	lbu	a5,1(a0)
    3bc06456:	00254703          	lbu	a4,2(a0)
    3bc0645a:	00054683          	lbu	a3,0(a0)
    3bc0645e:	00354503          	lbu	a0,3(a0)
    3bc06462:	0107171b          	slliw	a4,a4,0x10
    3bc06466:	0087979b          	slliw	a5,a5,0x8
    3bc0646a:	9fb9                	addw	a5,a5,a4
    3bc0646c:	9fb5                	addw	a5,a5,a3
    3bc0646e:	0185151b          	slliw	a0,a0,0x18
    3bc06472:	9d3d                	addw	a0,a0,a5
    3bc06474:	8082                	ret

000000003bc06476 <LZ4_decompress_safe_withSmallPrefix>:
    3bc06476:	40e58733          	sub	a4,a1,a4
    3bc0647a:	26050763          	beqz	a0,3bc066e8 <LZ4_decompress_safe_withSmallPrefix+0x272>
    3bc0647e:	00c50e33          	add	t3,a0,a2
    3bc06482:	7119                	addi	sp,sp,-128
    3bc06484:	ff0e0793          	addi	a5,t3,-16 # fffff0 <__BSS_SIZE__+0xffa3e0>
    3bc06488:	ecce                	sd	s3,88(sp)
    3bc0648a:	00d58eb3          	add	t4,a1,a3
    3bc0648e:	fc86                	sd	ra,120(sp)
    3bc06490:	f8a2                	sd	s0,112(sp)
    3bc06492:	f4a6                	sd	s1,104(sp)
    3bc06494:	f0ca                	sd	s2,96(sp)
    3bc06496:	e8d2                	sd	s4,80(sp)
    3bc06498:	e4d6                	sd	s5,72(sp)
    3bc0649a:	e0da                	sd	s6,64(sp)
    3bc0649c:	fc5e                	sd	s7,56(sp)
    3bc0649e:	f862                	sd	s8,48(sp)
    3bc064a0:	f466                	sd	s9,40(sp)
    3bc064a2:	f06a                	sd	s10,32(sp)
    3bc064a4:	ec6e                	sd	s11,24(sp)
    3bc064a6:	e43e                	sd	a5,8(sp)
    3bc064a8:	832a                	mv	t1,a0
    3bc064aa:	fe0e8993          	addi	s3,t4,-32
    3bc064ae:	ea95                	bnez	a3,3bc064e2 <LZ4_decompress_safe_withSmallPrefix+0x6c>
    3bc064b0:	4785                	li	a5,1
    3bc064b2:	557d                	li	a0,-1
    3bc064b4:	00f61863          	bne	a2,a5,3bc064c4 <LZ4_decompress_safe_withSmallPrefix+0x4e>
    3bc064b8:	00034503          	lbu	a0,0(t1)
    3bc064bc:	00a03533          	snez	a0,a0
    3bc064c0:	0005250b          	ext	a0,a0,0,0
    3bc064c4:	70e6                	ld	ra,120(sp)
    3bc064c6:	7446                	ld	s0,112(sp)
    3bc064c8:	74a6                	ld	s1,104(sp)
    3bc064ca:	7906                	ld	s2,96(sp)
    3bc064cc:	69e6                	ld	s3,88(sp)
    3bc064ce:	6a46                	ld	s4,80(sp)
    3bc064d0:	6aa6                	ld	s5,72(sp)
    3bc064d2:	6b06                	ld	s6,64(sp)
    3bc064d4:	7be2                	ld	s7,56(sp)
    3bc064d6:	7c42                	ld	s8,48(sp)
    3bc064d8:	7ca2                	ld	s9,40(sp)
    3bc064da:	7d02                	ld	s10,32(sp)
    3bc064dc:	6de2                	ld	s11,24(sp)
    3bc064de:	6109                	addi	sp,sp,128
    3bc064e0:	8082                	ret
    3bc064e2:	557d                	li	a0,-1
    3bc064e4:	d265                	beqz	a2,3bc064c4 <LZ4_decompress_safe_withSmallPrefix+0x4e>
    3bc064e6:	879a                	mv	a5,t1
    3bc064e8:	882e                	mv	a6,a1
    3bc064ea:	4fbd                	li	t6,15
    3bc064ec:	429d                	li	t0,7
    3bc064ee:	ff4e8393          	addi	t2,t4,-12
    3bc064f2:	4a41                	li	s4,16
    3bc064f4:	ff9e8f13          	addi	t5,t4,-7
    3bc064f8:	ffbe8a93          	addi	s5,t4,-5
    3bc064fc:	00005b17          	auipc	s6,0x5
    3bc06500:	c9cb0b13          	addi	s6,s6,-868 # 3bc0b198 <inc32table>
    3bc06504:	00005b97          	auipc	s7,0x5
    3bc06508:	c74b8b93          	addi	s7,s7,-908 # 3bc0b178 <dec64table>
    3bc0650c:	ffce0c13          	addi	s8,t3,-4
    3bc06510:	0ff00493          	li	s1,255
    3bc06514:	ff8e0c93          	addi	s9,t3,-8
    3bc06518:	ff1e0913          	addi	s2,t3,-15
    3bc0651c:	5d7d                	li	s10,-1
    3bc0651e:	9817c50b          	lbuia	a0,(a5),1,0
    3bc06522:	00455693          	srli	a3,a0,0x4
    3bc06526:	0045561b          	srliw	a2,a0,0x4
    3bc0652a:	07f68063          	beq	a3,t6,3bc0658a <LZ4_decompress_safe_withSmallPrefix+0x114>
    3bc0652e:	0109b8b3          	sltu	a7,s3,a6
    3bc06532:	0018c893          	xori	a7,a7,1
    3bc06536:	0ff8f893          	andi	a7,a7,255
    3bc0653a:	00c80433          	add	s0,a6,a2
    3bc0653e:	00c786b3          	add	a3,a5,a2
    3bc06542:	06088d63          	beqz	a7,3bc065bc <LZ4_decompress_safe_withSmallPrefix+0x146>
    3bc06546:	68a2                	ld	a7,8(sp)
    3bc06548:	0717fa63          	bgeu	a5,a7,3bc065bc <LZ4_decompress_safe_withSmallPrefix+0x146>
    3bc0654c:	6390                	ld	a2,0(a5)
    3bc0654e:	893d                	andi	a0,a0,15
    3bc06550:	00c83023          	sd	a2,0(a6)
    3bc06554:	679c                	ld	a5,8(a5)
    3bc06556:	862a                	mv	a2,a0
    3bc06558:	00f83423          	sd	a5,8(a6)
    3bc0655c:	87b6                	mv	a5,a3
    3bc0655e:	b827c88b          	lhuia	a7,(a5),2,0
    3bc06562:	411406b3          	sub	a3,s0,a7
    3bc06566:	0bf50763          	beq	a0,t6,3bc06614 <LZ4_decompress_safe_withSmallPrefix+0x19e>
    3bc0656a:	0d12f563          	bgeu	t0,a7,3bc06634 <LZ4_decompress_safe_withSmallPrefix+0x1be>
    3bc0656e:	0ce6e363          	bltu	a3,a4,3bc06634 <LZ4_decompress_safe_withSmallPrefix+0x1be>
    3bc06572:	6290                	ld	a2,0(a3)
    3bc06574:	0511                	addi	a0,a0,4
    3bc06576:	00a40833          	add	a6,s0,a0
    3bc0657a:	e010                	sd	a2,0(s0)
    3bc0657c:	6690                	ld	a2,8(a3)
    3bc0657e:	e410                	sd	a2,8(s0)
    3bc06580:	0106d683          	lhu	a3,16(a3)
    3bc06584:	00d41823          	sh	a3,16(s0)
    3bc06588:	bf59                	j	3bc0651e <LZ4_decompress_safe_withSmallPrefix+0xa8>
    3bc0658a:	0527fd63          	bgeu	a5,s2,3bc065e4 <LZ4_decompress_safe_withSmallPrefix+0x16e>
    3bc0658e:	4601                	li	a2,0
    3bc06590:	9817c88b          	lbuia	a7,(a5),1,0
    3bc06594:	00c8863b          	addw	a2,a7,a2
    3bc06598:	0527f963          	bgeu	a5,s2,3bc065ea <LZ4_decompress_safe_withSmallPrefix+0x174>
    3bc0659c:	fe988ae3          	beq	a7,s1,3bc06590 <LZ4_decompress_safe_withSmallPrefix+0x11a>
    3bc065a0:	4681                	li	a3,0
    3bc065a2:	7c06360b          	extu	a2,a2,31,0
    3bc065a6:	063d                	addi	a2,a2,15
    3bc065a8:	13a68a63          	beq	a3,s10,3bc066dc <LZ4_decompress_safe_withSmallPrefix+0x266>
    3bc065ac:	010606b3          	add	a3,a2,a6
    3bc065b0:	1306e663          	bltu	a3,a6,3bc066dc <LZ4_decompress_safe_withSmallPrefix+0x266>
    3bc065b4:	00f606b3          	add	a3,a2,a5
    3bc065b8:	12f6e263          	bltu	a3,a5,3bc066dc <LZ4_decompress_safe_withSmallPrefix+0x266>
    3bc065bc:	00c80433          	add	s0,a6,a2
    3bc065c0:	00c788b3          	add	a7,a5,a2
    3bc065c4:	0083e463          	bltu	t2,s0,3bc065cc <LZ4_decompress_safe_withSmallPrefix+0x156>
    3bc065c8:	031cf363          	bgeu	s9,a7,3bc065ee <LZ4_decompress_safe_withSmallPrefix+0x178>
    3bc065cc:	111e1863          	bne	t3,a7,3bc066dc <LZ4_decompress_safe_withSmallPrefix+0x266>
    3bc065d0:	108ee663          	bltu	t4,s0,3bc066dc <LZ4_decompress_safe_withSmallPrefix+0x266>
    3bc065d4:	84ae                	mv	s1,a1
    3bc065d6:	8542                	mv	a0,a6
    3bc065d8:	85be                	mv	a1,a5
    3bc065da:	cf2fa0ef          	jal	ra,3bc00acc <memmove>
    3bc065de:	4094053b          	subw	a0,s0,s1
    3bc065e2:	b5cd                	j	3bc064c4 <LZ4_decompress_safe_withSmallPrefix+0x4e>
    3bc065e4:	56fd                	li	a3,-1
    3bc065e6:	4601                	li	a2,0
    3bc065e8:	bf6d                	j	3bc065a2 <LZ4_decompress_safe_withSmallPrefix+0x12c>
    3bc065ea:	56f9                	li	a3,-2
    3bc065ec:	bf5d                	j	3bc065a2 <LZ4_decompress_safe_withSmallPrefix+0x12c>
    3bc065ee:	4681                	li	a3,0
    3bc065f0:	60d7c60b          	lrd	a2,a5,a3,0
    3bc065f4:	60d8560b          	srd	a2,a6,a3,0
    3bc065f8:	06a1                	addi	a3,a3,8
    3bc065fa:	00d80633          	add	a2,a6,a3
    3bc065fe:	fe8669e3          	bltu	a2,s0,3bc065f0 <LZ4_decompress_safe_withSmallPrefix+0x17a>
    3bc06602:	87c6                	mv	a5,a7
    3bc06604:	b827c88b          	lhuia	a7,(a5),2,0
    3bc06608:	00f57613          	andi	a2,a0,15
    3bc0660c:	411406b3          	sub	a3,s0,a7
    3bc06610:	03f61263          	bne	a2,t6,3bc06634 <LZ4_decompress_safe_withSmallPrefix+0x1be>
    3bc06614:	4601                	li	a2,0
    3bc06616:	9817c80b          	lbuia	a6,(a5),1,0
    3bc0661a:	00c8063b          	addw	a2,a6,a2
    3bc0661e:	0b87ff63          	bgeu	a5,s8,3bc066dc <LZ4_decompress_safe_withSmallPrefix+0x266>
    3bc06622:	fe980ae3          	beq	a6,s1,3bc06616 <LZ4_decompress_safe_withSmallPrefix+0x1a0>
    3bc06626:	7c06360b          	extu	a2,a2,31,0
    3bc0662a:	063d                	addi	a2,a2,15
    3bc0662c:	00860533          	add	a0,a2,s0
    3bc06630:	0a856663          	bltu	a0,s0,3bc066dc <LZ4_decompress_safe_withSmallPrefix+0x266>
    3bc06634:	0611                	addi	a2,a2,4
    3bc06636:	0ae6e363          	bltu	a3,a4,3bc066dc <LZ4_decompress_safe_withSmallPrefix+0x266>
    3bc0663a:	00c40833          	add	a6,s0,a2
    3bc0663e:	0712e463          	bltu	t0,a7,3bc066a6 <LZ4_decompress_safe_withSmallPrefix+0x230>
    3bc06642:	00042023          	sw	zero,0(s0)
    3bc06646:	0006c503          	lbu	a0,0(a3)
    3bc0664a:	00a40023          	sb	a0,0(s0)
    3bc0664e:	0016c503          	lbu	a0,1(a3)
    3bc06652:	00a400a3          	sb	a0,1(s0)
    3bc06656:	0026c503          	lbu	a0,2(a3)
    3bc0665a:	00a40123          	sb	a0,2(s0)
    3bc0665e:	0036c503          	lbu	a0,3(a3)
    3bc06662:	00a401a3          	sb	a0,3(s0)
    3bc06666:	c51b450b          	lrwu	a0,s6,a7,2
    3bc0666a:	00a68db3          	add	s11,a3,a0
    3bc0666e:	40a6c68b          	lrw	a3,a3,a0,0
    3bc06672:	c054                	sw	a3,4(s0)
    3bc06674:	451bc68b          	lrw	a3,s7,a7,2
    3bc06678:	40dd86b3          	sub	a3,s11,a3
    3bc0667c:	0503f363          	bgeu	t2,a6,3bc066c2 <LZ4_decompress_safe_withSmallPrefix+0x24c>
    3bc06680:	050aee63          	bltu	s5,a6,3bc066dc <LZ4_decompress_safe_withSmallPrefix+0x266>
    3bc06684:	0421                	addi	s0,s0,8
    3bc06686:	01e47e63          	bgeu	s0,t5,3bc066a2 <LZ4_decompress_safe_withSmallPrefix+0x22c>
    3bc0668a:	8536                	mv	a0,a3
    3bc0668c:	8622                	mv	a2,s0
    3bc0668e:	7885488b          	ldia	a7,(a0),8,0
    3bc06692:	7886588b          	sdia	a7,(a2),8,0
    3bc06696:	ffe66ce3          	bltu	a2,t5,3bc0668e <LZ4_decompress_safe_withSmallPrefix+0x218>
    3bc0669a:	408f0433          	sub	s0,t5,s0
    3bc0669e:	96a2                	add	a3,a3,s0
    3bc066a0:	847a                	mv	s0,t5
    3bc066a2:	4601                	li	a2,0
    3bc066a4:	a811                	j	3bc066b8 <LZ4_decompress_safe_withSmallPrefix+0x242>
    3bc066a6:	7886c50b          	ldia	a0,(a3),8,0
    3bc066aa:	e008                	sd	a0,0(s0)
    3bc066ac:	bfc1                	j	3bc0667c <LZ4_decompress_safe_withSmallPrefix+0x206>
    3bc066ae:	80c6c50b          	lrbu	a0,a3,a2,0
    3bc066b2:	00c4550b          	srb	a0,s0,a2,0
    3bc066b6:	0605                	addi	a2,a2,1
    3bc066b8:	00c40533          	add	a0,s0,a2
    3bc066bc:	ff0569e3          	bltu	a0,a6,3bc066ae <LZ4_decompress_safe_withSmallPrefix+0x238>
    3bc066c0:	bdb9                	j	3bc0651e <LZ4_decompress_safe_withSmallPrefix+0xa8>
    3bc066c2:	6288                	ld	a0,0(a3)
    3bc066c4:	e408                	sd	a0,8(s0)
    3bc066c6:	e4ca7ce3          	bgeu	s4,a2,3bc0651e <LZ4_decompress_safe_withSmallPrefix+0xa8>
    3bc066ca:	0441                	addi	s0,s0,16
    3bc066cc:	06a1                	addi	a3,a3,8
    3bc066ce:	7886c60b          	ldia	a2,(a3),8,0
    3bc066d2:	7884560b          	sdia	a2,(s0),8,0
    3bc066d6:	ff046ce3          	bltu	s0,a6,3bc066ce <LZ4_decompress_safe_withSmallPrefix+0x258>
    3bc066da:	b591                	j	3bc0651e <LZ4_decompress_safe_withSmallPrefix+0xa8>
    3bc066dc:	40678533          	sub	a0,a5,t1
    3bc066e0:	fff54513          	not	a0,a0
    3bc066e4:	2501                	sext.w	a0,a0
    3bc066e6:	bbf9                	j	3bc064c4 <LZ4_decompress_safe_withSmallPrefix+0x4e>
    3bc066e8:	557d                	li	a0,-1
    3bc066ea:	8082                	ret

000000003bc066ec <LZ4F_updateDict>:
    3bc066ec:	06853803          	ld	a6,104(a0)
    3bc066f0:	7179                	addi	sp,sp,-48
    3bc066f2:	f022                	sd	s0,32(sp)
    3bc066f4:	f406                	sd	ra,40(sp)
    3bc066f6:	ec26                	sd	s1,24(sp)
    3bc066f8:	e84a                	sd	s2,16(sp)
    3bc066fa:	e44e                	sd	s3,8(sp)
    3bc066fc:	842a                	mv	s0,a0
    3bc066fe:	00081363          	bnez	a6,3bc06704 <LZ4F_updateDict+0x18>
    3bc06702:	f12c                	sd	a1,96(a0)
    3bc06704:	7028                	ld	a0,96(s0)
    3bc06706:	010507b3          	add	a5,a0,a6
    3bc0670a:	00f59663          	bne	a1,a5,3bc06716 <LZ4F_updateDict+0x2a>
    3bc0670e:	00c807b3          	add	a5,a6,a2
    3bc06712:	f43c                	sd	a5,104(s0)
    3bc06714:	a811                	j	3bc06728 <LZ4F_updateDict+0x3c>
    3bc06716:	40d588b3          	sub	a7,a1,a3
    3bc0671a:	98b2                	add	a7,a7,a2
    3bc0671c:	67c1                	lui	a5,0x10
    3bc0671e:	00f8ec63          	bltu	a7,a5,3bc06736 <LZ4F_updateDict+0x4a>
    3bc06722:	f034                	sd	a3,96(s0)
    3bc06724:	07143423          	sd	a7,104(s0)
    3bc06728:	70a2                	ld	ra,40(sp)
    3bc0672a:	7402                	ld	s0,32(sp)
    3bc0672c:	64e2                	ld	s1,24(sp)
    3bc0672e:	6942                	ld	s2,16(sp)
    3bc06730:	69a2                	ld	s3,8(sp)
    3bc06732:	6145                	addi	sp,sp,48
    3bc06734:	8082                	ret
    3bc06736:	6c34                	ld	a3,88(s0)
    3bc06738:	84b2                	mv	s1,a2
    3bc0673a:	89ae                	mv	s3,a1
    3bc0673c:	cb29                	beqz	a4,3bc0678e <LZ4F_updateDict+0xa2>
    3bc0673e:	00d51563          	bne	a0,a3,3bc06748 <LZ4F_updateDict+0x5c>
    3bc06742:	00c807b3          	add	a5,a6,a2
    3bc06746:	b7f1                	j	3bc06712 <LZ4F_updateDict+0x26>
    3bc06748:	07043903          	ld	s2,112(s0)
    3bc0674c:	604c                	ld	a1,128(s0)
    3bc0674e:	7c38                	ld	a4,120(s0)
    3bc06750:	40d90933          	sub	s2,s2,a3
    3bc06754:	40b805b3          	sub	a1,a6,a1
    3bc06758:	4601                	li	a2,0
    3bc0675a:	00e7ea63          	bltu	a5,a4,3bc0676e <LZ4F_updateDict+0x82>
    3bc0675e:	40e78633          	sub	a2,a5,a4
    3bc06762:	00c937b3          	sltu	a5,s2,a2
    3bc06766:	0017c793          	xori	a5,a5,1
    3bc0676a:	40f9160b          	mveqz	a2,s2,a5
    3bc0676e:	40c907b3          	sub	a5,s2,a2
    3bc06772:	8d91                	sub	a1,a1,a2
    3bc06774:	95aa                	add	a1,a1,a0
    3bc06776:	00f68533          	add	a0,a3,a5
    3bc0677a:	af2fa0ef          	jal	ra,3bc00a6c <memcpy>
    3bc0677e:	6050                	ld	a2,128(s0)
    3bc06780:	6c3c                	ld	a5,88(s0)
    3bc06782:	94b2                	add	s1,s1,a2
    3bc06784:	9926                	add	s2,s2,s1
    3bc06786:	f03c                	sd	a5,96(s0)
    3bc06788:	07243423          	sd	s2,104(s0)
    3bc0678c:	bf71                	j	3bc06728 <LZ4F_updateDict+0x3c>
    3bc0678e:	02d51e63          	bne	a0,a3,3bc067ca <LZ4F_updateDict+0xde>
    3bc06792:	7c14                	ld	a3,56(s0)
    3bc06794:	00c80733          	add	a4,a6,a2
    3bc06798:	00e6fe63          	bgeu	a3,a4,3bc067b4 <LZ4F_updateDict+0xc8>
    3bc0679c:	40c78933          	sub	s2,a5,a2
    3bc067a0:	40f607b3          	sub	a5,a2,a5
    3bc067a4:	97c2                	add	a5,a5,a6
    3bc067a6:	864a                	mv	a2,s2
    3bc067a8:	00f505b3          	add	a1,a0,a5
    3bc067ac:	ac0fa0ef          	jal	ra,3bc00a6c <memcpy>
    3bc067b0:	07243423          	sd	s2,104(s0)
    3bc067b4:	6c28                	ld	a0,88(s0)
    3bc067b6:	743c                	ld	a5,104(s0)
    3bc067b8:	8626                	mv	a2,s1
    3bc067ba:	85ce                	mv	a1,s3
    3bc067bc:	953e                	add	a0,a0,a5
    3bc067be:	aaefa0ef          	jal	ra,3bc00a6c <memcpy>
    3bc067c2:	7430                	ld	a2,104(s0)
    3bc067c4:	94b2                	add	s1,s1,a2
    3bc067c6:	f424                	sd	s1,104(s0)
    3bc067c8:	b785                	j	3bc06728 <LZ4F_updateDict+0x3c>
    3bc067ca:	8f91                	sub	a5,a5,a2
    3bc067cc:	0107b733          	sltu	a4,a5,a6
    3bc067d0:	00174713          	xori	a4,a4,1
    3bc067d4:	42e8178b          	mvnez	a5,a6,a4
    3bc067d8:	40f805b3          	sub	a1,a6,a5
    3bc067dc:	863e                	mv	a2,a5
    3bc067de:	95aa                	add	a1,a1,a0
    3bc067e0:	8536                	mv	a0,a3
    3bc067e2:	893e                	mv	s2,a5
    3bc067e4:	a88fa0ef          	jal	ra,3bc00a6c <memcpy>
    3bc067e8:	6c28                	ld	a0,88(s0)
    3bc067ea:	8626                	mv	a2,s1
    3bc067ec:	85ce                	mv	a1,s3
    3bc067ee:	954a                	add	a0,a0,s2
    3bc067f0:	a7cfa0ef          	jal	ra,3bc00a6c <memcpy>
    3bc067f4:	6c3c                	ld	a5,88(s0)
    3bc067f6:	94ca                	add	s1,s1,s2
    3bc067f8:	f03c                	sd	a5,96(s0)
    3bc067fa:	b7f1                	j	3bc067c6 <LZ4F_updateDict+0xda>

000000003bc067fc <LZ4_decompress_safe>:
    3bc067fc:	26050463          	beqz	a0,3bc06a64 <LZ4_decompress_safe+0x268>
    3bc06800:	7159                	addi	sp,sp,-112
    3bc06802:	eca6                	sd	s1,88(sp)
    3bc06804:	00c50833          	add	a6,a0,a2
    3bc06808:	00d588b3          	add	a7,a1,a3
    3bc0680c:	f486                	sd	ra,104(sp)
    3bc0680e:	f0a2                	sd	s0,96(sp)
    3bc06810:	e8ca                	sd	s2,80(sp)
    3bc06812:	e4ce                	sd	s3,72(sp)
    3bc06814:	e0d2                	sd	s4,64(sp)
    3bc06816:	fc56                	sd	s5,56(sp)
    3bc06818:	f85a                	sd	s6,48(sp)
    3bc0681a:	f45e                	sd	s7,40(sp)
    3bc0681c:	f062                	sd	s8,32(sp)
    3bc0681e:	ec66                	sd	s9,24(sp)
    3bc06820:	e86a                	sd	s10,16(sp)
    3bc06822:	e46e                	sd	s11,8(sp)
    3bc06824:	ff080393          	addi	t2,a6,-16
    3bc06828:	fe088493          	addi	s1,a7,-32
    3bc0682c:	ea9d                	bnez	a3,3bc06862 <LZ4_decompress_safe+0x66>
    3bc0682e:	4705                	li	a4,1
    3bc06830:	57fd                	li	a5,-1
    3bc06832:	00e61863          	bne	a2,a4,3bc06842 <LZ4_decompress_safe+0x46>
    3bc06836:	00054783          	lbu	a5,0(a0)
    3bc0683a:	00f037b3          	snez	a5,a5
    3bc0683e:	0007a78b          	ext	a5,a5,0,0
    3bc06842:	70a6                	ld	ra,104(sp)
    3bc06844:	7406                	ld	s0,96(sp)
    3bc06846:	64e6                	ld	s1,88(sp)
    3bc06848:	6946                	ld	s2,80(sp)
    3bc0684a:	69a6                	ld	s3,72(sp)
    3bc0684c:	6a06                	ld	s4,64(sp)
    3bc0684e:	7ae2                	ld	s5,56(sp)
    3bc06850:	7b42                	ld	s6,48(sp)
    3bc06852:	7ba2                	ld	s7,40(sp)
    3bc06854:	7c02                	ld	s8,32(sp)
    3bc06856:	6ce2                	ld	s9,24(sp)
    3bc06858:	6d42                	ld	s10,16(sp)
    3bc0685a:	6da2                	ld	s11,8(sp)
    3bc0685c:	853e                	mv	a0,a5
    3bc0685e:	6165                	addi	sp,sp,112
    3bc06860:	8082                	ret
    3bc06862:	57fd                	li	a5,-1
    3bc06864:	de79                	beqz	a2,3bc06842 <LZ4_decompress_safe+0x46>
    3bc06866:	87aa                	mv	a5,a0
    3bc06868:	872e                	mv	a4,a1
    3bc0686a:	4e3d                	li	t3,15
    3bc0686c:	4e9d                	li	t4,7
    3bc0686e:	ff488f13          	addi	t5,a7,-12
    3bc06872:	4941                	li	s2,16
    3bc06874:	ff988313          	addi	t1,a7,-7
    3bc06878:	ffb88993          	addi	s3,a7,-5
    3bc0687c:	00005a17          	auipc	s4,0x5
    3bc06880:	91ca0a13          	addi	s4,s4,-1764 # 3bc0b198 <inc32table>
    3bc06884:	00005a97          	auipc	s5,0x5
    3bc06888:	8f4a8a93          	addi	s5,s5,-1804 # 3bc0b178 <dec64table>
    3bc0688c:	ffc80b13          	addi	s6,a6,-4
    3bc06890:	0ff00f93          	li	t6,255
    3bc06894:	ff880b93          	addi	s7,a6,-8
    3bc06898:	ff180293          	addi	t0,a6,-15
    3bc0689c:	5c7d                	li	s8,-1
    3bc0689e:	9817c68b          	lbuia	a3,(a5),1,0
    3bc068a2:	0046d413          	srli	s0,a3,0x4
    3bc068a6:	0046d61b          	srliw	a2,a3,0x4
    3bc068aa:	05c40d63          	beq	s0,t3,3bc06904 <LZ4_decompress_safe+0x108>
    3bc068ae:	00e4bd33          	sltu	s10,s1,a4
    3bc068b2:	001d4d13          	xori	s10,s10,1
    3bc068b6:	0ffd7d13          	andi	s10,s10,255
    3bc068ba:	00c70433          	add	s0,a4,a2
    3bc068be:	00c78cb3          	add	s9,a5,a2
    3bc068c2:	060d0a63          	beqz	s10,3bc06936 <LZ4_decompress_safe+0x13a>
    3bc068c6:	0677f863          	bgeu	a5,t2,3bc06936 <LZ4_decompress_safe+0x13a>
    3bc068ca:	6390                	ld	a2,0(a5)
    3bc068cc:	e310                	sd	a2,0(a4)
    3bc068ce:	679c                	ld	a5,8(a5)
    3bc068d0:	e71c                	sd	a5,8(a4)
    3bc068d2:	87e6                	mv	a5,s9
    3bc068d4:	b827cc8b          	lhuia	s9,(a5),2,0
    3bc068d8:	00f6f713          	andi	a4,a3,15
    3bc068dc:	86ba                	mv	a3,a4
    3bc068de:	41940633          	sub	a2,s0,s9
    3bc068e2:	0bc70563          	beq	a4,t3,3bc0698c <LZ4_decompress_safe+0x190>
    3bc068e6:	0d9ef363          	bgeu	t4,s9,3bc069ac <LZ4_decompress_safe+0x1b0>
    3bc068ea:	0cb66163          	bltu	a2,a1,3bc069ac <LZ4_decompress_safe+0x1b0>
    3bc068ee:	6214                	ld	a3,0(a2)
    3bc068f0:	0711                	addi	a4,a4,4
    3bc068f2:	9722                	add	a4,a4,s0
    3bc068f4:	e014                	sd	a3,0(s0)
    3bc068f6:	6614                	ld	a3,8(a2)
    3bc068f8:	e414                	sd	a3,8(s0)
    3bc068fa:	01065683          	lhu	a3,16(a2)
    3bc068fe:	00d41823          	sh	a3,16(s0)
    3bc06902:	bf71                	j	3bc0689e <LZ4_decompress_safe+0xa2>
    3bc06904:	0457fd63          	bgeu	a5,t0,3bc0695e <LZ4_decompress_safe+0x162>
    3bc06908:	4601                	li	a2,0
    3bc0690a:	9817cc8b          	lbuia	s9,(a5),1,0
    3bc0690e:	00cc863b          	addw	a2,s9,a2
    3bc06912:	0457f963          	bgeu	a5,t0,3bc06964 <LZ4_decompress_safe+0x168>
    3bc06916:	fffc8ae3          	beq	s9,t6,3bc0690a <LZ4_decompress_safe+0x10e>
    3bc0691a:	4401                	li	s0,0
    3bc0691c:	7c06360b          	extu	a2,a2,31,0
    3bc06920:	063d                	addi	a2,a2,15
    3bc06922:	13840c63          	beq	s0,s8,3bc06a5a <LZ4_decompress_safe+0x25e>
    3bc06926:	00e60433          	add	s0,a2,a4
    3bc0692a:	12e46863          	bltu	s0,a4,3bc06a5a <LZ4_decompress_safe+0x25e>
    3bc0692e:	00f60433          	add	s0,a2,a5
    3bc06932:	12f46463          	bltu	s0,a5,3bc06a5a <LZ4_decompress_safe+0x25e>
    3bc06936:	00c70433          	add	s0,a4,a2
    3bc0693a:	00c78cb3          	add	s9,a5,a2
    3bc0693e:	008f6463          	bltu	t5,s0,3bc06946 <LZ4_decompress_safe+0x14a>
    3bc06942:	039bf363          	bgeu	s7,s9,3bc06968 <LZ4_decompress_safe+0x16c>
    3bc06946:	11981a63          	bne	a6,s9,3bc06a5a <LZ4_decompress_safe+0x25e>
    3bc0694a:	1088e863          	bltu	a7,s0,3bc06a5a <LZ4_decompress_safe+0x25e>
    3bc0694e:	84ae                	mv	s1,a1
    3bc06950:	853a                	mv	a0,a4
    3bc06952:	85be                	mv	a1,a5
    3bc06954:	978fa0ef          	jal	ra,3bc00acc <memmove>
    3bc06958:	409407bb          	subw	a5,s0,s1
    3bc0695c:	b5dd                	j	3bc06842 <LZ4_decompress_safe+0x46>
    3bc0695e:	547d                	li	s0,-1
    3bc06960:	4601                	li	a2,0
    3bc06962:	bf6d                	j	3bc0691c <LZ4_decompress_safe+0x120>
    3bc06964:	5479                	li	s0,-2
    3bc06966:	bf5d                	j	3bc0691c <LZ4_decompress_safe+0x120>
    3bc06968:	4601                	li	a2,0
    3bc0696a:	60c7cd0b          	lrd	s10,a5,a2,0
    3bc0696e:	60c75d0b          	srd	s10,a4,a2,0
    3bc06972:	0621                	addi	a2,a2,8
    3bc06974:	00c70d33          	add	s10,a4,a2
    3bc06978:	fe8d69e3          	bltu	s10,s0,3bc0696a <LZ4_decompress_safe+0x16e>
    3bc0697c:	87e6                	mv	a5,s9
    3bc0697e:	b827cc8b          	lhuia	s9,(a5),2,0
    3bc06982:	8abd                	andi	a3,a3,15
    3bc06984:	41940633          	sub	a2,s0,s9
    3bc06988:	03c69263          	bne	a3,t3,3bc069ac <LZ4_decompress_safe+0x1b0>
    3bc0698c:	4681                	li	a3,0
    3bc0698e:	9817cd0b          	lbuia	s10,(a5),1,0
    3bc06992:	00dd06bb          	addw	a3,s10,a3
    3bc06996:	0d67f263          	bgeu	a5,s6,3bc06a5a <LZ4_decompress_safe+0x25e>
    3bc0699a:	fffd0ae3          	beq	s10,t6,3bc0698e <LZ4_decompress_safe+0x192>
    3bc0699e:	7c06b68b          	extu	a3,a3,31,0
    3bc069a2:	06bd                	addi	a3,a3,15
    3bc069a4:	00868733          	add	a4,a3,s0
    3bc069a8:	0a876963          	bltu	a4,s0,3bc06a5a <LZ4_decompress_safe+0x25e>
    3bc069ac:	0691                	addi	a3,a3,4
    3bc069ae:	0ab66663          	bltu	a2,a1,3bc06a5a <LZ4_decompress_safe+0x25e>
    3bc069b2:	00d40733          	add	a4,s0,a3
    3bc069b6:	079ee463          	bltu	t4,s9,3bc06a1e <LZ4_decompress_safe+0x222>
    3bc069ba:	00042023          	sw	zero,0(s0)
    3bc069be:	00064d03          	lbu	s10,0(a2)
    3bc069c2:	01a40023          	sb	s10,0(s0)
    3bc069c6:	00164d03          	lbu	s10,1(a2)
    3bc069ca:	01a400a3          	sb	s10,1(s0)
    3bc069ce:	00264d03          	lbu	s10,2(a2)
    3bc069d2:	01a40123          	sb	s10,2(s0)
    3bc069d6:	00364d03          	lbu	s10,3(a2)
    3bc069da:	01a401a3          	sb	s10,3(s0)
    3bc069de:	c59a4d0b          	lrwu	s10,s4,s9,2
    3bc069e2:	01a60db3          	add	s11,a2,s10
    3bc069e6:	41a6460b          	lrw	a2,a2,s10,0
    3bc069ea:	c050                	sw	a2,4(s0)
    3bc069ec:	459ac60b          	lrw	a2,s5,s9,2
    3bc069f0:	40cd8633          	sub	a2,s11,a2
    3bc069f4:	04ef7463          	bgeu	t5,a4,3bc06a3c <LZ4_decompress_safe+0x240>
    3bc069f8:	06e9e163          	bltu	s3,a4,3bc06a5a <LZ4_decompress_safe+0x25e>
    3bc069fc:	0421                	addi	s0,s0,8
    3bc069fe:	00647e63          	bgeu	s0,t1,3bc06a1a <LZ4_decompress_safe+0x21e>
    3bc06a02:	8cb2                	mv	s9,a2
    3bc06a04:	86a2                	mv	a3,s0
    3bc06a06:	788ccd0b          	ldia	s10,(s9),8,0
    3bc06a0a:	7886dd0b          	sdia	s10,(a3),8,0
    3bc06a0e:	fe66ece3          	bltu	a3,t1,3bc06a06 <LZ4_decompress_safe+0x20a>
    3bc06a12:	40830433          	sub	s0,t1,s0
    3bc06a16:	9622                	add	a2,a2,s0
    3bc06a18:	841a                	mv	s0,t1
    3bc06a1a:	4681                	li	a3,0
    3bc06a1c:	a819                	j	3bc06a32 <LZ4_decompress_safe+0x236>
    3bc06a1e:	78864c8b          	ldia	s9,(a2),8,0
    3bc06a22:	01943023          	sd	s9,0(s0)
    3bc06a26:	b7f9                	j	3bc069f4 <LZ4_decompress_safe+0x1f8>
    3bc06a28:	80d64c8b          	lrbu	s9,a2,a3,0
    3bc06a2c:	00d45c8b          	srb	s9,s0,a3,0
    3bc06a30:	0685                	addi	a3,a3,1
    3bc06a32:	00d40cb3          	add	s9,s0,a3
    3bc06a36:	feece9e3          	bltu	s9,a4,3bc06a28 <LZ4_decompress_safe+0x22c>
    3bc06a3a:	b595                	j	3bc0689e <LZ4_decompress_safe+0xa2>
    3bc06a3c:	00063c83          	ld	s9,0(a2)
    3bc06a40:	01943423          	sd	s9,8(s0)
    3bc06a44:	e4d97de3          	bgeu	s2,a3,3bc0689e <LZ4_decompress_safe+0xa2>
    3bc06a48:	0441                	addi	s0,s0,16
    3bc06a4a:	0621                	addi	a2,a2,8
    3bc06a4c:	7886468b          	ldia	a3,(a2),8,0
    3bc06a50:	7884568b          	sdia	a3,(s0),8,0
    3bc06a54:	fee46ce3          	bltu	s0,a4,3bc06a4c <LZ4_decompress_safe+0x250>
    3bc06a58:	b599                	j	3bc0689e <LZ4_decompress_safe+0xa2>
    3bc06a5a:	8f89                	sub	a5,a5,a0
    3bc06a5c:	fff7c793          	not	a5,a5
    3bc06a60:	2781                	sext.w	a5,a5
    3bc06a62:	b3c5                	j	3bc06842 <LZ4_decompress_safe+0x46>
    3bc06a64:	57fd                	li	a5,-1
    3bc06a66:	853e                	mv	a0,a5
    3bc06a68:	8082                	ret

000000003bc06a6a <LZ4_decompress_safe_withPrefix64k>:
    3bc06a6a:	77c1                	lui	a5,0xffff0
    3bc06a6c:	7119                	addi	sp,sp,-128
    3bc06a6e:	97ae                	add	a5,a5,a1
    3bc06a70:	fc86                	sd	ra,120(sp)
    3bc06a72:	f8a2                	sd	s0,112(sp)
    3bc06a74:	f4a6                	sd	s1,104(sp)
    3bc06a76:	f0ca                	sd	s2,96(sp)
    3bc06a78:	ecce                	sd	s3,88(sp)
    3bc06a7a:	e8d2                	sd	s4,80(sp)
    3bc06a7c:	e4d6                	sd	s5,72(sp)
    3bc06a7e:	e0da                	sd	s6,64(sp)
    3bc06a80:	fc5e                	sd	s7,56(sp)
    3bc06a82:	f862                	sd	s8,48(sp)
    3bc06a84:	f466                	sd	s9,40(sp)
    3bc06a86:	f06a                	sd	s10,32(sp)
    3bc06a88:	ec6e                	sd	s11,24(sp)
    3bc06a8a:	e43e                	sd	a5,8(sp)
    3bc06a8c:	24050263          	beqz	a0,3bc06cd0 <LZ4_decompress_safe_withPrefix64k+0x266>
    3bc06a90:	00c50333          	add	t1,a0,a2
    3bc06a94:	00d58e33          	add	t3,a1,a3
    3bc06a98:	88aa                	mv	a7,a0
    3bc06a9a:	ff030913          	addi	s2,t1,-16
    3bc06a9e:	fe0e0993          	addi	s3,t3,-32
    3bc06aa2:	ea95                	bnez	a3,3bc06ad6 <LZ4_decompress_safe_withPrefix64k+0x6c>
    3bc06aa4:	4785                	li	a5,1
    3bc06aa6:	557d                	li	a0,-1
    3bc06aa8:	00f61863          	bne	a2,a5,3bc06ab8 <LZ4_decompress_safe_withPrefix64k+0x4e>
    3bc06aac:	0008c503          	lbu	a0,0(a7)
    3bc06ab0:	00a03533          	snez	a0,a0
    3bc06ab4:	0005250b          	ext	a0,a0,0,0
    3bc06ab8:	70e6                	ld	ra,120(sp)
    3bc06aba:	7446                	ld	s0,112(sp)
    3bc06abc:	74a6                	ld	s1,104(sp)
    3bc06abe:	7906                	ld	s2,96(sp)
    3bc06ac0:	69e6                	ld	s3,88(sp)
    3bc06ac2:	6a46                	ld	s4,80(sp)
    3bc06ac4:	6aa6                	ld	s5,72(sp)
    3bc06ac6:	6b06                	ld	s6,64(sp)
    3bc06ac8:	7be2                	ld	s7,56(sp)
    3bc06aca:	7c42                	ld	s8,48(sp)
    3bc06acc:	7ca2                	ld	s9,40(sp)
    3bc06ace:	7d02                	ld	s10,32(sp)
    3bc06ad0:	6de2                	ld	s11,24(sp)
    3bc06ad2:	6109                	addi	sp,sp,128
    3bc06ad4:	8082                	ret
    3bc06ad6:	557d                	li	a0,-1
    3bc06ad8:	d265                	beqz	a2,3bc06ab8 <LZ4_decompress_safe_withPrefix64k+0x4e>
    3bc06ada:	87c6                	mv	a5,a7
    3bc06adc:	882e                	mv	a6,a1
    3bc06ade:	4f3d                	li	t5,15
    3bc06ae0:	4f9d                	li	t6,7
    3bc06ae2:	ff4e0293          	addi	t0,t3,-12
    3bc06ae6:	4a41                	li	s4,16
    3bc06ae8:	ff9e0e93          	addi	t4,t3,-7
    3bc06aec:	ffbe0a93          	addi	s5,t3,-5
    3bc06af0:	00004b17          	auipc	s6,0x4
    3bc06af4:	6a8b0b13          	addi	s6,s6,1704 # 3bc0b198 <inc32table>
    3bc06af8:	00004b97          	auipc	s7,0x4
    3bc06afc:	680b8b93          	addi	s7,s7,1664 # 3bc0b178 <dec64table>
    3bc06b00:	ffc30c13          	addi	s8,t1,-4
    3bc06b04:	0ff00393          	li	t2,255
    3bc06b08:	ff830c93          	addi	s9,t1,-8
    3bc06b0c:	ff130493          	addi	s1,t1,-15
    3bc06b10:	5d7d                	li	s10,-1
    3bc06b12:	9817c68b          	lbuia	a3,(a5),1,0
    3bc06b16:	0046d713          	srli	a4,a3,0x4
    3bc06b1a:	0046d61b          	srliw	a2,a3,0x4
    3bc06b1e:	05e70b63          	beq	a4,t5,3bc06b74 <LZ4_decompress_safe_withPrefix64k+0x10a>
    3bc06b22:	0109b533          	sltu	a0,s3,a6
    3bc06b26:	00154513          	xori	a0,a0,1
    3bc06b2a:	0ff57513          	andi	a0,a0,255
    3bc06b2e:	00c80433          	add	s0,a6,a2
    3bc06b32:	00c78733          	add	a4,a5,a2
    3bc06b36:	c53d                	beqz	a0,3bc06ba4 <LZ4_decompress_safe_withPrefix64k+0x13a>
    3bc06b38:	0727f663          	bgeu	a5,s2,3bc06ba4 <LZ4_decompress_safe_withPrefix64k+0x13a>
    3bc06b3c:	6390                	ld	a2,0(a5)
    3bc06b3e:	8abd                	andi	a3,a3,15
    3bc06b40:	00c83023          	sd	a2,0(a6)
    3bc06b44:	679c                	ld	a5,8(a5)
    3bc06b46:	00f83423          	sd	a5,8(a6)
    3bc06b4a:	87ba                	mv	a5,a4
    3bc06b4c:	b827c60b          	lhuia	a2,(a5),2,0
    3bc06b50:	40c40733          	sub	a4,s0,a2
    3bc06b54:	0be68363          	beq	a3,t5,3bc06bfa <LZ4_decompress_safe_withPrefix64k+0x190>
    3bc06b58:	0ccff163          	bgeu	t6,a2,3bc06c1a <LZ4_decompress_safe_withPrefix64k+0x1b0>
    3bc06b5c:	6310                	ld	a2,0(a4)
    3bc06b5e:	0691                	addi	a3,a3,4
    3bc06b60:	00d40833          	add	a6,s0,a3
    3bc06b64:	e010                	sd	a2,0(s0)
    3bc06b66:	6710                	ld	a2,8(a4)
    3bc06b68:	e410                	sd	a2,8(s0)
    3bc06b6a:	01075703          	lhu	a4,16(a4) # 1000010 <__BSS_SIZE__+0xffa400>
    3bc06b6e:	00e41823          	sh	a4,16(s0)
    3bc06b72:	b745                	j	3bc06b12 <LZ4_decompress_safe_withPrefix64k+0xa8>
    3bc06b74:	0497fc63          	bgeu	a5,s1,3bc06bcc <LZ4_decompress_safe_withPrefix64k+0x162>
    3bc06b78:	4601                	li	a2,0
    3bc06b7a:	9817c50b          	lbuia	a0,(a5),1,0
    3bc06b7e:	9e29                	addw	a2,a2,a0
    3bc06b80:	0497f963          	bgeu	a5,s1,3bc06bd2 <LZ4_decompress_safe_withPrefix64k+0x168>
    3bc06b84:	fe750be3          	beq	a0,t2,3bc06b7a <LZ4_decompress_safe_withPrefix64k+0x110>
    3bc06b88:	4701                	li	a4,0
    3bc06b8a:	7c06360b          	extu	a2,a2,31,0
    3bc06b8e:	063d                	addi	a2,a2,15
    3bc06b90:	13a70a63          	beq	a4,s10,3bc06cc4 <LZ4_decompress_safe_withPrefix64k+0x25a>
    3bc06b94:	01060733          	add	a4,a2,a6
    3bc06b98:	13076663          	bltu	a4,a6,3bc06cc4 <LZ4_decompress_safe_withPrefix64k+0x25a>
    3bc06b9c:	00f60733          	add	a4,a2,a5
    3bc06ba0:	12f76263          	bltu	a4,a5,3bc06cc4 <LZ4_decompress_safe_withPrefix64k+0x25a>
    3bc06ba4:	00c80433          	add	s0,a6,a2
    3bc06ba8:	00c78533          	add	a0,a5,a2
    3bc06bac:	0082e463          	bltu	t0,s0,3bc06bb4 <LZ4_decompress_safe_withPrefix64k+0x14a>
    3bc06bb0:	02acf363          	bgeu	s9,a0,3bc06bd6 <LZ4_decompress_safe_withPrefix64k+0x16c>
    3bc06bb4:	10a31863          	bne	t1,a0,3bc06cc4 <LZ4_decompress_safe_withPrefix64k+0x25a>
    3bc06bb8:	108e6663          	bltu	t3,s0,3bc06cc4 <LZ4_decompress_safe_withPrefix64k+0x25a>
    3bc06bbc:	84ae                	mv	s1,a1
    3bc06bbe:	8542                	mv	a0,a6
    3bc06bc0:	85be                	mv	a1,a5
    3bc06bc2:	f0bf90ef          	jal	ra,3bc00acc <memmove>
    3bc06bc6:	4094053b          	subw	a0,s0,s1
    3bc06bca:	b5fd                	j	3bc06ab8 <LZ4_decompress_safe_withPrefix64k+0x4e>
    3bc06bcc:	577d                	li	a4,-1
    3bc06bce:	4601                	li	a2,0
    3bc06bd0:	bf6d                	j	3bc06b8a <LZ4_decompress_safe_withPrefix64k+0x120>
    3bc06bd2:	5779                	li	a4,-2
    3bc06bd4:	bf5d                	j	3bc06b8a <LZ4_decompress_safe_withPrefix64k+0x120>
    3bc06bd6:	4701                	li	a4,0
    3bc06bd8:	60e7c60b          	lrd	a2,a5,a4,0
    3bc06bdc:	60e8560b          	srd	a2,a6,a4,0
    3bc06be0:	0721                	addi	a4,a4,8
    3bc06be2:	00e80633          	add	a2,a6,a4
    3bc06be6:	fe8669e3          	bltu	a2,s0,3bc06bd8 <LZ4_decompress_safe_withPrefix64k+0x16e>
    3bc06bea:	87aa                	mv	a5,a0
    3bc06bec:	b827c60b          	lhuia	a2,(a5),2,0
    3bc06bf0:	8abd                	andi	a3,a3,15
    3bc06bf2:	40c40733          	sub	a4,s0,a2
    3bc06bf6:	03e69263          	bne	a3,t5,3bc06c1a <LZ4_decompress_safe_withPrefix64k+0x1b0>
    3bc06bfa:	4681                	li	a3,0
    3bc06bfc:	9817c80b          	lbuia	a6,(a5),1,0
    3bc06c00:	00d806bb          	addw	a3,a6,a3
    3bc06c04:	0d87f063          	bgeu	a5,s8,3bc06cc4 <LZ4_decompress_safe_withPrefix64k+0x25a>
    3bc06c08:	fe780ae3          	beq	a6,t2,3bc06bfc <LZ4_decompress_safe_withPrefix64k+0x192>
    3bc06c0c:	7c06b68b          	extu	a3,a3,31,0
    3bc06c10:	06bd                	addi	a3,a3,15
    3bc06c12:	00868533          	add	a0,a3,s0
    3bc06c16:	0a856763          	bltu	a0,s0,3bc06cc4 <LZ4_decompress_safe_withPrefix64k+0x25a>
    3bc06c1a:	6522                	ld	a0,8(sp)
    3bc06c1c:	0691                	addi	a3,a3,4
    3bc06c1e:	0aa76363          	bltu	a4,a0,3bc06cc4 <LZ4_decompress_safe_withPrefix64k+0x25a>
    3bc06c22:	00d40833          	add	a6,s0,a3
    3bc06c26:	06cfe463          	bltu	t6,a2,3bc06c8e <LZ4_decompress_safe_withPrefix64k+0x224>
    3bc06c2a:	00042023          	sw	zero,0(s0)
    3bc06c2e:	00074503          	lbu	a0,0(a4)
    3bc06c32:	00a40023          	sb	a0,0(s0)
    3bc06c36:	00174503          	lbu	a0,1(a4)
    3bc06c3a:	00a400a3          	sb	a0,1(s0)
    3bc06c3e:	00274503          	lbu	a0,2(a4)
    3bc06c42:	00a40123          	sb	a0,2(s0)
    3bc06c46:	00374503          	lbu	a0,3(a4)
    3bc06c4a:	00a401a3          	sb	a0,3(s0)
    3bc06c4e:	c4cb450b          	lrwu	a0,s6,a2,2
    3bc06c52:	00a70db3          	add	s11,a4,a0
    3bc06c56:	40a7470b          	lrw	a4,a4,a0,0
    3bc06c5a:	c058                	sw	a4,4(s0)
    3bc06c5c:	44cbc70b          	lrw	a4,s7,a2,2
    3bc06c60:	40ed8733          	sub	a4,s11,a4
    3bc06c64:	0502f363          	bgeu	t0,a6,3bc06caa <LZ4_decompress_safe_withPrefix64k+0x240>
    3bc06c68:	050aee63          	bltu	s5,a6,3bc06cc4 <LZ4_decompress_safe_withPrefix64k+0x25a>
    3bc06c6c:	0421                	addi	s0,s0,8
    3bc06c6e:	01d47e63          	bgeu	s0,t4,3bc06c8a <LZ4_decompress_safe_withPrefix64k+0x220>
    3bc06c72:	863a                	mv	a2,a4
    3bc06c74:	86a2                	mv	a3,s0
    3bc06c76:	7886450b          	ldia	a0,(a2),8,0
    3bc06c7a:	7886d50b          	sdia	a0,(a3),8,0
    3bc06c7e:	ffd6ece3          	bltu	a3,t4,3bc06c76 <LZ4_decompress_safe_withPrefix64k+0x20c>
    3bc06c82:	408e8433          	sub	s0,t4,s0
    3bc06c86:	9722                	add	a4,a4,s0
    3bc06c88:	8476                	mv	s0,t4
    3bc06c8a:	4681                	li	a3,0
    3bc06c8c:	a811                	j	3bc06ca0 <LZ4_decompress_safe_withPrefix64k+0x236>
    3bc06c8e:	7887460b          	ldia	a2,(a4),8,0
    3bc06c92:	e010                	sd	a2,0(s0)
    3bc06c94:	bfc1                	j	3bc06c64 <LZ4_decompress_safe_withPrefix64k+0x1fa>
    3bc06c96:	80d7460b          	lrbu	a2,a4,a3,0
    3bc06c9a:	00d4560b          	srb	a2,s0,a3,0
    3bc06c9e:	0685                	addi	a3,a3,1
    3bc06ca0:	00d40633          	add	a2,s0,a3
    3bc06ca4:	ff0669e3          	bltu	a2,a6,3bc06c96 <LZ4_decompress_safe_withPrefix64k+0x22c>
    3bc06ca8:	b5ad                	j	3bc06b12 <LZ4_decompress_safe_withPrefix64k+0xa8>
    3bc06caa:	6310                	ld	a2,0(a4)
    3bc06cac:	e410                	sd	a2,8(s0)
    3bc06cae:	e6da72e3          	bgeu	s4,a3,3bc06b12 <LZ4_decompress_safe_withPrefix64k+0xa8>
    3bc06cb2:	0441                	addi	s0,s0,16
    3bc06cb4:	0721                	addi	a4,a4,8
    3bc06cb6:	7887468b          	ldia	a3,(a4),8,0
    3bc06cba:	7884568b          	sdia	a3,(s0),8,0
    3bc06cbe:	ff046ce3          	bltu	s0,a6,3bc06cb6 <LZ4_decompress_safe_withPrefix64k+0x24c>
    3bc06cc2:	bd81                	j	3bc06b12 <LZ4_decompress_safe_withPrefix64k+0xa8>
    3bc06cc4:	41178533          	sub	a0,a5,a7
    3bc06cc8:	fff54513          	not	a0,a0
    3bc06ccc:	2501                	sext.w	a0,a0
    3bc06cce:	b3ed                	j	3bc06ab8 <LZ4_decompress_safe_withPrefix64k+0x4e>
    3bc06cd0:	557d                	li	a0,-1
    3bc06cd2:	b3dd                	j	3bc06ab8 <LZ4_decompress_safe_withPrefix64k+0x4e>

000000003bc06cd4 <LZ4_decompress_safe_forceExtDict>:
    3bc06cd4:	30050963          	beqz	a0,3bc06fe6 <LZ4_decompress_safe_forceExtDict+0x312>
    3bc06cd8:	7135                	addi	sp,sp,-160
    3bc06cda:	e526                	sd	s1,136(sp)
    3bc06cdc:	fcce                	sd	s3,120(sp)
    3bc06cde:	f0da                	sd	s6,96(sp)
    3bc06ce0:	ecde                	sd	s7,88(sp)
    3bc06ce2:	e8e2                	sd	s8,80(sp)
    3bc06ce4:	e0ea                	sd	s10,64(sp)
    3bc06ce6:	ed06                	sd	ra,152(sp)
    3bc06ce8:	e922                	sd	s0,144(sp)
    3bc06cea:	e14a                	sd	s2,128(sp)
    3bc06cec:	f8d2                	sd	s4,112(sp)
    3bc06cee:	f4d6                	sd	s5,104(sp)
    3bc06cf0:	e4e6                	sd	s9,72(sp)
    3bc06cf2:	fc6e                	sd	s11,56(sp)
    3bc06cf4:	8b2a                	mv	s6,a0
    3bc06cf6:	8d2e                	mv	s10,a1
    3bc06cf8:	84ba                	mv	s1,a4
    3bc06cfa:	89be                	mv	s3,a5
    3bc06cfc:	00c50bb3          	add	s7,a0,a2
    3bc06d00:	00d58c33          	add	s8,a1,a3
    3bc06d04:	c319                	beqz	a4,3bc06d0a <LZ4_decompress_safe_forceExtDict+0x36>
    3bc06d06:	00f704b3          	add	s1,a4,a5
    3bc06d0a:	ff0b8793          	addi	a5,s7,-16
    3bc06d0e:	e03e                	sd	a5,0(sp)
    3bc06d10:	fe0c0793          	addi	a5,s8,-32
    3bc06d14:	e43e                	sd	a5,8(sp)
    3bc06d16:	ea95                	bnez	a3,3bc06d4a <LZ4_decompress_safe_forceExtDict+0x76>
    3bc06d18:	4785                	li	a5,1
    3bc06d1a:	557d                	li	a0,-1
    3bc06d1c:	00f61863          	bne	a2,a5,3bc06d2c <LZ4_decompress_safe_forceExtDict+0x58>
    3bc06d20:	000b4503          	lbu	a0,0(s6)
    3bc06d24:	00a03533          	snez	a0,a0
    3bc06d28:	0005250b          	ext	a0,a0,0,0
    3bc06d2c:	60ea                	ld	ra,152(sp)
    3bc06d2e:	644a                	ld	s0,144(sp)
    3bc06d30:	64aa                	ld	s1,136(sp)
    3bc06d32:	690a                	ld	s2,128(sp)
    3bc06d34:	79e6                	ld	s3,120(sp)
    3bc06d36:	7a46                	ld	s4,112(sp)
    3bc06d38:	7aa6                	ld	s5,104(sp)
    3bc06d3a:	7b06                	ld	s6,96(sp)
    3bc06d3c:	6be6                	ld	s7,88(sp)
    3bc06d3e:	6c46                	ld	s8,80(sp)
    3bc06d40:	6ca6                	ld	s9,72(sp)
    3bc06d42:	6d06                	ld	s10,64(sp)
    3bc06d44:	7de2                	ld	s11,56(sp)
    3bc06d46:	610d                	addi	sp,sp,160
    3bc06d48:	8082                	ret
    3bc06d4a:	557d                	li	a0,-1
    3bc06d4c:	d265                	beqz	a2,3bc06d2c <LZ4_decompress_safe_forceExtDict+0x58>
    3bc06d4e:	ffcb8793          	addi	a5,s7,-4
    3bc06d52:	e83e                	sd	a5,16(sp)
    3bc06d54:	ff8b8793          	addi	a5,s7,-8
    3bc06d58:	845a                	mv	s0,s6
    3bc06d5a:	8cea                	mv	s9,s10
    3bc06d5c:	ff4c0a13          	addi	s4,s8,-12
    3bc06d60:	ff9c0913          	addi	s2,s8,-7
    3bc06d64:	ffbc0a93          	addi	s5,s8,-5
    3bc06d68:	ec3e                	sd	a5,24(sp)
    3bc06d6a:	9814468b          	lbuia	a3,(s0),1,0
    3bc06d6e:	4ebd                	li	t4,15
    3bc06d70:	0046d793          	srli	a5,a3,0x4
    3bc06d74:	0046d61b          	srliw	a2,a3,0x4
    3bc06d78:	07d78363          	beq	a5,t4,3bc06dde <LZ4_decompress_safe_forceExtDict+0x10a>
    3bc06d7c:	67a2                	ld	a5,8(sp)
    3bc06d7e:	00cc8db3          	add	s11,s9,a2
    3bc06d82:	00c40533          	add	a0,s0,a2
    3bc06d86:	0197b5b3          	sltu	a1,a5,s9
    3bc06d8a:	0015c593          	xori	a1,a1,1
    3bc06d8e:	0ff5f593          	andi	a1,a1,255
    3bc06d92:	c5c1                	beqz	a1,3bc06e1a <LZ4_decompress_safe_forceExtDict+0x146>
    3bc06d94:	6782                	ld	a5,0(sp)
    3bc06d96:	08f47263          	bgeu	s0,a5,3bc06e1a <LZ4_decompress_safe_forceExtDict+0x146>
    3bc06d9a:	6010                	ld	a2,0(s0)
    3bc06d9c:	8abd                	andi	a3,a3,15
    3bc06d9e:	00ccb023          	sd	a2,0(s9)
    3bc06da2:	6410                	ld	a2,8(s0)
    3bc06da4:	842a                	mv	s0,a0
    3bc06da6:	00ccb423          	sd	a2,8(s9)
    3bc06daa:	b824458b          	lhuia	a1,(s0),2,0
    3bc06dae:	8636                	mv	a2,a3
    3bc06db0:	40bd8533          	sub	a0,s11,a1
    3bc06db4:	0dd68063          	beq	a3,t4,3bc06e74 <LZ4_decompress_safe_forceExtDict+0x1a0>
    3bc06db8:	471d                	li	a4,7
    3bc06dba:	0eb77063          	bgeu	a4,a1,3bc06e9a <LZ4_decompress_safe_forceExtDict+0x1c6>
    3bc06dbe:	0da56e63          	bltu	a0,s10,3bc06e9a <LZ4_decompress_safe_forceExtDict+0x1c6>
    3bc06dc2:	6118                	ld	a4,0(a0)
    3bc06dc4:	0691                	addi	a3,a3,4
    3bc06dc6:	00dd8cb3          	add	s9,s11,a3
    3bc06dca:	00edb023          	sd	a4,0(s11)
    3bc06dce:	6518                	ld	a4,8(a0)
    3bc06dd0:	00edb423          	sd	a4,8(s11)
    3bc06dd4:	01055703          	lhu	a4,16(a0)
    3bc06dd8:	00ed9823          	sh	a4,16(s11)
    3bc06ddc:	b779                	j	3bc06d6a <LZ4_decompress_safe_forceExtDict+0x96>
    3bc06dde:	ff1b8793          	addi	a5,s7,-15
    3bc06de2:	06f47063          	bgeu	s0,a5,3bc06e42 <LZ4_decompress_safe_forceExtDict+0x16e>
    3bc06de6:	4601                	li	a2,0
    3bc06de8:	0ff00513          	li	a0,255
    3bc06dec:	98144e8b          	lbuia	t4,(s0),1,0
    3bc06df0:	00ce863b          	addw	a2,t4,a2
    3bc06df4:	04f47a63          	bgeu	s0,a5,3bc06e48 <LZ4_decompress_safe_forceExtDict+0x174>
    3bc06df8:	feae8ae3          	beq	t4,a0,3bc06dec <LZ4_decompress_safe_forceExtDict+0x118>
    3bc06dfc:	4781                	li	a5,0
    3bc06dfe:	7c06360b          	extu	a2,a2,31,0
    3bc06e02:	55fd                	li	a1,-1
    3bc06e04:	063d                	addi	a2,a2,15
    3bc06e06:	1cb78a63          	beq	a5,a1,3bc06fda <LZ4_decompress_safe_forceExtDict+0x306>
    3bc06e0a:	019607b3          	add	a5,a2,s9
    3bc06e0e:	1d97e663          	bltu	a5,s9,3bc06fda <LZ4_decompress_safe_forceExtDict+0x306>
    3bc06e12:	008607b3          	add	a5,a2,s0
    3bc06e16:	1c87e263          	bltu	a5,s0,3bc06fda <LZ4_decompress_safe_forceExtDict+0x306>
    3bc06e1a:	00cc8db3          	add	s11,s9,a2
    3bc06e1e:	00c405b3          	add	a1,s0,a2
    3bc06e22:	01ba6563          	bltu	s4,s11,3bc06e2c <LZ4_decompress_safe_forceExtDict+0x158>
    3bc06e26:	67e2                	ld	a5,24(sp)
    3bc06e28:	02b7f263          	bgeu	a5,a1,3bc06e4c <LZ4_decompress_safe_forceExtDict+0x178>
    3bc06e2c:	1abb9763          	bne	s7,a1,3bc06fda <LZ4_decompress_safe_forceExtDict+0x306>
    3bc06e30:	1bbc6563          	bltu	s8,s11,3bc06fda <LZ4_decompress_safe_forceExtDict+0x306>
    3bc06e34:	85a2                	mv	a1,s0
    3bc06e36:	8566                	mv	a0,s9
    3bc06e38:	c95f90ef          	jal	ra,3bc00acc <memmove>
    3bc06e3c:	41ad853b          	subw	a0,s11,s10
    3bc06e40:	b5f5                	j	3bc06d2c <LZ4_decompress_safe_forceExtDict+0x58>
    3bc06e42:	57fd                	li	a5,-1
    3bc06e44:	4601                	li	a2,0
    3bc06e46:	bf65                	j	3bc06dfe <LZ4_decompress_safe_forceExtDict+0x12a>
    3bc06e48:	57f9                	li	a5,-2
    3bc06e4a:	bf55                	j	3bc06dfe <LZ4_decompress_safe_forceExtDict+0x12a>
    3bc06e4c:	4601                	li	a2,0
    3bc06e4e:	60c4450b          	lrd	a0,s0,a2,0
    3bc06e52:	60ccd50b          	srd	a0,s9,a2,0
    3bc06e56:	0621                	addi	a2,a2,8
    3bc06e58:	00cc8533          	add	a0,s9,a2
    3bc06e5c:	ffb569e3          	bltu	a0,s11,3bc06e4e <LZ4_decompress_safe_forceExtDict+0x17a>
    3bc06e60:	842e                	mv	s0,a1
    3bc06e62:	b824458b          	lhuia	a1,(s0),2,0
    3bc06e66:	00f6f613          	andi	a2,a3,15
    3bc06e6a:	473d                	li	a4,15
    3bc06e6c:	40bd8533          	sub	a0,s11,a1
    3bc06e70:	02e61563          	bne	a2,a4,3bc06e9a <LZ4_decompress_safe_forceExtDict+0x1c6>
    3bc06e74:	4601                	li	a2,0
    3bc06e76:	0ff00693          	li	a3,255
    3bc06e7a:	98144e8b          	lbuia	t4,(s0),1,0
    3bc06e7e:	67c2                	ld	a5,16(sp)
    3bc06e80:	00ce863b          	addw	a2,t4,a2
    3bc06e84:	14f47b63          	bgeu	s0,a5,3bc06fda <LZ4_decompress_safe_forceExtDict+0x306>
    3bc06e88:	fede89e3          	beq	t4,a3,3bc06e7a <LZ4_decompress_safe_forceExtDict+0x1a6>
    3bc06e8c:	7c06360b          	extu	a2,a2,31,0
    3bc06e90:	063d                	addi	a2,a2,15
    3bc06e92:	01b60733          	add	a4,a2,s11
    3bc06e96:	15b76263          	bltu	a4,s11,3bc06fda <LZ4_decompress_safe_forceExtDict+0x306>
    3bc06e9a:	6741                	lui	a4,0x10
    3bc06e9c:	0611                	addi	a2,a2,4
    3bc06e9e:	00e9f663          	bgeu	s3,a4,3bc06eaa <LZ4_decompress_safe_forceExtDict+0x1d6>
    3bc06ea2:	01350733          	add	a4,a0,s3
    3bc06ea6:	13a76a63          	bltu	a4,s10,3bc06fda <LZ4_decompress_safe_forceExtDict+0x306>
    3bc06eaa:	00cd8cb3          	add	s9,s11,a2
    3bc06eae:	07a57663          	bgeu	a0,s10,3bc06f1a <LZ4_decompress_safe_forceExtDict+0x246>
    3bc06eb2:	139ae463          	bltu	s5,s9,3bc06fda <LZ4_decompress_safe_forceExtDict+0x306>
    3bc06eb6:	40ad06b3          	sub	a3,s10,a0
    3bc06eba:	40d485b3          	sub	a1,s1,a3
    3bc06ebe:	00c6e663          	bltu	a3,a2,3bc06eca <LZ4_decompress_safe_forceExtDict+0x1f6>
    3bc06ec2:	856e                	mv	a0,s11
    3bc06ec4:	c09f90ef          	jal	ra,3bc00acc <memmove>
    3bc06ec8:	b54d                	j	3bc06d6a <LZ4_decompress_safe_forceExtDict+0x96>
    3bc06eca:	40d60eb3          	sub	t4,a2,a3
    3bc06ece:	856e                	mv	a0,s11
    3bc06ed0:	8636                	mv	a2,a3
    3bc06ed2:	f476                	sd	t4,40(sp)
    3bc06ed4:	f036                	sd	a3,32(sp)
    3bc06ed6:	b97f90ef          	jal	ra,3bc00a6c <memcpy>
    3bc06eda:	7682                	ld	a3,32(sp)
    3bc06edc:	7ea2                	ld	t4,40(sp)
    3bc06ede:	00dd8533          	add	a0,s11,a3
    3bc06ee2:	41a507b3          	sub	a5,a0,s10
    3bc06ee6:	03d7f563          	bgeu	a5,t4,3bc06f10 <LZ4_decompress_safe_forceExtDict+0x23c>
    3bc06eea:	4781                	li	a5,0
    3bc06eec:	a031                	j	3bc06ef8 <LZ4_decompress_safe_forceExtDict+0x224>
    3bc06eee:	80fd468b          	lrbu	a3,s10,a5,0
    3bc06ef2:	00f5568b          	srb	a3,a0,a5,0
    3bc06ef6:	0785                	addi	a5,a5,1
    3bc06ef8:	00f506b3          	add	a3,a0,a5
    3bc06efc:	ff96e9e3          	bltu	a3,s9,3bc06eee <LZ4_decompress_safe_forceExtDict+0x21a>
    3bc06f00:	00acb733          	sltu	a4,s9,a0
    3bc06f04:	8676                	mv	a2,t4
    3bc06f06:	42e0160b          	mvnez	a2,zero,a4
    3bc06f0a:	00c50cb3          	add	s9,a0,a2
    3bc06f0e:	bdb1                	j	3bc06d6a <LZ4_decompress_safe_forceExtDict+0x96>
    3bc06f10:	8676                	mv	a2,t4
    3bc06f12:	85ea                	mv	a1,s10
    3bc06f14:	b59f90ef          	jal	ra,3bc00a6c <memcpy>
    3bc06f18:	bd89                	j	3bc06d6a <LZ4_decompress_safe_forceExtDict+0x96>
    3bc06f1a:	469d                	li	a3,7
    3bc06f1c:	06b6ee63          	bltu	a3,a1,3bc06f98 <LZ4_decompress_safe_forceExtDict+0x2c4>
    3bc06f20:	000da023          	sw	zero,0(s11)
    3bc06f24:	00054683          	lbu	a3,0(a0)
    3bc06f28:	00004797          	auipc	a5,0x4
    3bc06f2c:	27078793          	addi	a5,a5,624 # 3bc0b198 <inc32table>
    3bc06f30:	c4b7ce8b          	lrwu	t4,a5,a1,2
    3bc06f34:	00dd8023          	sb	a3,0(s11)
    3bc06f38:	00154683          	lbu	a3,1(a0)
    3bc06f3c:	00004797          	auipc	a5,0x4
    3bc06f40:	23c78793          	addi	a5,a5,572 # 3bc0b178 <dec64table>
    3bc06f44:	01d50f33          	add	t5,a0,t4
    3bc06f48:	00dd80a3          	sb	a3,1(s11)
    3bc06f4c:	00254683          	lbu	a3,2(a0)
    3bc06f50:	00dd8123          	sb	a3,2(s11)
    3bc06f54:	00354683          	lbu	a3,3(a0)
    3bc06f58:	00dd81a3          	sb	a3,3(s11)
    3bc06f5c:	41d5468b          	lrw	a3,a0,t4,0
    3bc06f60:	00dda223          	sw	a3,4(s11)
    3bc06f64:	44b7c68b          	lrw	a3,a5,a1,2
    3bc06f68:	40df06b3          	sub	a3,t5,a3
    3bc06f6c:	059a7663          	bgeu	s4,s9,3bc06fb8 <LZ4_decompress_safe_forceExtDict+0x2e4>
    3bc06f70:	079ae563          	bltu	s5,s9,3bc06fda <LZ4_decompress_safe_forceExtDict+0x306>
    3bc06f74:	008d8513          	addi	a0,s11,8
    3bc06f78:	01257e63          	bgeu	a0,s2,3bc06f94 <LZ4_decompress_safe_forceExtDict+0x2c0>
    3bc06f7c:	8636                	mv	a2,a3
    3bc06f7e:	87aa                	mv	a5,a0
    3bc06f80:	7886458b          	ldia	a1,(a2),8,0
    3bc06f84:	7887d58b          	sdia	a1,(a5),8,0
    3bc06f88:	ff27ece3          	bltu	a5,s2,3bc06f80 <LZ4_decompress_safe_forceExtDict+0x2ac>
    3bc06f8c:	40a907b3          	sub	a5,s2,a0
    3bc06f90:	96be                	add	a3,a3,a5
    3bc06f92:	854a                	mv	a0,s2
    3bc06f94:	4781                	li	a5,0
    3bc06f96:	a821                	j	3bc06fae <LZ4_decompress_safe_forceExtDict+0x2da>
    3bc06f98:	86aa                	mv	a3,a0
    3bc06f9a:	7886c58b          	ldia	a1,(a3),8,0
    3bc06f9e:	00bdb023          	sd	a1,0(s11)
    3bc06fa2:	b7e9                	j	3bc06f6c <LZ4_decompress_safe_forceExtDict+0x298>
    3bc06fa4:	80f6c60b          	lrbu	a2,a3,a5,0
    3bc06fa8:	00f5560b          	srb	a2,a0,a5,0
    3bc06fac:	0785                	addi	a5,a5,1
    3bc06fae:	00f50633          	add	a2,a0,a5
    3bc06fb2:	ff9669e3          	bltu	a2,s9,3bc06fa4 <LZ4_decompress_safe_forceExtDict+0x2d0>
    3bc06fb6:	bb55                	j	3bc06d6a <LZ4_decompress_safe_forceExtDict+0x96>
    3bc06fb8:	628c                	ld	a1,0(a3)
    3bc06fba:	00bdb423          	sd	a1,8(s11)
    3bc06fbe:	45c1                	li	a1,16
    3bc06fc0:	dac5f5e3          	bgeu	a1,a2,3bc06d6a <LZ4_decompress_safe_forceExtDict+0x96>
    3bc06fc4:	010d8513          	addi	a0,s11,16
    3bc06fc8:	00868613          	addi	a2,a3,8
    3bc06fcc:	7886478b          	ldia	a5,(a2),8,0
    3bc06fd0:	7885578b          	sdia	a5,(a0),8,0
    3bc06fd4:	ff956ce3          	bltu	a0,s9,3bc06fcc <LZ4_decompress_safe_forceExtDict+0x2f8>
    3bc06fd8:	bb49                	j	3bc06d6a <LZ4_decompress_safe_forceExtDict+0x96>
    3bc06fda:	41640533          	sub	a0,s0,s6
    3bc06fde:	fff54513          	not	a0,a0
    3bc06fe2:	2501                	sext.w	a0,a0
    3bc06fe4:	b3a1                	j	3bc06d2c <LZ4_decompress_safe_forceExtDict+0x58>
    3bc06fe6:	557d                	li	a0,-1
    3bc06fe8:	8082                	ret

000000003bc06fea <LZ4_decompress_safe_usingDict>:
    3bc06fea:	883e                	mv	a6,a5
    3bc06fec:	e399                	bnez	a5,3bc06ff2 <LZ4_decompress_safe_usingDict+0x8>
    3bc06fee:	80fff06f          	j	3bc067fc <LZ4_decompress_safe>
    3bc06ff2:	00f708b3          	add	a7,a4,a5
    3bc06ff6:	01159b63          	bne	a1,a7,3bc0700c <LZ4_decompress_safe_usingDict+0x22>
    3bc06ffa:	67c1                	lui	a5,0x10
    3bc06ffc:	17f9                	addi	a5,a5,-2
    3bc06ffe:	0107d463          	bge	a5,a6,3bc07006 <LZ4_decompress_safe_usingDict+0x1c>
    3bc07002:	a69ff06f          	j	3bc06a6a <LZ4_decompress_safe_withPrefix64k>
    3bc07006:	8742                	mv	a4,a6
    3bc07008:	c6eff06f          	j	3bc06476 <LZ4_decompress_safe_withSmallPrefix>
    3bc0700c:	cc9ff06f          	j	3bc06cd4 <LZ4_decompress_safe_forceExtDict>

000000003bc07010 <LZ4F_isError>:
    3bc07010:	fed53513          	sltiu	a0,a0,-19
    3bc07014:	00154513          	xori	a0,a0,1
    3bc07018:	2501                	sext.w	a0,a0
    3bc0701a:	8082                	ret

000000003bc0701c <LZ4F_getBlockSize>:
    3bc0701c:	e111                	bnez	a0,3bc07020 <LZ4F_getBlockSize+0x4>
    3bc0701e:	4511                	li	a0,4
    3bc07020:	ffc5069b          	addiw	a3,a0,-4
    3bc07024:	470d                	li	a4,3
    3bc07026:	5579                	li	a0,-2
    3bc07028:	00d76863          	bltu	a4,a3,3bc07038 <LZ4F_getBlockSize+0x1c>
    3bc0702c:	00004717          	auipc	a4,0x4
    3bc07030:	12c70713          	addi	a4,a4,300 # 3bc0b158 <blockSizes.0>
    3bc07034:	76d7450b          	lurd	a0,a4,a3,3
    3bc07038:	8082                	ret

000000003bc0703a <LZ4F_decodeHeader>:
    3bc0703a:	715d                	addi	sp,sp,-80
    3bc0703c:	f84a                	sd	s2,48(sp)
    3bc0703e:	e486                	sd	ra,72(sp)
    3bc07040:	e0a2                	sd	s0,64(sp)
    3bc07042:	fc26                	sd	s1,56(sp)
    3bc07044:	f44e                	sd	s3,40(sp)
    3bc07046:	f052                	sd	s4,32(sp)
    3bc07048:	ec56                	sd	s5,24(sp)
    3bc0704a:	e85a                	sd	s6,16(sp)
    3bc0704c:	e45e                	sd	s7,8(sp)
    3bc0704e:	e062                	sd	s8,0(sp)
    3bc07050:	4799                	li	a5,6
    3bc07052:	5951                	li	s2,-12
    3bc07054:	04c7f663          	bgeu	a5,a2,3bc070a0 <LZ4F_decodeHeader+0x66>
    3bc07058:	84ae                	mv	s1,a1
    3bc0705a:	8932                	mv	s2,a2
    3bc0705c:	4581                	li	a1,0
    3bc0705e:	02000613          	li	a2,32
    3bc07062:	842a                	mv	s0,a0
    3bc07064:	9aff90ef          	jal	ra,3bc00a12 <memset>
    3bc07068:	8526                	mv	a0,s1
    3bc0706a:	be8ff0ef          	jal	ra,3bc06452 <LZ4F_readLE32>
    3bc0706e:	2501                	sext.w	a0,a0
    3bc07070:	184d37b7          	lui	a5,0x184d3
    3bc07074:	ff057713          	andi	a4,a0,-16
    3bc07078:	a5078793          	addi	a5,a5,-1456 # 184d2a50 <p_rom_api_cryptodma_aes_decrypt+0x140d2950>
    3bc0707c:	02f71f63          	bne	a4,a5,3bc070ba <LZ4F_decodeHeader+0x80>
    3bc07080:	4785                	li	a5,1
    3bc07082:	c45c                	sw	a5,12(s0)
    3bc07084:	0e840793          	addi	a5,s0,232
    3bc07088:	00f49963          	bne	s1,a5,3bc0709a <LZ4F_decodeHeader+0x60>
    3bc0708c:	47a1                	li	a5,8
    3bc0708e:	e83c                	sd	a5,80(s0)
    3bc07090:	05243423          	sd	s2,72(s0)
    3bc07094:	47b5                	li	a5,13
    3bc07096:	d05c                	sw	a5,36(s0)
    3bc07098:	a021                	j	3bc070a0 <LZ4F_decodeHeader+0x66>
    3bc0709a:	47b1                	li	a5,12
    3bc0709c:	d05c                	sw	a5,36(s0)
    3bc0709e:	4911                	li	s2,4
    3bc070a0:	60a6                	ld	ra,72(sp)
    3bc070a2:	6406                	ld	s0,64(sp)
    3bc070a4:	74e2                	ld	s1,56(sp)
    3bc070a6:	79a2                	ld	s3,40(sp)
    3bc070a8:	7a02                	ld	s4,32(sp)
    3bc070aa:	6ae2                	ld	s5,24(sp)
    3bc070ac:	6b42                	ld	s6,16(sp)
    3bc070ae:	6ba2                	ld	s7,8(sp)
    3bc070b0:	6c02                	ld	s8,0(sp)
    3bc070b2:	854a                	mv	a0,s2
    3bc070b4:	7942                	ld	s2,48(sp)
    3bc070b6:	6161                	addi	sp,sp,80
    3bc070b8:	8082                	ret
    3bc070ba:	184d27b7          	lui	a5,0x184d2
    3bc070be:	20478793          	addi	a5,a5,516 # 184d2204 <p_rom_api_cryptodma_aes_decrypt+0x140d2104>
    3bc070c2:	10f51863          	bne	a0,a5,3bc071d2 <LZ4F_decodeHeader+0x198>
    3bc070c6:	00042623          	sw	zero,12(s0)
    3bc070ca:	0044c783          	lbu	a5,4(s1)
    3bc070ce:	0417b70b          	extu	a4,a5,1,1
    3bc070d2:	00078b1b          	sext.w	s6,a5
    3bc070d6:	0067d693          	srli	a3,a5,0x6
    3bc070da:	0e071e63          	bnez	a4,3bc071d6 <LZ4F_decodeHeader+0x19c>
    3bc070de:	4705                	li	a4,1
    3bc070e0:	0ee69d63          	bne	a3,a4,3bc071da <LZ4F_decodeHeader+0x1a0>
    3bc070e4:	0c3b3c0b          	extu	s8,s6,3,3
    3bc070e8:	49bd                	li	s3,15
    3bc070ea:	000c1363          	bnez	s8,3bc070f0 <LZ4F_decodeHeader+0xb6>
    3bc070ee:	499d                	li	s3,7
    3bc070f0:	0017fa13          	andi	s4,a5,1
    3bc070f4:	0549998b          	addsl	s3,s3,s4,2
    3bc070f8:	03397063          	bgeu	s2,s3,3bc07118 <LZ4F_decodeHeader+0xde>
    3bc070fc:	0e840513          	addi	a0,s0,232
    3bc07100:	00a48663          	beq	s1,a0,3bc0710c <LZ4F_decodeHeader+0xd2>
    3bc07104:	864a                	mv	a2,s2
    3bc07106:	85a6                	mv	a1,s1
    3bc07108:	965f90ef          	jal	ra,3bc00a6c <memcpy>
    3bc0710c:	05243423          	sd	s2,72(s0)
    3bc07110:	05343823          	sd	s3,80(s0)
    3bc07114:	4785                	li	a5,1
    3bc07116:	b741                	j	3bc07096 <LZ4F_decodeHeader+0x5c>
    3bc07118:	0054c783          	lbu	a5,5(s1)
    3bc0711c:	5961                	li	s2,-8
    3bc0711e:	fc77b70b          	extu	a4,a5,63,7
    3bc07122:	8c47bb8b          	extu	s7,a5,35,4
    3bc07126:	ff2d                	bnez	a4,3bc070a0 <LZ4F_decodeHeader+0x66>
    3bc07128:	004bf713          	andi	a4,s7,4
    3bc0712c:	5979                	li	s2,-2
    3bc0712e:	db2d                	beqz	a4,3bc070a0 <LZ4F_decodeHeader+0x66>
    3bc07130:	8bbd                	andi	a5,a5,15
    3bc07132:	5961                	li	s2,-8
    3bc07134:	f7b5                	bnez	a5,3bc070a0 <LZ4F_decodeHeader+0x66>
    3bc07136:	ffb98a93          	addi	s5,s3,-5
    3bc0713a:	4601                	li	a2,0
    3bc0713c:	85d6                	mv	a1,s5
    3bc0713e:	00448513          	addi	a0,s1,4
    3bc07142:	425000ef          	jal	ra,3bc07d66 <XXH32>
    3bc07146:	013487b3          	add	a5,s1,s3
    3bc0714a:	fff7c783          	lbu	a5,-1(a5)
    3bc0714e:	3c85350b          	extu	a0,a0,15,8
    3bc07152:	593d                	li	s2,-17
    3bc07154:	f4a796e3          	bne	a5,a0,3bc070a0 <LZ4F_decodeHeader+0x66>
    3bc07158:	145b378b          	extu	a5,s6,5,5
    3bc0715c:	007bf513          	andi	a0,s7,7
    3bc07160:	c05c                	sw	a5,4(s0)
    3bc07162:	104b378b          	extu	a5,s6,4,4
    3bc07166:	082b3b0b          	extu	s6,s6,2,2
    3bc0716a:	cc5c                	sw	a5,28(s0)
    3bc0716c:	01642423          	sw	s6,8(s0)
    3bc07170:	c008                	sw	a0,0(s0)
    3bc07172:	eabff0ef          	jal	ra,3bc0701c <LZ4F_getBlockSize>
    3bc07176:	f808                	sd	a0,48(s0)
    3bc07178:	040c0263          	beqz	s8,3bc071bc <LZ4F_decodeHeader+0x182>
    3bc0717c:	0074c783          	lbu	a5,7(s1)
    3bc07180:	0084c703          	lbu	a4,8(s1)
    3bc07184:	0064c683          	lbu	a3,6(s1)
    3bc07188:	07a2                	slli	a5,a5,0x8
    3bc0718a:	0742                	slli	a4,a4,0x10
    3bc0718c:	97ba                	add	a5,a5,a4
    3bc0718e:	0094c703          	lbu	a4,9(s1)
    3bc07192:	97b6                	add	a5,a5,a3
    3bc07194:	0762                	slli	a4,a4,0x18
    3bc07196:	97ba                	add	a5,a5,a4
    3bc07198:	00a4c703          	lbu	a4,10(s1)
    3bc0719c:	1702                	slli	a4,a4,0x20
    3bc0719e:	97ba                	add	a5,a5,a4
    3bc071a0:	00b4c703          	lbu	a4,11(s1)
    3bc071a4:	1722                	slli	a4,a4,0x28
    3bc071a6:	973e                	add	a4,a4,a5
    3bc071a8:	00c4c783          	lbu	a5,12(s1)
    3bc071ac:	17c2                	slli	a5,a5,0x30
    3bc071ae:	973e                	add	a4,a4,a5
    3bc071b0:	00d4c783          	lbu	a5,13(s1)
    3bc071b4:	17e2                	slli	a5,a5,0x38
    3bc071b6:	97ba                	add	a5,a5,a4
    3bc071b8:	e81c                	sd	a5,16(s0)
    3bc071ba:	f41c                	sd	a5,40(s0)
    3bc071bc:	000a0763          	beqz	s4,3bc071ca <LZ4F_decodeHeader+0x190>
    3bc071c0:	01548533          	add	a0,s1,s5
    3bc071c4:	a8eff0ef          	jal	ra,3bc06452 <LZ4F_readLE32>
    3bc071c8:	cc08                	sw	a0,24(s0)
    3bc071ca:	4789                	li	a5,2
    3bc071cc:	d05c                	sw	a5,36(s0)
    3bc071ce:	894e                	mv	s2,s3
    3bc071d0:	bdc1                	j	3bc070a0 <LZ4F_decodeHeader+0x66>
    3bc071d2:	594d                	li	s2,-13
    3bc071d4:	b5f1                	j	3bc070a0 <LZ4F_decodeHeader+0x66>
    3bc071d6:	5961                	li	s2,-8
    3bc071d8:	b5e1                	j	3bc070a0 <LZ4F_decodeHeader+0x66>
    3bc071da:	5969                	li	s2,-6
    3bc071dc:	b5d1                	j	3bc070a0 <LZ4F_decodeHeader+0x66>

000000003bc071de <LZ4F_createDecompressionContext>:
    3bc071de:	1101                	addi	sp,sp,-32
    3bc071e0:	e822                	sd	s0,16(sp)
    3bc071e2:	e426                	sd	s1,8(sp)
    3bc071e4:	842a                	mv	s0,a0
    3bc071e6:	84ae                	mv	s1,a1
    3bc071e8:	4505                	li	a0,1
    3bc071ea:	10000593          	li	a1,256
    3bc071ee:	ec06                	sd	ra,24(sp)
    3bc071f0:	bf8fa0ef          	jal	ra,3bc015e8 <LZ4_calloc>
    3bc071f4:	e909                	bnez	a0,3bc07206 <LZ4F_createDecompressionContext+0x28>
    3bc071f6:	00043023          	sd	zero,0(s0)
    3bc071fa:	555d                	li	a0,-9
    3bc071fc:	60e2                	ld	ra,24(sp)
    3bc071fe:	6442                	ld	s0,16(sp)
    3bc07200:	64a2                	ld	s1,8(sp)
    3bc07202:	6105                	addi	sp,sp,32
    3bc07204:	8082                	ret
    3bc07206:	d104                	sw	s1,32(a0)
    3bc07208:	e008                	sd	a0,0(s0)
    3bc0720a:	4501                	li	a0,0
    3bc0720c:	bfc5                	j	3bc071fc <LZ4F_createDecompressionContext+0x1e>

000000003bc0720e <LZ4F_decompress>:
    3bc0720e:	7131                	addi	sp,sp,-192
    3bc07210:	ed4e                	sd	s3,152(sp)
    3bc07212:	00073983          	ld	s3,0(a4)
    3bc07216:	e556                	sd	s5,136(sp)
    3bc07218:	e15a                	sd	s6,128(sp)
    3bc0721a:	f0ea                	sd	s10,96(sp)
    3bc0721c:	ecee                	sd	s11,88(sp)
    3bc0721e:	fd06                	sd	ra,184(sp)
    3bc07220:	f922                	sd	s0,176(sp)
    3bc07222:	f526                	sd	s1,168(sp)
    3bc07224:	f14a                	sd	s2,160(sp)
    3bc07226:	e952                	sd	s4,144(sp)
    3bc07228:	fcde                	sd	s7,120(sp)
    3bc0722a:	f8e2                	sd	s8,112(sp)
    3bc0722c:	f4e6                	sd	s9,104(sp)
    3bc0722e:	fad1560b          	sdd	a2,a3,(sp),1,4
    3bc07232:	e43e                	sd	a5,8(sp)
    3bc07234:	8d2a                	mv	s10,a0
    3bc07236:	8aae                	mv	s5,a1
    3bc07238:	8dba                	mv	s11,a4
    3bc0723a:	99b6                	add	s3,s3,a3
    3bc0723c:	4b01                	li	s6,0
    3bc0723e:	c581                	beqz	a1,3bc07246 <LZ4F_decompress+0x38>
    3bc07240:	00063b03          	ld	s6,0(a2)
    3bc07244:	9b2e                	add	s6,s6,a1
    3bc07246:	0080                	addi	s0,sp,64
    3bc07248:	4641                	li	a2,16
    3bc0724a:	4581                	li	a1,0
    3bc0724c:	8522                	mv	a0,s0
    3bc0724e:	fc4f90ef          	jal	ra,3bc00a12 <memset>
    3bc07252:	67a2                	ld	a5,8(sp)
    3bc07254:	000db023          	sd	zero,0(s11)
    3bc07258:	6ce2                	ld	s9,24(sp)
    3bc0725a:	40f4178b          	mveqz	a5,s0,a5
    3bc0725e:	e43e                	sd	a5,8(sp)
    3bc07260:	67c2                	ld	a5,16(sp)
    3bc07262:	8956                	mv	s2,s5
    3bc07264:	4485                	li	s1,1
    3bc07266:	0007b023          	sd	zero,0(a5)
    3bc0726a:	0ecd0793          	addi	a5,s10,236
    3bc0726e:	f43e                	sd	a5,40(sp)
    3bc07270:	0b8d0793          	addi	a5,s10,184
    3bc07274:	4a05                	li	s4,1
    3bc07276:	0e8d0b93          	addi	s7,s10,232
    3bc0727a:	088d0c13          	addi	s8,s10,136
    3bc0727e:	f03e                	sd	a5,32(sp)
    3bc07280:	080a1b63          	bnez	s4,3bc07316 <LZ4F_decompress+0x108>
    3bc07284:	004d2783          	lw	a5,4(s10)
    3bc07288:	ebbd                	bnez	a5,3bc072fe <LZ4F_decompress+0xf0>
    3bc0728a:	060d3583          	ld	a1,96(s10)
    3bc0728e:	058d3503          	ld	a0,88(s10)
    3bc07292:	06a58663          	beq	a1,a0,3bc072fe <LZ4F_decompress+0xf0>
    3bc07296:	c5a5                	beqz	a1,3bc072fe <LZ4F_decompress+0xf0>
    3bc07298:	67a2                	ld	a5,8(sp)
    3bc0729a:	439c                	lw	a5,0(a5)
    3bc0729c:	e3ad                	bnez	a5,3bc072fe <LZ4F_decompress+0xf0>
    3bc0729e:	024d2703          	lw	a4,36(s10)
    3bc072a2:	479d                	li	a5,7
    3bc072a4:	ffe7069b          	addiw	a3,a4,-2
    3bc072a8:	04d7eb63          	bltu	a5,a3,3bc072fe <LZ4F_decompress+0xf0>
    3bc072ac:	46a5                	li	a3,9
    3bc072ae:	068d3783          	ld	a5,104(s10)
    3bc072b2:	6ed71c63          	bne	a4,a3,3bc079aa <LZ4F_decompress+0x79c>
    3bc072b6:	080d3683          	ld	a3,128(s10)
    3bc072ba:	070d3403          	ld	s0,112(s10)
    3bc072be:	078d3703          	ld	a4,120(s10)
    3bc072c2:	8f95                	sub	a5,a5,a3
    3bc072c4:	66c1                	lui	a3,0x10
    3bc072c6:	8c09                	sub	s0,s0,a0
    3bc072c8:	4601                	li	a2,0
    3bc072ca:	00e6ea63          	bltu	a3,a4,3bc072de <LZ4F_decompress+0xd0>
    3bc072ce:	40e68633          	sub	a2,a3,a4
    3bc072d2:	00c43733          	sltu	a4,s0,a2
    3bc072d6:	00174713          	xori	a4,a4,1
    3bc072da:	40e4160b          	mveqz	a2,s0,a4
    3bc072de:	8f91                	sub	a5,a5,a2
    3bc072e0:	40c40733          	sub	a4,s0,a2
    3bc072e4:	95be                	add	a1,a1,a5
    3bc072e6:	953a                	add	a0,a0,a4
    3bc072e8:	f84f90ef          	jal	ra,3bc00a6c <memcpy>
    3bc072ec:	058d3783          	ld	a5,88(s10)
    3bc072f0:	06fd3023          	sd	a5,96(s10)
    3bc072f4:	080d3783          	ld	a5,128(s10)
    3bc072f8:	943e                	add	s0,s0,a5
    3bc072fa:	068d3423          	sd	s0,104(s10)
    3bc072fe:	67e2                	ld	a5,24(sp)
    3bc07300:	41590933          	sub	s2,s2,s5
    3bc07304:	8526                	mv	a0,s1
    3bc07306:	40fc88b3          	sub	a7,s9,a5
    3bc0730a:	67c2                	ld	a5,16(sp)
    3bc0730c:	011db023          	sd	a7,0(s11)
    3bc07310:	0127b023          	sd	s2,0(a5)
    3bc07314:	a055                	j	3bc073b8 <LZ4F_decompress+0x1aa>
    3bc07316:	024d2783          	lw	a5,36(s10)
    3bc0731a:	4739                	li	a4,14
    3bc0731c:	f6f762e3          	bltu	a4,a5,3bc07280 <LZ4F_decompress+0x72>
    3bc07320:	024d6783          	lwu	a5,36(s10)
    3bc07324:	00004717          	auipc	a4,0x4
    3bc07328:	df470713          	addi	a4,a4,-524 # 3bc0b118 <crc16_tab+0x200>
    3bc0732c:	44f7478b          	lrw	a5,a4,a5,2
    3bc07330:	97ba                	add	a5,a5,a4
    3bc07332:	8782                	jr	a5
    3bc07334:	41998633          	sub	a2,s3,s9
    3bc07338:	47c9                	li	a5,18
    3bc0733a:	00c7fd63          	bgeu	a5,a2,3bc07354 <LZ4F_decompress+0x146>
    3bc0733e:	85e6                	mv	a1,s9
    3bc07340:	856a                	mv	a0,s10
    3bc07342:	cf9ff0ef          	jal	ra,3bc0703a <LZ4F_decodeHeader>
    3bc07346:	57b1                	li	a5,-20
    3bc07348:	06a7e863          	bltu	a5,a0,3bc073b8 <LZ4F_decompress+0x1aa>
    3bc0734c:	00ac8433          	add	s0,s9,a0
    3bc07350:	8ca2                	mv	s9,s0
    3bc07352:	b73d                	j	3bc07280 <LZ4F_decompress+0x72>
    3bc07354:	040d3423          	sd	zero,72(s10)
    3bc07358:	673c8d63          	beq	s9,s3,3bc079d2 <LZ4F_decompress+0x7c4>
    3bc0735c:	479d                	li	a5,7
    3bc0735e:	04fd3823          	sd	a5,80(s10)
    3bc07362:	4785                	li	a5,1
    3bc07364:	02fd2223          	sw	a5,36(s10)
    3bc07368:	048d3503          	ld	a0,72(s10)
    3bc0736c:	050d3403          	ld	s0,80(s10)
    3bc07370:	41998633          	sub	a2,s3,s9
    3bc07374:	85e6                	mv	a1,s9
    3bc07376:	8c09                	sub	s0,s0,a0
    3bc07378:	008637b3          	sltu	a5,a2,s0
    3bc0737c:	0017c793          	xori	a5,a5,1
    3bc07380:	40f6140b          	mveqz	s0,a2,a5
    3bc07384:	8622                	mv	a2,s0
    3bc07386:	955e                	add	a0,a0,s7
    3bc07388:	ee4f90ef          	jal	ra,3bc00a6c <memcpy>
    3bc0738c:	048d3783          	ld	a5,72(s10)
    3bc07390:	050d3603          	ld	a2,80(s10)
    3bc07394:	97a2                	add	a5,a5,s0
    3bc07396:	04fd3423          	sd	a5,72(s10)
    3bc0739a:	9466                	add	s0,s0,s9
    3bc0739c:	00c7f763          	bgeu	a5,a2,3bc073aa <LZ4F_decompress+0x19c>
    3bc073a0:	0611                	addi	a2,a2,4
    3bc073a2:	40f604b3          	sub	s1,a2,a5
    3bc073a6:	4a01                	li	s4,0
    3bc073a8:	b765                	j	3bc07350 <LZ4F_decompress+0x142>
    3bc073aa:	85de                	mv	a1,s7
    3bc073ac:	856a                	mv	a0,s10
    3bc073ae:	c8dff0ef          	jal	ra,3bc0703a <LZ4F_decodeHeader>
    3bc073b2:	57b1                	li	a5,-20
    3bc073b4:	f8a7fee3          	bgeu	a5,a0,3bc07350 <LZ4F_decompress+0x142>
    3bc073b8:	70ea                	ld	ra,184(sp)
    3bc073ba:	744a                	ld	s0,176(sp)
    3bc073bc:	74aa                	ld	s1,168(sp)
    3bc073be:	790a                	ld	s2,160(sp)
    3bc073c0:	69ea                	ld	s3,152(sp)
    3bc073c2:	6a4a                	ld	s4,144(sp)
    3bc073c4:	6aaa                	ld	s5,136(sp)
    3bc073c6:	6b0a                	ld	s6,128(sp)
    3bc073c8:	7be6                	ld	s7,120(sp)
    3bc073ca:	7c46                	ld	s8,112(sp)
    3bc073cc:	7ca6                	ld	s9,104(sp)
    3bc073ce:	7d06                	ld	s10,96(sp)
    3bc073d0:	6de6                	ld	s11,88(sp)
    3bc073d2:	6129                	addi	sp,sp,192
    3bc073d4:	8082                	ret
    3bc073d6:	008d2783          	lw	a5,8(s10)
    3bc073da:	c789                	beqz	a5,3bc073e4 <LZ4F_decompress+0x1d6>
    3bc073dc:	4581                	li	a1,0
    3bc073de:	8562                	mv	a0,s8
    3bc073e0:	34d000ef          	jal	ra,3bc07f2c <XXH32_reset>
    3bc073e4:	004d2403          	lw	s0,4(s10)
    3bc073e8:	030d3783          	ld	a5,48(s10)
    3bc073ec:	00143413          	seqz	s0,s0
    3bc073f0:	0446                	slli	s0,s0,0x11
    3bc073f2:	943e                	add	s0,s0,a5
    3bc073f4:	038d3783          	ld	a5,56(s10)
    3bc073f8:	0287fe63          	bgeu	a5,s0,3bc07434 <LZ4F_decompress+0x226>
    3bc073fc:	040d3503          	ld	a0,64(s10)
    3bc07400:	020d3c23          	sd	zero,56(s10)
    3bc07404:	a0cfa0ef          	jal	ra,3bc01610 <LZ4_free>
    3bc07408:	030d3503          	ld	a0,48(s10)
    3bc0740c:	0511                	addi	a0,a0,4
    3bc0740e:	9d4fa0ef          	jal	ra,3bc015e2 <LZ4_malloc>
    3bc07412:	04ad3023          	sd	a0,64(s10)
    3bc07416:	e119                	bnez	a0,3bc0741c <LZ4F_decompress+0x20e>
    3bc07418:	555d                	li	a0,-9
    3bc0741a:	bf79                	j	3bc073b8 <LZ4F_decompress+0x1aa>
    3bc0741c:	058d3503          	ld	a0,88(s10)
    3bc07420:	9f0fa0ef          	jal	ra,3bc01610 <LZ4_free>
    3bc07424:	8522                	mv	a0,s0
    3bc07426:	9bcfa0ef          	jal	ra,3bc015e2 <LZ4_malloc>
    3bc0742a:	04ad3c23          	sd	a0,88(s10)
    3bc0742e:	d56d                	beqz	a0,3bc07418 <LZ4F_decompress+0x20a>
    3bc07430:	028d3c23          	sd	s0,56(s10)
    3bc07434:	058d3783          	ld	a5,88(s10)
    3bc07438:	040d3423          	sd	zero,72(s10)
    3bc0743c:	040d3823          	sd	zero,80(s10)
    3bc07440:	06fd3823          	sd	a5,112(s10)
    3bc07444:	478d                	li	a5,3
    3bc07446:	080d3023          	sd	zero,128(s10)
    3bc0744a:	060d3c23          	sd	zero,120(s10)
    3bc0744e:	02fd2223          	sw	a5,36(s10)
    3bc07452:	419987b3          	sub	a5,s3,s9
    3bc07456:	470d                	li	a4,3
    3bc07458:	00f77b63          	bgeu	a4,a5,3bc0746e <LZ4F_decompress+0x260>
    3bc0745c:	024d2703          	lw	a4,36(s10)
    3bc07460:	4791                	li	a5,4
    3bc07462:	004c8413          	addi	s0,s9,4
    3bc07466:	04f71e63          	bne	a4,a5,3bc074c2 <LZ4F_decompress+0x2b4>
    3bc0746a:	8ca2                	mv	s9,s0
    3bc0746c:	a031                	j	3bc07478 <LZ4F_decompress+0x26a>
    3bc0746e:	4791                	li	a5,4
    3bc07470:	040d3423          	sd	zero,72(s10)
    3bc07474:	02fd2223          	sw	a5,36(s10)
    3bc07478:	048d3683          	ld	a3,72(s10)
    3bc0747c:	4711                	li	a4,4
    3bc0747e:	040d3503          	ld	a0,64(s10)
    3bc07482:	40d705b3          	sub	a1,a4,a3
    3bc07486:	41998633          	sub	a2,s3,s9
    3bc0748a:	00c5b7b3          	sltu	a5,a1,a2
    3bc0748e:	0017c793          	xori	a5,a5,1
    3bc07492:	40f5960b          	mveqz	a2,a1,a5
    3bc07496:	9536                	add	a0,a0,a3
    3bc07498:	85e6                	mv	a1,s9
    3bc0749a:	f832                	sd	a2,48(sp)
    3bc0749c:	dd0f90ef          	jal	ra,3bc00a6c <memcpy>
    3bc074a0:	048d3783          	ld	a5,72(s10)
    3bc074a4:	7642                	ld	a2,48(sp)
    3bc074a6:	00cc8433          	add	s0,s9,a2
    3bc074aa:	963e                	add	a2,a2,a5
    3bc074ac:	04cd3423          	sd	a2,72(s10)
    3bc074b0:	478d                	li	a5,3
    3bc074b2:	00c7e663          	bltu	a5,a2,3bc074be <LZ4F_decompress+0x2b0>
    3bc074b6:	4711                	li	a4,4
    3bc074b8:	40c704b3          	sub	s1,a4,a2
    3bc074bc:	b5ed                	j	3bc073a6 <LZ4F_decompress+0x198>
    3bc074be:	040d3c83          	ld	s9,64(s10)
    3bc074c2:	8566                	mv	a0,s9
    3bc074c4:	f8ffe0ef          	jal	ra,3bc06452 <LZ4F_readLE32>
    3bc074c8:	2501                	sext.w	a0,a0
    3bc074ca:	47a9                	li	a5,10
    3bc074cc:	c50d                	beqz	a0,3bc074f6 <LZ4F_decompress+0x2e8>
    3bc074ce:	030d3683          	ld	a3,48(s10)
    3bc074d2:	7805378b          	extu	a5,a0,30,0
    3bc074d6:	7c07b70b          	extu	a4,a5,31,0
    3bc074da:	4ef6ee63          	bltu	a3,a5,3bc079d6 <LZ4F_decompress+0x7c8>
    3bc074de:	01cd2783          	lw	a5,28(s10)
    3bc074e2:	00055d63          	bgez	a0,3bc074fc <LZ4F_decompress+0x2ee>
    3bc074e6:	04ed3823          	sd	a4,80(s10)
    3bc074ea:	c789                	beqz	a5,3bc074f4 <LZ4F_decompress+0x2e6>
    3bc074ec:	7502                	ld	a0,32(sp)
    3bc074ee:	4581                	li	a1,0
    3bc074f0:	23d000ef          	jal	ra,3bc07f2c <XXH32_reset>
    3bc074f4:	4795                	li	a5,5
    3bc074f6:	02fd2223          	sw	a5,36(s10)
    3bc074fa:	bd99                	j	3bc07350 <LZ4F_decompress+0x142>
    3bc074fc:	02079693          	slli	a3,a5,0x20
    3bc07500:	01e6d793          	srli	a5,a3,0x1e
    3bc07504:	97ba                	add	a5,a5,a4
    3bc07506:	471d                	li	a4,7
    3bc07508:	04fd3823          	sd	a5,80(s10)
    3bc0750c:	02ed2223          	sw	a4,36(s10)
    3bc07510:	01690463          	beq	s2,s6,3bc07518 <LZ4F_decompress+0x30a>
    3bc07514:	e3341ee3          	bne	s0,s3,3bc07350 <LZ4F_decompress+0x142>
    3bc07518:	00478493          	addi	s1,a5,4
    3bc0751c:	b569                	j	3bc073a6 <LZ4F_decompress+0x198>
    3bc0751e:	4601                	li	a2,0
    3bc07520:	06090e63          	beqz	s2,3bc0759c <LZ4F_decompress+0x38e>
    3bc07524:	41998733          	sub	a4,s3,s9
    3bc07528:	412b0633          	sub	a2,s6,s2
    3bc0752c:	00c737b3          	sltu	a5,a4,a2
    3bc07530:	0017c793          	xori	a5,a5,1
    3bc07534:	40f7160b          	mveqz	a2,a4,a5
    3bc07538:	050d3703          	ld	a4,80(s10)
    3bc0753c:	85e6                	mv	a1,s9
    3bc0753e:	854a                	mv	a0,s2
    3bc07540:	00c737b3          	sltu	a5,a4,a2
    3bc07544:	0017c793          	xori	a5,a5,1
    3bc07548:	40f7160b          	mveqz	a2,a4,a5
    3bc0754c:	f832                	sd	a2,48(sp)
    3bc0754e:	d1ef90ef          	jal	ra,3bc00a6c <memcpy>
    3bc07552:	01cd2783          	lw	a5,28(s10)
    3bc07556:	7642                	ld	a2,48(sp)
    3bc07558:	c791                	beqz	a5,3bc07564 <LZ4F_decompress+0x356>
    3bc0755a:	7502                	ld	a0,32(sp)
    3bc0755c:	85e6                	mv	a1,s9
    3bc0755e:	225000ef          	jal	ra,3bc07f82 <XXH32_update>
    3bc07562:	7642                	ld	a2,48(sp)
    3bc07564:	008d2783          	lw	a5,8(s10)
    3bc07568:	c799                	beqz	a5,3bc07576 <LZ4F_decompress+0x368>
    3bc0756a:	85e6                	mv	a1,s9
    3bc0756c:	8562                	mv	a0,s8
    3bc0756e:	f832                	sd	a2,48(sp)
    3bc07570:	213000ef          	jal	ra,3bc07f82 <XXH32_update>
    3bc07574:	7642                	ld	a2,48(sp)
    3bc07576:	010d3783          	ld	a5,16(s10)
    3bc0757a:	c791                	beqz	a5,3bc07586 <LZ4F_decompress+0x378>
    3bc0757c:	028d3783          	ld	a5,40(s10)
    3bc07580:	8f91                	sub	a5,a5,a2
    3bc07582:	02fd3423          	sd	a5,40(s10)
    3bc07586:	004d2783          	lw	a5,4(s10)
    3bc0758a:	eb89                	bnez	a5,3bc0759c <LZ4F_decompress+0x38e>
    3bc0758c:	4701                	li	a4,0
    3bc0758e:	86d6                	mv	a3,s5
    3bc07590:	85ca                	mv	a1,s2
    3bc07592:	856a                	mv	a0,s10
    3bc07594:	f832                	sd	a2,48(sp)
    3bc07596:	956ff0ef          	jal	ra,3bc066ec <LZ4F_updateDict>
    3bc0759a:	7642                	ld	a2,48(sp)
    3bc0759c:	050d3783          	ld	a5,80(s10)
    3bc075a0:	01cd2703          	lw	a4,28(s10)
    3bc075a4:	00cc8433          	add	s0,s9,a2
    3bc075a8:	9932                	add	s2,s2,a2
    3bc075aa:	00c79863          	bne	a5,a2,3bc075ba <LZ4F_decompress+0x3ac>
    3bc075ae:	28070d63          	beqz	a4,3bc07848 <LZ4F_decompress+0x63a>
    3bc075b2:	040d3423          	sd	zero,72(s10)
    3bc075b6:	4799                	li	a5,6
    3bc075b8:	bf3d                	j	3bc074f6 <LZ4F_decompress+0x2e8>
    3bc075ba:	40c78633          	sub	a2,a5,a2
    3bc075be:	04cd3823          	sd	a2,80(s10)
    3bc075c2:	00e03733          	snez	a4,a4
    3bc075c6:	0611                	addi	a2,a2,4
    3bc075c8:	04e6148b          	addsl	s1,a2,a4,2
    3bc075cc:	bbe9                	j	3bc073a6 <LZ4F_decompress+0x198>
    3bc075ce:	419987b3          	sub	a5,s3,s9
    3bc075d2:	470d                	li	a4,3
    3bc075d4:	048d3503          	ld	a0,72(s10)
    3bc075d8:	02f75363          	bge	a4,a5,3bc075fe <LZ4F_decompress+0x3f0>
    3bc075dc:	e10d                	bnez	a0,3bc075fe <LZ4F_decompress+0x3f0>
    3bc075de:	004c8413          	addi	s0,s9,4
    3bc075e2:	8766                	mv	a4,s9
    3bc075e4:	853a                	mv	a0,a4
    3bc075e6:	e6dfe0ef          	jal	ra,3bc06452 <LZ4F_readLE32>
    3bc075ea:	00050c9b          	sext.w	s9,a0
    3bc075ee:	7502                	ld	a0,32(sp)
    3bc075f0:	365000ef          	jal	ra,3bc08154 <XXH32_digest>
    3bc075f4:	2501                	sext.w	a0,a0
    3bc075f6:	24ac8963          	beq	s9,a0,3bc07848 <LZ4F_decompress+0x63a>
    3bc075fa:	5565                	li	a0,-7
    3bc075fc:	bb75                	j	3bc073b8 <LZ4F_decompress+0x1aa>
    3bc075fe:	4411                	li	s0,4
    3bc07600:	8c09                	sub	s0,s0,a0
    3bc07602:	0087b733          	sltu	a4,a5,s0
    3bc07606:	00174713          	xori	a4,a4,1
    3bc0760a:	40e7940b          	mveqz	s0,a5,a4
    3bc0760e:	8622                	mv	a2,s0
    3bc07610:	85e6                	mv	a1,s9
    3bc07612:	955e                	add	a0,a0,s7
    3bc07614:	f85e                	sd	s7,48(sp)
    3bc07616:	c56f90ef          	jal	ra,3bc00a6c <memcpy>
    3bc0761a:	048d3783          	ld	a5,72(s10)
    3bc0761e:	468d                	li	a3,3
    3bc07620:	7742                	ld	a4,48(sp)
    3bc07622:	97a2                	add	a5,a5,s0
    3bc07624:	04fd3423          	sd	a5,72(s10)
    3bc07628:	9466                	add	s0,s0,s9
    3bc0762a:	d6f6fee3          	bgeu	a3,a5,3bc073a6 <LZ4F_decompress+0x198>
    3bc0762e:	bf5d                	j	3bc075e4 <LZ4F_decompress+0x3d6>
    3bc07630:	050d3403          	ld	s0,80(s10)
    3bc07634:	419987b3          	sub	a5,s3,s9
    3bc07638:	0087f963          	bgeu	a5,s0,3bc0764a <LZ4F_decompress+0x43c>
    3bc0763c:	47a1                	li	a5,8
    3bc0763e:	040d3423          	sd	zero,72(s10)
    3bc07642:	02fd2223          	sw	a5,36(s10)
    3bc07646:	8466                	mv	s0,s9
    3bc07648:	b321                	j	3bc07350 <LZ4F_decompress+0x142>
    3bc0764a:	9466                	add	s0,s0,s9
    3bc0764c:	01cd2783          	lw	a5,28(s10)
    3bc07650:	16079563          	bnez	a5,3bc077ba <LZ4F_decompress+0x5ac>
    3bc07654:	030d3683          	ld	a3,48(s10)
    3bc07658:	412b0633          	sub	a2,s6,s2
    3bc0765c:	060d3703          	ld	a4,96(s10)
    3bc07660:	068d3783          	ld	a5,104(s10)
    3bc07664:	18d67263          	bgeu	a2,a3,3bc077e8 <LZ4F_decompress+0x5da>
    3bc07668:	004d2683          	lw	a3,4(s10)
    3bc0766c:	ea95                	bnez	a3,3bc076a0 <LZ4F_decompress+0x492>
    3bc0766e:	058d3683          	ld	a3,88(s10)
    3bc07672:	1cd71d63          	bne	a4,a3,3bc0784c <LZ4F_decompress+0x63e>
    3bc07676:	000206b7          	lui	a3,0x20
    3bc0767a:	00f6fc63          	bgeu	a3,a5,3bc07692 <LZ4F_decompress+0x484>
    3bc0767e:	75c1                	lui	a1,0xffff0
    3bc07680:	95be                	add	a1,a1,a5
    3bc07682:	6641                	lui	a2,0x10
    3bc07684:	95ba                	add	a1,a1,a4
    3bc07686:	853a                	mv	a0,a4
    3bc07688:	be4f90ef          	jal	ra,3bc00a6c <memcpy>
    3bc0768c:	67c1                	lui	a5,0x10
    3bc0768e:	06fd3423          	sd	a5,104(s10)
    3bc07692:	058d3783          	ld	a5,88(s10)
    3bc07696:	068d3703          	ld	a4,104(s10)
    3bc0769a:	97ba                	add	a5,a5,a4
    3bc0769c:	06fd3823          	sd	a5,112(s10)
    3bc076a0:	060d3703          	ld	a4,96(s10)
    3bc076a4:	068d3783          	ld	a5,104(s10)
    3bc076a8:	cb09                	beqz	a4,3bc076ba <LZ4F_decompress+0x4ac>
    3bc076aa:	400006b7          	lui	a3,0x40000
    3bc076ae:	00f6f663          	bgeu	a3,a5,3bc076ba <LZ4F_decompress+0x4ac>
    3bc076b2:	76c1                	lui	a3,0xffff0
    3bc076b4:	97b6                	add	a5,a5,a3
    3bc076b6:	973e                	add	a4,a4,a5
    3bc076b8:	67c1                	lui	a5,0x10
    3bc076ba:	030d2683          	lw	a3,48(s10)
    3bc076be:	050d2603          	lw	a2,80(s10)
    3bc076c2:	070d3583          	ld	a1,112(s10)
    3bc076c6:	8566                	mv	a0,s9
    3bc076c8:	2781                	sext.w	a5,a5
    3bc076ca:	921ff0ef          	jal	ra,3bc06fea <LZ4_decompress_safe_usingDict>
    3bc076ce:	8caa                	mv	s9,a0
    3bc076d0:	30054763          	bltz	a0,3bc079de <LZ4F_decompress+0x7d0>
    3bc076d4:	008d2783          	lw	a5,8(s10)
    3bc076d8:	c799                	beqz	a5,3bc076e6 <LZ4F_decompress+0x4d8>
    3bc076da:	070d3583          	ld	a1,112(s10)
    3bc076de:	862a                	mv	a2,a0
    3bc076e0:	8562                	mv	a0,s8
    3bc076e2:	0a1000ef          	jal	ra,3bc07f82 <XXH32_update>
    3bc076e6:	010d3783          	ld	a5,16(s10)
    3bc076ea:	c799                	beqz	a5,3bc076f8 <LZ4F_decompress+0x4ea>
    3bc076ec:	028d3783          	ld	a5,40(s10)
    3bc076f0:	419787b3          	sub	a5,a5,s9
    3bc076f4:	02fd3423          	sd	a5,40(s10)
    3bc076f8:	47a5                	li	a5,9
    3bc076fa:	079d3c23          	sd	s9,120(s10)
    3bc076fe:	080d3023          	sd	zero,128(s10)
    3bc07702:	02fd2223          	sw	a5,36(s10)
    3bc07706:	04090763          	beqz	s2,3bc07754 <LZ4F_decompress+0x546>
    3bc0770a:	080d3703          	ld	a4,128(s10)
    3bc0770e:	078d3603          	ld	a2,120(s10)
    3bc07712:	412b06b3          	sub	a3,s6,s2
    3bc07716:	070d3583          	ld	a1,112(s10)
    3bc0771a:	8e19                	sub	a2,a2,a4
    3bc0771c:	00c6b7b3          	sltu	a5,a3,a2
    3bc07720:	0017c793          	xori	a5,a5,1
    3bc07724:	42f6168b          	mvnez	a3,a2,a5
    3bc07728:	8636                	mv	a2,a3
    3bc0772a:	95ba                	add	a1,a1,a4
    3bc0772c:	854a                	mv	a0,s2
    3bc0772e:	8cb6                	mv	s9,a3
    3bc07730:	b3cf90ef          	jal	ra,3bc00a6c <memcpy>
    3bc07734:	004d2783          	lw	a5,4(s10)
    3bc07738:	eb81                	bnez	a5,3bc07748 <LZ4F_decompress+0x53a>
    3bc0773a:	4705                	li	a4,1
    3bc0773c:	86d6                	mv	a3,s5
    3bc0773e:	8666                	mv	a2,s9
    3bc07740:	85ca                	mv	a1,s2
    3bc07742:	856a                	mv	a0,s10
    3bc07744:	fa9fe0ef          	jal	ra,3bc066ec <LZ4F_updateDict>
    3bc07748:	080d3783          	ld	a5,128(s10)
    3bc0774c:	9966                	add	s2,s2,s9
    3bc0774e:	97e6                	add	a5,a5,s9
    3bc07750:	08fd3023          	sd	a5,128(s10)
    3bc07754:	080d3703          	ld	a4,128(s10)
    3bc07758:	078d3783          	ld	a5,120(s10)
    3bc0775c:	0ef70663          	beq	a4,a5,3bc07848 <LZ4F_decompress+0x63a>
    3bc07760:	4491                	li	s1,4
    3bc07762:	b191                	j	3bc073a6 <LZ4F_decompress+0x198>
    3bc07764:	048d3703          	ld	a4,72(s10)
    3bc07768:	050d3403          	ld	s0,80(s10)
    3bc0776c:	41998633          	sub	a2,s3,s9
    3bc07770:	040d3503          	ld	a0,64(s10)
    3bc07774:	8c19                	sub	s0,s0,a4
    3bc07776:	008637b3          	sltu	a5,a2,s0
    3bc0777a:	0017c793          	xori	a5,a5,1
    3bc0777e:	40f6140b          	mveqz	s0,a2,a5
    3bc07782:	8622                	mv	a2,s0
    3bc07784:	953a                	add	a0,a0,a4
    3bc07786:	85e6                	mv	a1,s9
    3bc07788:	ae4f90ef          	jal	ra,3bc00a6c <memcpy>
    3bc0778c:	048d3783          	ld	a5,72(s10)
    3bc07790:	00f40733          	add	a4,s0,a5
    3bc07794:	050d3783          	ld	a5,80(s10)
    3bc07798:	04ed3423          	sd	a4,72(s10)
    3bc0779c:	9466                	add	s0,s0,s9
    3bc0779e:	00f77b63          	bgeu	a4,a5,3bc077b4 <LZ4F_decompress+0x5a6>
    3bc077a2:	01cd2483          	lw	s1,28(s10)
    3bc077a6:	0791                	addi	a5,a5,4
    3bc077a8:	8f99                	sub	a5,a5,a4
    3bc077aa:	009034b3          	snez	s1,s1
    3bc077ae:	0497948b          	addsl	s1,a5,s1,2
    3bc077b2:	bed5                	j	3bc073a6 <LZ4F_decompress+0x198>
    3bc077b4:	040d3c83          	ld	s9,64(s10)
    3bc077b8:	bd51                	j	3bc0764c <LZ4F_decompress+0x43e>
    3bc077ba:	050d3583          	ld	a1,80(s10)
    3bc077be:	15f1                	addi	a1,a1,-4
    3bc077c0:	04bd3823          	sd	a1,80(s10)
    3bc077c4:	00bc8533          	add	a0,s9,a1
    3bc077c8:	fc2e                	sd	a1,56(sp)
    3bc077ca:	c89fe0ef          	jal	ra,3bc06452 <LZ4F_readLE32>
    3bc077ce:	75e2                	ld	a1,56(sp)
    3bc077d0:	0005079b          	sext.w	a5,a0
    3bc077d4:	4601                	li	a2,0
    3bc077d6:	8566                	mv	a0,s9
    3bc077d8:	f83e                	sd	a5,48(sp)
    3bc077da:	58c000ef          	jal	ra,3bc07d66 <XXH32>
    3bc077de:	77c2                	ld	a5,48(sp)
    3bc077e0:	2501                	sext.w	a0,a0
    3bc077e2:	e6a789e3          	beq	a5,a0,3bc07654 <LZ4F_decompress+0x446>
    3bc077e6:	bd11                	j	3bc075fa <LZ4F_decompress+0x3ec>
    3bc077e8:	cb09                	beqz	a4,3bc077fa <LZ4F_decompress+0x5ec>
    3bc077ea:	40000637          	lui	a2,0x40000
    3bc077ee:	00f67663          	bgeu	a2,a5,3bc077fa <LZ4F_decompress+0x5ec>
    3bc077f2:	75c1                	lui	a1,0xffff0
    3bc077f4:	97ae                	add	a5,a5,a1
    3bc077f6:	973e                	add	a4,a4,a5
    3bc077f8:	67c1                	lui	a5,0x10
    3bc077fa:	050d2603          	lw	a2,80(s10)
    3bc077fe:	8566                	mv	a0,s9
    3bc07800:	2781                	sext.w	a5,a5
    3bc07802:	2681                	sext.w	a3,a3
    3bc07804:	85ca                	mv	a1,s2
    3bc07806:	fe4ff0ef          	jal	ra,3bc06fea <LZ4_decompress_safe_usingDict>
    3bc0780a:	8caa                	mv	s9,a0
    3bc0780c:	1c054763          	bltz	a0,3bc079da <LZ4F_decompress+0x7cc>
    3bc07810:	008d2783          	lw	a5,8(s10)
    3bc07814:	c791                	beqz	a5,3bc07820 <LZ4F_decompress+0x612>
    3bc07816:	862a                	mv	a2,a0
    3bc07818:	85ca                	mv	a1,s2
    3bc0781a:	8562                	mv	a0,s8
    3bc0781c:	766000ef          	jal	ra,3bc07f82 <XXH32_update>
    3bc07820:	010d3783          	ld	a5,16(s10)
    3bc07824:	c799                	beqz	a5,3bc07832 <LZ4F_decompress+0x624>
    3bc07826:	028d3783          	ld	a5,40(s10)
    3bc0782a:	419787b3          	sub	a5,a5,s9
    3bc0782e:	02fd3423          	sd	a5,40(s10)
    3bc07832:	004d2783          	lw	a5,4(s10)
    3bc07836:	eb81                	bnez	a5,3bc07846 <LZ4F_decompress+0x638>
    3bc07838:	4701                	li	a4,0
    3bc0783a:	86d6                	mv	a3,s5
    3bc0783c:	8666                	mv	a2,s9
    3bc0783e:	85ca                	mv	a1,s2
    3bc07840:	856a                	mv	a0,s10
    3bc07842:	eabfe0ef          	jal	ra,3bc066ec <LZ4F_updateDict>
    3bc07846:	9966                	add	s2,s2,s9
    3bc07848:	478d                	li	a5,3
    3bc0784a:	b175                	j	3bc074f6 <LZ4F_decompress+0x2e8>
    3bc0784c:	6741                	lui	a4,0x10
    3bc0784e:	00f77363          	bgeu	a4,a5,3bc07854 <LZ4F_decompress+0x646>
    3bc07852:	67c1                	lui	a5,0x10
    3bc07854:	97b6                	add	a5,a5,a3
    3bc07856:	b599                	j	3bc0769c <LZ4F_decompress+0x48e>
    3bc07858:	8466                	mv	s0,s9
    3bc0785a:	b575                	j	3bc07706 <LZ4F_decompress+0x4f8>
    3bc0785c:	028d3483          	ld	s1,40(s10)
    3bc07860:	18049163          	bnez	s1,3bc079e2 <LZ4F_decompress+0x7d4>
    3bc07864:	008d2a03          	lw	s4,8(s10)
    3bc07868:	000a1963          	bnez	s4,3bc0787a <LZ4F_decompress+0x66c>
    3bc0786c:	020d2223          	sw	zero,36(s10)
    3bc07870:	060d3023          	sd	zero,96(s10)
    3bc07874:	060d3423          	sd	zero,104(s10)
    3bc07878:	b3f9                	j	3bc07646 <LZ4F_decompress+0x438>
    3bc0787a:	419987b3          	sub	a5,s3,s9
    3bc0787e:	470d                	li	a4,3
    3bc07880:	04f74a63          	blt	a4,a5,3bc078d4 <LZ4F_decompress+0x6c6>
    3bc07884:	47ad                	li	a5,11
    3bc07886:	040d3423          	sd	zero,72(s10)
    3bc0788a:	02fd2223          	sw	a5,36(s10)
    3bc0788e:	048d3703          	ld	a4,72(s10)
    3bc07892:	4491                	li	s1,4
    3bc07894:	41998a33          	sub	s4,s3,s9
    3bc07898:	40e48633          	sub	a2,s1,a4
    3bc0789c:	014637b3          	sltu	a5,a2,s4
    3bc078a0:	040d3503          	ld	a0,64(s10)
    3bc078a4:	0017c793          	xori	a5,a5,1
    3bc078a8:	40f61a0b          	mveqz	s4,a2,a5
    3bc078ac:	8652                	mv	a2,s4
    3bc078ae:	85e6                	mv	a1,s9
    3bc078b0:	953a                	add	a0,a0,a4
    3bc078b2:	9baf90ef          	jal	ra,3bc00a6c <memcpy>
    3bc078b6:	048d3603          	ld	a2,72(s10)
    3bc078ba:	014c8433          	add	s0,s9,s4
    3bc078be:	478d                	li	a5,3
    3bc078c0:	9a32                	add	s4,s4,a2
    3bc078c2:	054d3423          	sd	s4,72(s10)
    3bc078c6:	414484b3          	sub	s1,s1,s4
    3bc078ca:	ad47fee3          	bgeu	a5,s4,3bc073a6 <LZ4F_decompress+0x198>
    3bc078ce:	040d3c83          	ld	s9,64(s10)
    3bc078d2:	a019                	j	3bc078d8 <LZ4F_decompress+0x6ca>
    3bc078d4:	004c8413          	addi	s0,s9,4
    3bc078d8:	8566                	mv	a0,s9
    3bc078da:	b79fe0ef          	jal	ra,3bc06452 <LZ4F_readLE32>
    3bc078de:	0005049b          	sext.w	s1,a0
    3bc078e2:	8562                	mv	a0,s8
    3bc078e4:	071000ef          	jal	ra,3bc08154 <XXH32_digest>
    3bc078e8:	2501                	sext.w	a0,a0
    3bc078ea:	0ea49e63          	bne	s1,a0,3bc079e6 <LZ4F_decompress+0x7d8>
    3bc078ee:	020d2223          	sw	zero,36(s10)
    3bc078f2:	060d3023          	sd	zero,96(s10)
    3bc078f6:	060d3423          	sd	zero,104(s10)
    3bc078fa:	4481                	li	s1,0
    3bc078fc:	b46d                	j	3bc073a6 <LZ4F_decompress+0x198>
    3bc078fe:	419987b3          	sub	a5,s3,s9
    3bc07902:	470d                	li	a4,3
    3bc07904:	004c8413          	addi	s0,s9,4
    3bc07908:	04f74d63          	blt	a4,a5,3bc07962 <LZ4F_decompress+0x754>
    3bc0790c:	4791                	li	a5,4
    3bc0790e:	04fd3423          	sd	a5,72(s10)
    3bc07912:	47a1                	li	a5,8
    3bc07914:	04fd3823          	sd	a5,80(s10)
    3bc07918:	47b5                	li	a5,13
    3bc0791a:	02fd2223          	sw	a5,36(s10)
    3bc0791e:	048d3503          	ld	a0,72(s10)
    3bc07922:	050d3603          	ld	a2,80(s10)
    3bc07926:	41998733          	sub	a4,s3,s9
    3bc0792a:	85e6                	mv	a1,s9
    3bc0792c:	8e09                	sub	a2,a2,a0
    3bc0792e:	00c737b3          	sltu	a5,a4,a2
    3bc07932:	0017c793          	xori	a5,a5,1
    3bc07936:	40f7160b          	mveqz	a2,a4,a5
    3bc0793a:	955e                	add	a0,a0,s7
    3bc0793c:	f832                	sd	a2,48(sp)
    3bc0793e:	92ef90ef          	jal	ra,3bc00a6c <memcpy>
    3bc07942:	048d3783          	ld	a5,72(s10)
    3bc07946:	7642                	ld	a2,48(sp)
    3bc07948:	00cc8433          	add	s0,s9,a2
    3bc0794c:	963e                	add	a2,a2,a5
    3bc0794e:	050d3783          	ld	a5,80(s10)
    3bc07952:	04cd3423          	sd	a2,72(s10)
    3bc07956:	00f67563          	bgeu	a2,a5,3bc07960 <LZ4F_decompress+0x752>
    3bc0795a:	40c784b3          	sub	s1,a5,a2
    3bc0795e:	b4a1                	j	3bc073a6 <LZ4F_decompress+0x198>
    3bc07960:	7ca2                	ld	s9,40(sp)
    3bc07962:	8566                	mv	a0,s9
    3bc07964:	aeffe0ef          	jal	ra,3bc06452 <LZ4F_readLE32>
    3bc07968:	7c05350b          	extu	a0,a0,31,0
    3bc0796c:	00ad3823          	sd	a0,16(s10)
    3bc07970:	04ad3823          	sd	a0,80(s10)
    3bc07974:	47b9                	li	a5,14
    3bc07976:	b641                	j	3bc074f6 <LZ4F_decompress+0x2e8>
    3bc07978:	050d3483          	ld	s1,80(s10)
    3bc0797c:	41998633          	sub	a2,s3,s9
    3bc07980:	4a01                	li	s4,0
    3bc07982:	00c4b7b3          	sltu	a5,s1,a2
    3bc07986:	0017c793          	xori	a5,a5,1
    3bc0798a:	40f4960b          	mveqz	a2,s1,a5
    3bc0798e:	8c91                	sub	s1,s1,a2
    3bc07990:	049d3823          	sd	s1,80(s10)
    3bc07994:	00cc8433          	add	s0,s9,a2
    3bc07998:	9a049ce3          	bnez	s1,3bc07350 <LZ4F_decompress+0x142>
    3bc0799c:	020d2223          	sw	zero,36(s10)
    3bc079a0:	060d3023          	sd	zero,96(s10)
    3bc079a4:	060d3423          	sd	zero,104(s10)
    3bc079a8:	b265                	j	3bc07350 <LZ4F_decompress+0x142>
    3bc079aa:	6741                	lui	a4,0x10
    3bc079ac:	843e                	mv	s0,a5
    3bc079ae:	00f77363          	bgeu	a4,a5,3bc079b4 <LZ4F_decompress+0x7a6>
    3bc079b2:	6441                	lui	s0,0x10
    3bc079b4:	8f81                	sub	a5,a5,s0
    3bc079b6:	95be                	add	a1,a1,a5
    3bc079b8:	8622                	mv	a2,s0
    3bc079ba:	8b2f90ef          	jal	ra,3bc00a6c <memcpy>
    3bc079be:	058d3783          	ld	a5,88(s10)
    3bc079c2:	068d3423          	sd	s0,104(s10)
    3bc079c6:	06fd3023          	sd	a5,96(s10)
    3bc079ca:	97a2                	add	a5,a5,s0
    3bc079cc:	06fd3823          	sd	a5,112(s10)
    3bc079d0:	b23d                	j	3bc072fe <LZ4F_decompress+0xf0>
    3bc079d2:	451d                	li	a0,7
    3bc079d4:	b2d5                	j	3bc073b8 <LZ4F_decompress+0x1aa>
    3bc079d6:	5579                	li	a0,-2
    3bc079d8:	b2c5                	j	3bc073b8 <LZ4F_decompress+0x1aa>
    3bc079da:	557d                	li	a0,-1
    3bc079dc:	baf1                	j	3bc073b8 <LZ4F_decompress+0x1aa>
    3bc079de:	5541                	li	a0,-16
    3bc079e0:	bae1                	j	3bc073b8 <LZ4F_decompress+0x1aa>
    3bc079e2:	5549                	li	a0,-14
    3bc079e4:	bad1                	j	3bc073b8 <LZ4F_decompress+0x1aa>
    3bc079e6:	5539                	li	a0,-18
    3bc079e8:	bac1                	j	3bc073b8 <LZ4F_decompress+0x1aa>

000000003bc079ea <XXH32_avalanche>:
    3bc079ea:	00f5579b          	srliw	a5,a0,0xf
    3bc079ee:	8d3d                	xor	a0,a0,a5
    3bc079f0:	85ebd7b7          	lui	a5,0x85ebd
    3bc079f4:	a777879b          	addiw	a5,a5,-1417
    3bc079f8:	02a7853b          	mulw	a0,a5,a0
    3bc079fc:	00d5579b          	srliw	a5,a0,0xd
    3bc07a00:	8fa9                	xor	a5,a5,a0
    3bc07a02:	c2b2b537          	lui	a0,0xc2b2b
    3bc07a06:	e3d5051b          	addiw	a0,a0,-451
    3bc07a0a:	02a787bb          	mulw	a5,a5,a0
    3bc07a0e:	0107d51b          	srliw	a0,a5,0x10
    3bc07a12:	8d3d                	xor	a0,a0,a5
    3bc07a14:	8082                	ret

000000003bc07a16 <XXH_read32>:
    3bc07a16:	1101                	addi	sp,sp,-32
    3bc07a18:	85aa                	mv	a1,a0
    3bc07a1a:	4611                	li	a2,4
    3bc07a1c:	0068                	addi	a0,sp,12
    3bc07a1e:	ec06                	sd	ra,24(sp)
    3bc07a20:	84cf90ef          	jal	ra,3bc00a6c <memcpy>
    3bc07a24:	60e2                	ld	ra,24(sp)
    3bc07a26:	4532                	lw	a0,12(sp)
    3bc07a28:	6105                	addi	sp,sp,32
    3bc07a2a:	8082                	ret

000000003bc07a2c <XXH32_finalize.constprop.0>:
    3bc07a2c:	1101                	addi	sp,sp,-32
    3bc07a2e:	8a3d                	andi	a2,a2,15
    3bc07a30:	e822                	sd	s0,16(sp)
    3bc07a32:	ec06                	sd	ra,24(sp)
    3bc07a34:	e426                	sd	s1,8(sp)
    3bc07a36:	e04a                	sd	s2,0(sp)
    3bc07a38:	167d                	addi	a2,a2,-1
    3bc07a3a:	47b9                	li	a5,14
    3bc07a3c:	842a                	mv	s0,a0
    3bc07a3e:	30c7ec63          	bltu	a5,a2,3bc07d56 <XXH32_finalize.constprop.0+0x32a>
    3bc07a42:	00003717          	auipc	a4,0x3
    3bc07a46:	77670713          	addi	a4,a4,1910 # 3bc0b1b8 <inc32table+0x20>
    3bc07a4a:	44c7478b          	lrw	a5,a4,a2,2
    3bc07a4e:	84ae                	mv	s1,a1
    3bc07a50:	8936                	mv	s2,a3
    3bc07a52:	97ba                	add	a5,a5,a4
    3bc07a54:	8782                	jr	a5
    3bc07a56:	4785                	li	a5,1
    3bc07a58:	08f69a63          	bne	a3,a5,3bc07aec <XXH32_finalize.constprop.0+0xc0>
    3bc07a5c:	852e                	mv	a0,a1
    3bc07a5e:	fb9ff0ef          	jal	ra,3bc07a16 <XXH_read32>
    3bc07a62:	0005079b          	sext.w	a5,a0
    3bc07a66:	c2b2b737          	lui	a4,0xc2b2b
    3bc07a6a:	e3d7071b          	addiw	a4,a4,-451
    3bc07a6e:	24f7140b          	mulaw	s0,a4,a5
    3bc07a72:	27d4f7b7          	lui	a5,0x27d4f
    3bc07a76:	b2f7879b          	addiw	a5,a5,-1233
    3bc07a7a:	0491                	addi	s1,s1,4
    3bc07a7c:	14f4140b          	srriw	s0,s0,15
    3bc07a80:	02f4043b          	mulw	s0,s0,a5
    3bc07a84:	4785                	li	a5,1
    3bc07a86:	06f91563          	bne	s2,a5,3bc07af0 <XXH32_finalize.constprop.0+0xc4>
    3bc07a8a:	8526                	mv	a0,s1
    3bc07a8c:	f8bff0ef          	jal	ra,3bc07a16 <XXH_read32>
    3bc07a90:	0005079b          	sext.w	a5,a0
    3bc07a94:	c2b2b737          	lui	a4,0xc2b2b
    3bc07a98:	e3d7071b          	addiw	a4,a4,-451
    3bc07a9c:	0491                	addi	s1,s1,4
    3bc07a9e:	24f7140b          	mulaw	s0,a4,a5
    3bc07aa2:	27d4f7b7          	lui	a5,0x27d4f
    3bc07aa6:	b2f7879b          	addiw	a5,a5,-1233
    3bc07aaa:	14f4140b          	srriw	s0,s0,15
    3bc07aae:	02f4043b          	mulw	s0,s0,a5
    3bc07ab2:	4785                	li	a5,1
    3bc07ab4:	04f91063          	bne	s2,a5,3bc07af4 <XXH32_finalize.constprop.0+0xc8>
    3bc07ab8:	8526                	mv	a0,s1
    3bc07aba:	f5dff0ef          	jal	ra,3bc07a16 <XXH_read32>
    3bc07abe:	0005079b          	sext.w	a5,a0
    3bc07ac2:	c2b2b737          	lui	a4,0xc2b2b
    3bc07ac6:	e3d7071b          	addiw	a4,a4,-451
    3bc07aca:	24f7140b          	mulaw	s0,a4,a5
    3bc07ace:	27d4f7b7          	lui	a5,0x27d4f
    3bc07ad2:	b2f7879b          	addiw	a5,a5,-1233
    3bc07ad6:	14f4150b          	srriw	a0,s0,15
    3bc07ada:	02a7853b          	mulw	a0,a5,a0
    3bc07ade:	6442                	ld	s0,16(sp)
    3bc07ae0:	60e2                	ld	ra,24(sp)
    3bc07ae2:	64a2                	ld	s1,8(sp)
    3bc07ae4:	6902                	ld	s2,0(sp)
    3bc07ae6:	6105                	addi	sp,sp,32
    3bc07ae8:	f03ff06f          	j	3bc079ea <XXH32_avalanche>
    3bc07aec:	419c                	lw	a5,0(a1)
    3bc07aee:	bfa5                	j	3bc07a66 <XXH32_finalize.constprop.0+0x3a>
    3bc07af0:	409c                	lw	a5,0(s1)
    3bc07af2:	b74d                	j	3bc07a94 <XXH32_finalize.constprop.0+0x68>
    3bc07af4:	409c                	lw	a5,0(s1)
    3bc07af6:	b7f1                	j	3bc07ac2 <XXH32_finalize.constprop.0+0x96>
    3bc07af8:	4785                	li	a5,1
    3bc07afa:	0af69263          	bne	a3,a5,3bc07b9e <XXH32_finalize.constprop.0+0x172>
    3bc07afe:	852e                	mv	a0,a1
    3bc07b00:	f17ff0ef          	jal	ra,3bc07a16 <XXH_read32>
    3bc07b04:	0005079b          	sext.w	a5,a0
    3bc07b08:	c2b2b737          	lui	a4,0xc2b2b
    3bc07b0c:	e3d7071b          	addiw	a4,a4,-451
    3bc07b10:	24f7140b          	mulaw	s0,a4,a5
    3bc07b14:	27d4f7b7          	lui	a5,0x27d4f
    3bc07b18:	b2f7879b          	addiw	a5,a5,-1233
    3bc07b1c:	0491                	addi	s1,s1,4
    3bc07b1e:	14f4140b          	srriw	s0,s0,15
    3bc07b22:	02f4043b          	mulw	s0,s0,a5
    3bc07b26:	4785                	li	a5,1
    3bc07b28:	06f91d63          	bne	s2,a5,3bc07ba2 <XXH32_finalize.constprop.0+0x176>
    3bc07b2c:	8526                	mv	a0,s1
    3bc07b2e:	ee9ff0ef          	jal	ra,3bc07a16 <XXH_read32>
    3bc07b32:	0005079b          	sext.w	a5,a0
    3bc07b36:	c2b2b737          	lui	a4,0xc2b2b
    3bc07b3a:	e3d7071b          	addiw	a4,a4,-451
    3bc07b3e:	0491                	addi	s1,s1,4
    3bc07b40:	24f7140b          	mulaw	s0,a4,a5
    3bc07b44:	27d4f7b7          	lui	a5,0x27d4f
    3bc07b48:	b2f7879b          	addiw	a5,a5,-1233
    3bc07b4c:	14f4140b          	srriw	s0,s0,15
    3bc07b50:	02f4043b          	mulw	s0,s0,a5
    3bc07b54:	4785                	li	a5,1
    3bc07b56:	04f91863          	bne	s2,a5,3bc07ba6 <XXH32_finalize.constprop.0+0x17a>
    3bc07b5a:	8526                	mv	a0,s1
    3bc07b5c:	ebbff0ef          	jal	ra,3bc07a16 <XXH_read32>
    3bc07b60:	0005079b          	sext.w	a5,a0
    3bc07b64:	c2b2b737          	lui	a4,0xc2b2b
    3bc07b68:	e3d7071b          	addiw	a4,a4,-451
    3bc07b6c:	16566537          	lui	a0,0x16566
    3bc07b70:	7b15051b          	addiw	a0,a0,1969
    3bc07b74:	24f7140b          	mulaw	s0,a4,a5
    3bc07b78:	0044c783          	lbu	a5,4(s1)
    3bc07b7c:	27d4f737          	lui	a4,0x27d4f
    3bc07b80:	b2f7071b          	addiw	a4,a4,-1233
    3bc07b84:	02a787bb          	mulw	a5,a5,a0
    3bc07b88:	14f4140b          	srriw	s0,s0,15
    3bc07b8c:	9e378537          	lui	a0,0x9e378
    3bc07b90:	9b15051b          	addiw	a0,a0,-1615
    3bc07b94:	24e4178b          	mulaw	a5,s0,a4
    3bc07b98:	1557978b          	srriw	a5,a5,21
    3bc07b9c:	bf3d                	j	3bc07ada <XXH32_finalize.constprop.0+0xae>
    3bc07b9e:	419c                	lw	a5,0(a1)
    3bc07ba0:	b7a5                	j	3bc07b08 <XXH32_finalize.constprop.0+0xdc>
    3bc07ba2:	409c                	lw	a5,0(s1)
    3bc07ba4:	bf49                	j	3bc07b36 <XXH32_finalize.constprop.0+0x10a>
    3bc07ba6:	409c                	lw	a5,0(s1)
    3bc07ba8:	bf75                	j	3bc07b64 <XXH32_finalize.constprop.0+0x138>
    3bc07baa:	4785                	li	a5,1
    3bc07bac:	0af69a63          	bne	a3,a5,3bc07c60 <XXH32_finalize.constprop.0+0x234>
    3bc07bb0:	852e                	mv	a0,a1
    3bc07bb2:	e65ff0ef          	jal	ra,3bc07a16 <XXH_read32>
    3bc07bb6:	0005079b          	sext.w	a5,a0
    3bc07bba:	c2b2b737          	lui	a4,0xc2b2b
    3bc07bbe:	e3d7071b          	addiw	a4,a4,-451
    3bc07bc2:	24f7140b          	mulaw	s0,a4,a5
    3bc07bc6:	27d4f7b7          	lui	a5,0x27d4f
    3bc07bca:	b2f7879b          	addiw	a5,a5,-1233
    3bc07bce:	0491                	addi	s1,s1,4
    3bc07bd0:	14f4140b          	srriw	s0,s0,15
    3bc07bd4:	02f4043b          	mulw	s0,s0,a5
    3bc07bd8:	4785                	li	a5,1
    3bc07bda:	08f91563          	bne	s2,a5,3bc07c64 <XXH32_finalize.constprop.0+0x238>
    3bc07bde:	8526                	mv	a0,s1
    3bc07be0:	e37ff0ef          	jal	ra,3bc07a16 <XXH_read32>
    3bc07be4:	0005079b          	sext.w	a5,a0
    3bc07be8:	c2b2b737          	lui	a4,0xc2b2b
    3bc07bec:	e3d7071b          	addiw	a4,a4,-451
    3bc07bf0:	0491                	addi	s1,s1,4
    3bc07bf2:	24f7140b          	mulaw	s0,a4,a5
    3bc07bf6:	27d4f7b7          	lui	a5,0x27d4f
    3bc07bfa:	b2f7879b          	addiw	a5,a5,-1233
    3bc07bfe:	14f4140b          	srriw	s0,s0,15
    3bc07c02:	02f4043b          	mulw	s0,s0,a5
    3bc07c06:	4785                	li	a5,1
    3bc07c08:	06f91063          	bne	s2,a5,3bc07c68 <XXH32_finalize.constprop.0+0x23c>
    3bc07c0c:	8526                	mv	a0,s1
    3bc07c0e:	e09ff0ef          	jal	ra,3bc07a16 <XXH_read32>
    3bc07c12:	0005079b          	sext.w	a5,a0
    3bc07c16:	c2b2b737          	lui	a4,0xc2b2b
    3bc07c1a:	e3d7071b          	addiw	a4,a4,-451
    3bc07c1e:	9e378537          	lui	a0,0x9e378
    3bc07c22:	9b15051b          	addiw	a0,a0,-1615
    3bc07c26:	24f7140b          	mulaw	s0,a4,a5
    3bc07c2a:	0044c703          	lbu	a4,4(s1)
    3bc07c2e:	165667b7          	lui	a5,0x16566
    3bc07c32:	7b17869b          	addiw	a3,a5,1969
    3bc07c36:	27d4f7b7          	lui	a5,0x27d4f
    3bc07c3a:	b2f7879b          	addiw	a5,a5,-1233
    3bc07c3e:	02d7073b          	mulw	a4,a4,a3
    3bc07c42:	14f4140b          	srriw	s0,s0,15
    3bc07c46:	24f4170b          	mulaw	a4,s0,a5
    3bc07c4a:	0054c783          	lbu	a5,5(s1)
    3bc07c4e:	02d787bb          	mulw	a5,a5,a3
    3bc07c52:	1557170b          	srriw	a4,a4,21
    3bc07c56:	24a7178b          	mulaw	a5,a4,a0
    3bc07c5a:	1557978b          	srriw	a5,a5,21
    3bc07c5e:	bdb5                	j	3bc07ada <XXH32_finalize.constprop.0+0xae>
    3bc07c60:	419c                	lw	a5,0(a1)
    3bc07c62:	bfa1                	j	3bc07bba <XXH32_finalize.constprop.0+0x18e>
    3bc07c64:	409c                	lw	a5,0(s1)
    3bc07c66:	b749                	j	3bc07be8 <XXH32_finalize.constprop.0+0x1bc>
    3bc07c68:	409c                	lw	a5,0(s1)
    3bc07c6a:	b775                	j	3bc07c16 <XXH32_finalize.constprop.0+0x1ea>
    3bc07c6c:	4785                	li	a5,1
    3bc07c6e:	0ef69663          	bne	a3,a5,3bc07d5a <XXH32_finalize.constprop.0+0x32e>
    3bc07c72:	852e                	mv	a0,a1
    3bc07c74:	da3ff0ef          	jal	ra,3bc07a16 <XXH_read32>
    3bc07c78:	0005079b          	sext.w	a5,a0
    3bc07c7c:	c2b2b737          	lui	a4,0xc2b2b
    3bc07c80:	e3d7071b          	addiw	a4,a4,-451
    3bc07c84:	24f7140b          	mulaw	s0,a4,a5
    3bc07c88:	27d4f7b7          	lui	a5,0x27d4f
    3bc07c8c:	b2f7879b          	addiw	a5,a5,-1233
    3bc07c90:	0491                	addi	s1,s1,4
    3bc07c92:	14f4140b          	srriw	s0,s0,15
    3bc07c96:	02f4043b          	mulw	s0,s0,a5
    3bc07c9a:	4785                	li	a5,1
    3bc07c9c:	0cf91163          	bne	s2,a5,3bc07d5e <XXH32_finalize.constprop.0+0x332>
    3bc07ca0:	8526                	mv	a0,s1
    3bc07ca2:	d75ff0ef          	jal	ra,3bc07a16 <XXH_read32>
    3bc07ca6:	0005079b          	sext.w	a5,a0
    3bc07caa:	c2b2b737          	lui	a4,0xc2b2b
    3bc07cae:	e3d7071b          	addiw	a4,a4,-451
    3bc07cb2:	0491                	addi	s1,s1,4
    3bc07cb4:	24f7140b          	mulaw	s0,a4,a5
    3bc07cb8:	27d4f7b7          	lui	a5,0x27d4f
    3bc07cbc:	b2f7879b          	addiw	a5,a5,-1233
    3bc07cc0:	14f4140b          	srriw	s0,s0,15
    3bc07cc4:	02f4043b          	mulw	s0,s0,a5
    3bc07cc8:	4785                	li	a5,1
    3bc07cca:	08f91c63          	bne	s2,a5,3bc07d62 <XXH32_finalize.constprop.0+0x336>
    3bc07cce:	8526                	mv	a0,s1
    3bc07cd0:	d47ff0ef          	jal	ra,3bc07a16 <XXH_read32>
    3bc07cd4:	0005079b          	sext.w	a5,a0
    3bc07cd8:	c2b2b737          	lui	a4,0xc2b2b
    3bc07cdc:	e3d7071b          	addiw	a4,a4,-451
    3bc07ce0:	0491                	addi	s1,s1,4
    3bc07ce2:	24f7140b          	mulaw	s0,a4,a5
    3bc07ce6:	27d4f7b7          	lui	a5,0x27d4f
    3bc07cea:	b2f7879b          	addiw	a5,a5,-1233
    3bc07cee:	14f4140b          	srriw	s0,s0,15
    3bc07cf2:	02f4043b          	mulw	s0,s0,a5
    3bc07cf6:	9814c70b          	lbuia	a4,(s1),1,0
    3bc07cfa:	165667b7          	lui	a5,0x16566
    3bc07cfe:	7b17879b          	addiw	a5,a5,1969
    3bc07d02:	24f7140b          	mulaw	s0,a4,a5
    3bc07d06:	9e3787b7          	lui	a5,0x9e378
    3bc07d0a:	9b17879b          	addiw	a5,a5,-1615
    3bc07d0e:	1554140b          	srriw	s0,s0,21
    3bc07d12:	02f4043b          	mulw	s0,s0,a5
    3bc07d16:	9814c70b          	lbuia	a4,(s1),1,0
    3bc07d1a:	165667b7          	lui	a5,0x16566
    3bc07d1e:	7b17879b          	addiw	a5,a5,1969
    3bc07d22:	24f7140b          	mulaw	s0,a4,a5
    3bc07d26:	9e3787b7          	lui	a5,0x9e378
    3bc07d2a:	9b17879b          	addiw	a5,a5,-1615
    3bc07d2e:	1554140b          	srriw	s0,s0,21
    3bc07d32:	02f4043b          	mulw	s0,s0,a5
    3bc07d36:	0004c703          	lbu	a4,0(s1)
    3bc07d3a:	165667b7          	lui	a5,0x16566
    3bc07d3e:	7b17879b          	addiw	a5,a5,1969
    3bc07d42:	24f7140b          	mulaw	s0,a4,a5
    3bc07d46:	9e3787b7          	lui	a5,0x9e378
    3bc07d4a:	9b17879b          	addiw	a5,a5,-1615
    3bc07d4e:	1554140b          	srriw	s0,s0,21
    3bc07d52:	02f4043b          	mulw	s0,s0,a5
    3bc07d56:	8522                	mv	a0,s0
    3bc07d58:	b359                	j	3bc07ade <XXH32_finalize.constprop.0+0xb2>
    3bc07d5a:	419c                	lw	a5,0(a1)
    3bc07d5c:	b705                	j	3bc07c7c <XXH32_finalize.constprop.0+0x250>
    3bc07d5e:	409c                	lw	a5,0(s1)
    3bc07d60:	b7a9                	j	3bc07caa <XXH32_finalize.constprop.0+0x27e>
    3bc07d62:	409c                	lw	a5,0(s1)
    3bc07d64:	bf95                	j	3bc07cd8 <XXH32_finalize.constprop.0+0x2ac>

000000003bc07d66 <XXH32>:
    3bc07d66:	711d                	addi	sp,sp,-96
    3bc07d68:	e8a2                	sd	s0,80(sp)
    3bc07d6a:	e0ca                	sd	s2,64(sp)
    3bc07d6c:	fc4e                	sd	s3,56(sp)
    3bc07d6e:	ec86                	sd	ra,88(sp)
    3bc07d70:	e4a6                	sd	s1,72(sp)
    3bc07d72:	f852                	sd	s4,48(sp)
    3bc07d74:	f456                	sd	s5,40(sp)
    3bc07d76:	f05a                	sd	s6,32(sp)
    3bc07d78:	ec5e                	sd	s7,24(sp)
    3bc07d7a:	e862                	sd	s8,16(sp)
    3bc07d7c:	e466                	sd	s9,8(sp)
    3bc07d7e:	00357793          	andi	a5,a0,3
    3bc07d82:	892a                	mv	s2,a0
    3bc07d84:	89ae                	mv	s3,a1
    3bc07d86:	8432                	mv	s0,a2
    3bc07d88:	eff1                	bnez	a5,3bc07e64 <XXH32+0xfe>
    3bc07d8a:	47bd                	li	a5,15
    3bc07d8c:	0cb7f663          	bgeu	a5,a1,3bc07e58 <XXH32+0xf2>
    3bc07d90:	242347b7          	lui	a5,0x24234
    3bc07d94:	ff158813          	addi	a6,a1,-15 # fffffffffffefff1 <__BL2_END__+0xffffffffc43dcbe1>
    3bc07d98:	4287879b          	addiw	a5,a5,1064
    3bc07d9c:	982a                	add	a6,a6,a0
    3bc07d9e:	9fb1                	addw	a5,a5,a2
    3bc07da0:	61c88537          	lui	a0,0x61c88
    3bc07da4:	85ebd637          	lui	a2,0x85ebd
    3bc07da8:	a776061b          	addiw	a2,a2,-1417
    3bc07dac:	64f5051b          	addiw	a0,a0,1615
    3bc07db0:	9e3785b7          	lui	a1,0x9e378
    3bc07db4:	0086073b          	addw	a4,a2,s0
    3bc07db8:	9d21                	addw	a0,a0,s0
    3bc07dba:	86ca                	mv	a3,s2
    3bc07dbc:	9b15859b          	addiw	a1,a1,-1615
    3bc07dc0:	0006a883          	lw	a7,0(a3) # ffffffffffff0000 <__BL2_END__+0xffffffffc43dcbf0>
    3bc07dc4:	24c8978b          	mulaw	a5,a7,a2
    3bc07dc8:	0046a883          	lw	a7,4(a3)
    3bc07dcc:	24c8970b          	mulaw	a4,a7,a2
    3bc07dd0:	0086a883          	lw	a7,8(a3)
    3bc07dd4:	1537978b          	srriw	a5,a5,19
    3bc07dd8:	24c8940b          	mulaw	s0,a7,a2
    3bc07ddc:	00c6a883          	lw	a7,12(a3)
    3bc07de0:	1537170b          	srriw	a4,a4,19
    3bc07de4:	06c1                	addi	a3,a3,16
    3bc07de6:	24c8950b          	mulaw	a0,a7,a2
    3bc07dea:	1534140b          	srriw	s0,s0,19
    3bc07dee:	1535150b          	srriw	a0,a0,19
    3bc07df2:	02b787bb          	mulw	a5,a5,a1
    3bc07df6:	02b7073b          	mulw	a4,a4,a1
    3bc07dfa:	02b4043b          	mulw	s0,s0,a1
    3bc07dfe:	02b5053b          	mulw	a0,a0,a1
    3bc07e02:	fb06efe3          	bltu	a3,a6,3bc07dc0 <XXH32+0x5a>
    3bc07e06:	00190593          	addi	a1,s2,1
    3bc07e0a:	46c1                	li	a3,16
    3bc07e0c:	00b86663          	bltu	a6,a1,3bc07e18 <XXH32+0xb2>
    3bc07e10:	ff098693          	addi	a3,s3,-16
    3bc07e14:	9ac1                	andi	a3,a3,-16
    3bc07e16:	06c1                	addi	a3,a3,16
    3bc07e18:	15f7978b          	srriw	a5,a5,31
    3bc07e1c:	1597170b          	srriw	a4,a4,25
    3bc07e20:	9fb9                	addw	a5,a5,a4
    3bc07e22:	1544140b          	srriw	s0,s0,20
    3bc07e26:	9fa1                	addw	a5,a5,s0
    3bc07e28:	14e5150b          	srriw	a0,a0,14
    3bc07e2c:	9936                	add	s2,s2,a3
    3bc07e2e:	9d3d                	addw	a0,a0,a5
    3bc07e30:	4681                	li	a3,0
    3bc07e32:	6446                	ld	s0,80(sp)
    3bc07e34:	60e6                	ld	ra,88(sp)
    3bc07e36:	64a6                	ld	s1,72(sp)
    3bc07e38:	7a42                	ld	s4,48(sp)
    3bc07e3a:	7aa2                	ld	s5,40(sp)
    3bc07e3c:	7b02                	ld	s6,32(sp)
    3bc07e3e:	6be2                	ld	s7,24(sp)
    3bc07e40:	6c42                	ld	s8,16(sp)
    3bc07e42:	6ca2                	ld	s9,8(sp)
    3bc07e44:	00f9f613          	andi	a2,s3,15
    3bc07e48:	85ca                	mv	a1,s2
    3bc07e4a:	00a9853b          	addw	a0,s3,a0
    3bc07e4e:	6906                	ld	s2,64(sp)
    3bc07e50:	79e2                	ld	s3,56(sp)
    3bc07e52:	6125                	addi	sp,sp,96
    3bc07e54:	bd9ff06f          	j	3bc07a2c <XXH32_finalize.constprop.0>
    3bc07e58:	16566537          	lui	a0,0x16566
    3bc07e5c:	7b15051b          	addiw	a0,a0,1969
    3bc07e60:	9d31                	addw	a0,a0,a2
    3bc07e62:	b7f9                	j	3bc07e30 <XXH32+0xca>
    3bc07e64:	47bd                	li	a5,15
    3bc07e66:	0ab7fe63          	bgeu	a5,a1,3bc07f22 <XXH32+0x1bc>
    3bc07e6a:	242344b7          	lui	s1,0x24234
    3bc07e6e:	85ebdab7          	lui	s5,0x85ebd
    3bc07e72:	61c887b7          	lui	a5,0x61c88
    3bc07e76:	ff158c93          	addi	s9,a1,-15 # ffffffff9e377ff1 <__BL2_END__+0xffffffff62764be1>
    3bc07e7a:	4284849b          	addiw	s1,s1,1064
    3bc07e7e:	a77a8a9b          	addiw	s5,s5,-1417
    3bc07e82:	64f7879b          	addiw	a5,a5,1615
    3bc07e86:	9e378b37          	lui	s6,0x9e378
    3bc07e8a:	9caa                	add	s9,s9,a0
    3bc07e8c:	9cb1                	addw	s1,s1,a2
    3bc07e8e:	00ca8c3b          	addw	s8,s5,a2
    3bc07e92:	00c78bbb          	addw	s7,a5,a2
    3bc07e96:	8a2a                	mv	s4,a0
    3bc07e98:	9b1b0b1b          	addiw	s6,s6,-1615
    3bc07e9c:	8552                	mv	a0,s4
    3bc07e9e:	b79ff0ef          	jal	ra,3bc07a16 <XXH_read32>
    3bc07ea2:	24aa948b          	mulaw	s1,s5,a0
    3bc07ea6:	004a0513          	addi	a0,s4,4
    3bc07eaa:	b6dff0ef          	jal	ra,3bc07a16 <XXH_read32>
    3bc07eae:	8762                	mv	a4,s8
    3bc07eb0:	24aa970b          	mulaw	a4,s5,a0
    3bc07eb4:	008a0513          	addi	a0,s4,8
    3bc07eb8:	1534948b          	srriw	s1,s1,19
    3bc07ebc:	1537170b          	srriw	a4,a4,19
    3bc07ec0:	03670c3b          	mulw	s8,a4,s6
    3bc07ec4:	b53ff0ef          	jal	ra,3bc07a16 <XXH_read32>
    3bc07ec8:	24aa940b          	mulaw	s0,s5,a0
    3bc07ecc:	00ca0513          	addi	a0,s4,12
    3bc07ed0:	0a41                	addi	s4,s4,16
    3bc07ed2:	1534160b          	srriw	a2,s0,19
    3bc07ed6:	0366043b          	mulw	s0,a2,s6
    3bc07eda:	b3dff0ef          	jal	ra,3bc07a16 <XXH_read32>
    3bc07ede:	87de                	mv	a5,s7
    3bc07ee0:	24aa978b          	mulaw	a5,s5,a0
    3bc07ee4:	1537978b          	srriw	a5,a5,19
    3bc07ee8:	036484bb          	mulw	s1,s1,s6
    3bc07eec:	03678bbb          	mulw	s7,a5,s6
    3bc07ef0:	fb9a66e3          	bltu	s4,s9,3bc07e9c <XXH32+0x136>
    3bc07ef4:	00190713          	addi	a4,s2,1
    3bc07ef8:	47c1                	li	a5,16
    3bc07efa:	00ece663          	bltu	s9,a4,3bc07f06 <XXH32+0x1a0>
    3bc07efe:	ff098793          	addi	a5,s3,-16
    3bc07f02:	9bc1                	andi	a5,a5,-16
    3bc07f04:	07c1                	addi	a5,a5,16
    3bc07f06:	159c150b          	srriw	a0,s8,25
    3bc07f0a:	15f4948b          	srriw	s1,s1,31
    3bc07f0e:	9ca9                	addw	s1,s1,a0
    3bc07f10:	1544150b          	srriw	a0,s0,20
    3bc07f14:	993e                	add	s2,s2,a5
    3bc07f16:	9d25                	addw	a0,a0,s1
    3bc07f18:	14eb940b          	srriw	s0,s7,14
    3bc07f1c:	9d21                	addw	a0,a0,s0
    3bc07f1e:	4685                	li	a3,1
    3bc07f20:	bf09                	j	3bc07e32 <XXH32+0xcc>
    3bc07f22:	16566537          	lui	a0,0x16566
    3bc07f26:	7b15051b          	addiw	a0,a0,1969
    3bc07f2a:	bfcd                	j	3bc07f1c <XXH32+0x1b6>

000000003bc07f2c <XXH32_reset>:
    3bc07f2c:	715d                	addi	sp,sp,-80
    3bc07f2e:	e0a2                	sd	s0,64(sp)
    3bc07f30:	fc26                	sd	s1,56(sp)
    3bc07f32:	842e                	mv	s0,a1
    3bc07f34:	84aa                	mv	s1,a0
    3bc07f36:	03000613          	li	a2,48
    3bc07f3a:	4581                	li	a1,0
    3bc07f3c:	850a                	mv	a0,sp
    3bc07f3e:	e486                	sd	ra,72(sp)
    3bc07f40:	ad3f80ef          	jal	ra,3bc00a12 <memset>
    3bc07f44:	242347b7          	lui	a5,0x24234
    3bc07f48:	4287879b          	addiw	a5,a5,1064
    3bc07f4c:	9fa1                	addw	a5,a5,s0
    3bc07f4e:	c43e                	sw	a5,8(sp)
    3bc07f50:	85ebd7b7          	lui	a5,0x85ebd
    3bc07f54:	a777879b          	addiw	a5,a5,-1417
    3bc07f58:	9fa1                	addw	a5,a5,s0
    3bc07f5a:	c63e                	sw	a5,12(sp)
    3bc07f5c:	61c887b7          	lui	a5,0x61c88
    3bc07f60:	64f7879b          	addiw	a5,a5,1615
    3bc07f64:	c822                	sw	s0,16(sp)
    3bc07f66:	858a                	mv	a1,sp
    3bc07f68:	9c3d                	addw	s0,s0,a5
    3bc07f6a:	8526                	mv	a0,s1
    3bc07f6c:	02c00613          	li	a2,44
    3bc07f70:	ca22                	sw	s0,20(sp)
    3bc07f72:	afbf80ef          	jal	ra,3bc00a6c <memcpy>
    3bc07f76:	60a6                	ld	ra,72(sp)
    3bc07f78:	6406                	ld	s0,64(sp)
    3bc07f7a:	74e2                	ld	s1,56(sp)
    3bc07f7c:	4501                	li	a0,0
    3bc07f7e:	6161                	addi	sp,sp,80
    3bc07f80:	8082                	ret

000000003bc07f82 <XXH32_update>:
    3bc07f82:	711d                	addi	sp,sp,-96
    3bc07f84:	e0ca                	sd	s2,64(sp)
    3bc07f86:	ec86                	sd	ra,88(sp)
    3bc07f88:	e8a2                	sd	s0,80(sp)
    3bc07f8a:	e4a6                	sd	s1,72(sp)
    3bc07f8c:	fc4e                	sd	s3,56(sp)
    3bc07f8e:	f852                	sd	s4,48(sp)
    3bc07f90:	f456                	sd	s5,40(sp)
    3bc07f92:	f05a                	sd	s6,32(sp)
    3bc07f94:	ec5e                	sd	s7,24(sp)
    3bc07f96:	e862                	sd	s8,16(sp)
    3bc07f98:	e466                	sd	s9,8(sp)
    3bc07f9a:	e06a                	sd	s10,0(sp)
    3bc07f9c:	4905                	li	s2,1
    3bc07f9e:	c5b9                	beqz	a1,3bc07fec <XXH32_update+0x6a>
    3bc07fa0:	4114                	lw	a3,0(a0)
    3bc07fa2:	842a                	mv	s0,a0
    3bc07fa4:	01063713          	sltiu	a4,a2,16
    3bc07fa8:	00c6853b          	addw	a0,a3,a2
    3bc07fac:	483d                	li	a6,15
    3bc07fae:	00a836b3          	sltu	a3,a6,a0
    3bc07fb2:	00174713          	xori	a4,a4,1
    3bc07fb6:	8f55                	or	a4,a4,a3
    3bc07fb8:	4054                	lw	a3,4(s0)
    3bc07fba:	c008                	sw	a0,0(s0)
    3bc07fbc:	84ae                	mv	s1,a1
    3bc07fbe:	8f55                	or	a4,a4,a3
    3bc07fc0:	c058                	sw	a4,4(s0)
    3bc07fc2:	5418                	lw	a4,40(s0)
    3bc07fc4:	00c58d33          	add	s10,a1,a2
    3bc07fc8:	0006091b          	sext.w	s2,a2
    3bc07fcc:	7c07350b          	extu	a0,a4,31,0
    3bc07fd0:	00a607b3          	add	a5,a2,a0
    3bc07fd4:	02f86b63          	bltu	a6,a5,3bc0800a <XXH32_update+0x88>
    3bc07fd8:	01840793          	addi	a5,s0,24 # 10018 <__BSS_SIZE__+0xa408>
    3bc07fdc:	953e                	add	a0,a0,a5
    3bc07fde:	a8ff80ef          	jal	ra,3bc00a6c <memcpy>
    3bc07fe2:	541c                	lw	a5,40(s0)
    3bc07fe4:	012787bb          	addw	a5,a5,s2
    3bc07fe8:	d41c                	sw	a5,40(s0)
    3bc07fea:	4901                	li	s2,0
    3bc07fec:	60e6                	ld	ra,88(sp)
    3bc07fee:	6446                	ld	s0,80(sp)
    3bc07ff0:	64a6                	ld	s1,72(sp)
    3bc07ff2:	79e2                	ld	s3,56(sp)
    3bc07ff4:	7a42                	ld	s4,48(sp)
    3bc07ff6:	7aa2                	ld	s5,40(sp)
    3bc07ff8:	7b02                	ld	s6,32(sp)
    3bc07ffa:	6be2                	ld	s7,24(sp)
    3bc07ffc:	6c42                	ld	s8,16(sp)
    3bc07ffe:	6ca2                	ld	s9,8(sp)
    3bc08000:	6d02                	ld	s10,0(sp)
    3bc08002:	854a                	mv	a0,s2
    3bc08004:	6906                	ld	s2,64(sp)
    3bc08006:	6125                	addi	sp,sp,96
    3bc08008:	8082                	ret
    3bc0800a:	c355                	beqz	a4,3bc080ae <XXH32_update+0x12c>
    3bc0800c:	4b41                	li	s6,16
    3bc0800e:	40eb063b          	subw	a2,s6,a4
    3bc08012:	01840993          	addi	s3,s0,24
    3bc08016:	7c06360b          	extu	a2,a2,31,0
    3bc0801a:	954e                	add	a0,a0,s3
    3bc0801c:	a51f80ef          	jal	ra,3bc00a6c <memcpy>
    3bc08020:	00842903          	lw	s2,8(s0)
    3bc08024:	854e                	mv	a0,s3
    3bc08026:	85ebdab7          	lui	s5,0x85ebd
    3bc0802a:	9edff0ef          	jal	ra,3bc07a16 <XXH_read32>
    3bc0802e:	a77a8a9b          	addiw	s5,s5,-1417
    3bc08032:	24aa990b          	mulaw	s2,s5,a0
    3bc08036:	9e378a37          	lui	s4,0x9e378
    3bc0803a:	9b1a0a1b          	addiw	s4,s4,-1615
    3bc0803e:	00c42983          	lw	s3,12(s0)
    3bc08042:	01c40513          	addi	a0,s0,28
    3bc08046:	1539190b          	srriw	s2,s2,19
    3bc0804a:	0349093b          	mulw	s2,s2,s4
    3bc0804e:	01242423          	sw	s2,8(s0)
    3bc08052:	9c5ff0ef          	jal	ra,3bc07a16 <XXH_read32>
    3bc08056:	24aa998b          	mulaw	s3,s5,a0
    3bc0805a:	02040513          	addi	a0,s0,32
    3bc0805e:	1539998b          	srriw	s3,s3,19
    3bc08062:	034989bb          	mulw	s3,s3,s4
    3bc08066:	01342623          	sw	s3,12(s0)
    3bc0806a:	01042983          	lw	s3,16(s0)
    3bc0806e:	9a9ff0ef          	jal	ra,3bc07a16 <XXH_read32>
    3bc08072:	01442903          	lw	s2,20(s0)
    3bc08076:	24aa998b          	mulaw	s3,s5,a0
    3bc0807a:	02440513          	addi	a0,s0,36
    3bc0807e:	1539998b          	srriw	s3,s3,19
    3bc08082:	034989bb          	mulw	s3,s3,s4
    3bc08086:	01342823          	sw	s3,16(s0)
    3bc0808a:	98dff0ef          	jal	ra,3bc07a16 <XXH_read32>
    3bc0808e:	24aa990b          	mulaw	s2,s5,a0
    3bc08092:	541c                	lw	a5,40(s0)
    3bc08094:	02042423          	sw	zero,40(s0)
    3bc08098:	40fb0b3b          	subw	s6,s6,a5
    3bc0809c:	7c0b3b0b          	extu	s6,s6,31,0
    3bc080a0:	94da                	add	s1,s1,s6
    3bc080a2:	1539190b          	srriw	s2,s2,19
    3bc080a6:	0349093b          	mulw	s2,s2,s4
    3bc080aa:	01242a23          	sw	s2,20(s0)
    3bc080ae:	ff0d0913          	addi	s2,s10,-16
    3bc080b2:	08996363          	bltu	s2,s1,3bc08138 <XXH32_update+0x1b6>
    3bc080b6:	e3844c8b          	lwd	s9,s8,(s0),1,3
    3bc080ba:	e5444a8b          	lwd	s5,s4,(s0),2,3
    3bc080be:	85ebdbb7          	lui	s7,0x85ebd
    3bc080c2:	9e378b37          	lui	s6,0x9e378
    3bc080c6:	89a6                	mv	s3,s1
    3bc080c8:	a77b8b9b          	addiw	s7,s7,-1417
    3bc080cc:	9b1b0b1b          	addiw	s6,s6,-1615
    3bc080d0:	854e                	mv	a0,s3
    3bc080d2:	945ff0ef          	jal	ra,3bc07a16 <XXH_read32>
    3bc080d6:	24ab9c8b          	mulaw	s9,s7,a0
    3bc080da:	00498513          	addi	a0,s3,4
    3bc080de:	939ff0ef          	jal	ra,3bc07a16 <XXH_read32>
    3bc080e2:	24ab9c0b          	mulaw	s8,s7,a0
    3bc080e6:	00898513          	addi	a0,s3,8
    3bc080ea:	92dff0ef          	jal	ra,3bc07a16 <XXH_read32>
    3bc080ee:	153c9c8b          	srriw	s9,s9,19
    3bc080f2:	24ab9a8b          	mulaw	s5,s7,a0
    3bc080f6:	00c98513          	addi	a0,s3,12
    3bc080fa:	91dff0ef          	jal	ra,3bc07a16 <XXH_read32>
    3bc080fe:	153c1c0b          	srriw	s8,s8,19
    3bc08102:	09c1                	addi	s3,s3,16
    3bc08104:	24ab9a0b          	mulaw	s4,s7,a0
    3bc08108:	153a9a8b          	srriw	s5,s5,19
    3bc0810c:	153a1a0b          	srriw	s4,s4,19
    3bc08110:	036c8cbb          	mulw	s9,s9,s6
    3bc08114:	036c0c3b          	mulw	s8,s8,s6
    3bc08118:	036a8abb          	mulw	s5,s5,s6
    3bc0811c:	036a0a3b          	mulw	s4,s4,s6
    3bc08120:	fb3978e3          	bgeu	s2,s3,3bc080d0 <XXH32_update+0x14e>
    3bc08124:	40990933          	sub	s2,s2,s1
    3bc08128:	ff097913          	andi	s2,s2,-16
    3bc0812c:	0941                	addi	s2,s2,16
    3bc0812e:	94ca                	add	s1,s1,s2
    3bc08130:	e3845c8b          	swd	s9,s8,(s0),1,3
    3bc08134:	e5445a8b          	swd	s5,s4,(s0),2,3
    3bc08138:	4901                	li	s2,0
    3bc0813a:	eba4f9e3          	bgeu	s1,s10,3bc07fec <XXH32_update+0x6a>
    3bc0813e:	409d0d33          	sub	s10,s10,s1
    3bc08142:	866a                	mv	a2,s10
    3bc08144:	85a6                	mv	a1,s1
    3bc08146:	01840513          	addi	a0,s0,24
    3bc0814a:	923f80ef          	jal	ra,3bc00a6c <memcpy>
    3bc0814e:	03a42423          	sw	s10,40(s0)
    3bc08152:	bd69                	j	3bc07fec <XXH32_update+0x6a>

000000003bc08154 <XXH32_digest>:
    3bc08154:	415c                	lw	a5,4(a0)
    3bc08156:	4918                	lw	a4,16(a0)
    3bc08158:	cb8d                	beqz	a5,3bc0818a <XXH32_digest+0x36>
    3bc0815a:	451c                	lw	a5,8(a0)
    3bc0815c:	4554                	lw	a3,12(a0)
    3bc0815e:	1547170b          	srriw	a4,a4,20
    3bc08162:	15f7978b          	srriw	a5,a5,31
    3bc08166:	1596968b          	srriw	a3,a3,25
    3bc0816a:	9fb5                	addw	a5,a5,a3
    3bc0816c:	9fb9                	addw	a5,a5,a4
    3bc0816e:	4958                	lw	a4,20(a0)
    3bc08170:	14e7170b          	srriw	a4,a4,14
    3bc08174:	85aa                	mv	a1,a0
    3bc08176:	9fb9                	addw	a5,a5,a4
    3bc08178:	5ac5c70b          	lwia	a4,(a1),12,1
    3bc0817c:	02856603          	lwu	a2,40(a0) # 16566028 <p_rom_api_cryptodma_aes_decrypt+0x12165f28>
    3bc08180:	4681                	li	a3,0
    3bc08182:	00f7053b          	addw	a0,a4,a5
    3bc08186:	8a7ff06f          	j	3bc07a2c <XXH32_finalize.constprop.0>
    3bc0818a:	165667b7          	lui	a5,0x16566
    3bc0818e:	7b17879b          	addiw	a5,a5,1969
    3bc08192:	b7cd                	j	3bc08174 <XXH32_digest+0x20>

000000003bc08194 <ddr_init>:
    3bc08194:	1141                	addi	sp,sp,-16
    3bc08196:	e022                	sd	s0,0(sp)
    3bc08198:	842a                	mv	s0,a0
    3bc0819a:	00003517          	auipc	a0,0x3
    3bc0819e:	05e50513          	addi	a0,a0,94 # 3bc0b1f8 <inc32table+0x60>
    3bc081a2:	e406                	sd	ra,8(sp)
    3bc081a4:	9b4f80ef          	jal	ra,3bc00358 <tf_printf>
    3bc081a8:	400c                	lw	a1,0(s0)
    3bc081aa:	00003517          	auipc	a0,0x3
    3bc081ae:	05e50513          	addi	a0,a0,94 # 3bc0b208 <inc32table+0x70>
    3bc081b2:	9a6f80ef          	jal	ra,3bc00358 <tf_printf>
    3bc081b6:	012000ef          	jal	ra,3bc081c8 <read_ddr_pkg_info>
    3bc081ba:	296000ef          	jal	ra,3bc08450 <ddr_sys_bring_up>
    3bc081be:	60a2                	ld	ra,8(sp)
    3bc081c0:	6402                	ld	s0,0(sp)
    3bc081c2:	4501                	li	a0,0
    3bc081c4:	0141                	addi	sp,sp,16
    3bc081c6:	8082                	ret

000000003bc081c8 <read_ddr_pkg_info>:
    3bc081c8:	030007b7          	lui	a5,0x3000
    3bc081cc:	43cc                	lw	a1,4(a5)
    3bc081ce:	7139                	addi	sp,sp,-64
    3bc081d0:	030507b7          	lui	a5,0x3050
    3bc081d4:	79c5b58b          	extu	a1,a1,30,28
    3bc081d8:	00003517          	auipc	a0,0x3
    3bc081dc:	04850513          	addi	a0,a0,72 # 3bc0b220 <inc32table+0x88>
    3bc081e0:	f822                	sd	s0,48(sp)
    3bc081e2:	f426                	sd	s1,40(sp)
    3bc081e4:	f04a                	sd	s2,32(sp)
    3bc081e6:	ec4e                	sd	s3,24(sp)
    3bc081e8:	fc06                	sd	ra,56(sp)
    3bc081ea:	1087a983          	lw	s3,264(a5) # 3050108 <__BSS_SIZE__+0x304a4f8>
    3bc081ee:	e42e                	sd	a1,8(sp)
    3bc081f0:	968f80ef          	jal	ra,3bc00358 <tf_printf>
    3bc081f4:	65a2                	ld	a1,8(sp)
    3bc081f6:	00003717          	auipc	a4,0x3
    3bc081fa:	10e70713          	addi	a4,a4,270 # 3bc0b304 <inc32table+0x16c>
    3bc081fe:	0000b917          	auipc	s2,0xb
    3bc08202:	21090913          	addi	s2,s2,528 # 3bc1340e <ddr_vendor>
    3bc08206:	44b7478b          	lrw	a5,a4,a1,2
    3bc0820a:	0000b497          	auipc	s1,0xb
    3bc0820e:	20248493          	addi	s1,s1,514 # 3bc1340c <ddr_capacity>
    3bc08212:	0000b417          	auipc	s0,0xb
    3bc08216:	1fd40413          	addi	s0,s0,509 # 3bc1340f <pkg>
    3bc0821a:	97ba                	add	a5,a5,a4
    3bc0821c:	8782                	jr	a5
    3bc0821e:	478d                	li	a5,3
    3bc08220:	4709                	li	a4,2
    3bc08222:	00f90023          	sb	a5,0(s2)
    3bc08226:	00e48023          	sb	a4,0(s1)
    3bc0822a:	00f40023          	sb	a5,0(s0)
    3bc0822e:	a825                	j	3bc08266 <read_ddr_pkg_info+0x9e>
    3bc08230:	4791                	li	a5,4
    3bc08232:	00f90023          	sb	a5,0(s2)
    3bc08236:	4785                	li	a5,1
    3bc08238:	00f48023          	sb	a5,0(s1)
    3bc0823c:	478d                	li	a5,3
    3bc0823e:	b7f5                	j	3bc0822a <read_ddr_pkg_info+0x62>
    3bc08240:	00003517          	auipc	a0,0x3
    3bc08244:	ff050513          	addi	a0,a0,-16 # 3bc0b230 <inc32table+0x98>
    3bc08248:	910f80ef          	jal	ra,3bc00358 <tf_printf>
    3bc0824c:	2981                	sext.w	s3,s3
    3bc0824e:	6559b78b          	extu	a5,s3,25,21
    3bc08252:	00f90023          	sb	a5,0(s2)
    3bc08256:	71a9b78b          	extu	a5,s3,28,26
    3bc0825a:	01d9d99b          	srliw	s3,s3,0x1d
    3bc0825e:	00f48023          	sb	a5,0(s1)
    3bc08262:	01340023          	sb	s3,0(s0)
    3bc08266:	00044583          	lbu	a1,0(s0)
    3bc0826a:	00094683          	lbu	a3,0(s2)
    3bc0826e:	0004c603          	lbu	a2,0(s1)
    3bc08272:	00003517          	auipc	a0,0x3
    3bc08276:	fe650513          	addi	a0,a0,-26 # 3bc0b258 <inc32table+0xc0>
    3bc0827a:	8def80ef          	jal	ra,3bc00358 <tf_printf>
    3bc0827e:	00094583          	lbu	a1,0(s2)
    3bc08282:	4725                	li	a4,9
    3bc08284:	fff5879b          	addiw	a5,a1,-1
    3bc08288:	0ff7f793          	andi	a5,a5,255
    3bc0828c:	08f76963          	bltu	a4,a5,3bc0831e <read_ddr_pkg_info+0x156>
    3bc08290:	00003717          	auipc	a4,0x3
    3bc08294:	09470713          	addi	a4,a4,148 # 3bc0b324 <inc32table+0x18c>
    3bc08298:	44f7478b          	lrw	a5,a4,a5,2
    3bc0829c:	0000b917          	auipc	s2,0xb
    3bc082a0:	17190913          	addi	s2,s2,369 # 3bc1340d <ddr_type>
    3bc082a4:	97ba                	add	a5,a5,a4
    3bc082a6:	8782                	jr	a5
    3bc082a8:	478d                	li	a5,3
    3bc082aa:	00f90023          	sb	a5,0(s2)
    3bc082ae:	4789                	li	a5,2
    3bc082b0:	00f48023          	sb	a5,0(s1)
    3bc082b4:	4785                	li	a5,1
    3bc082b6:	bf95                	j	3bc0822a <read_ddr_pkg_info+0x62>
    3bc082b8:	4791                	li	a5,4
    3bc082ba:	00f90023          	sb	a5,0(s2)
    3bc082be:	4785                	li	a5,1
    3bc082c0:	00f48023          	sb	a5,0(s1)
    3bc082c4:	b79d                	j	3bc0822a <read_ddr_pkg_info+0x62>
    3bc082c6:	00003517          	auipc	a0,0x3
    3bc082ca:	f7250513          	addi	a0,a0,-142 # 3bc0b238 <inc32table+0xa0>
    3bc082ce:	88af80ef          	jal	ra,3bc00358 <tf_printf>
    3bc082d2:	bf51                	j	3bc08266 <read_ddr_pkg_info+0x9e>
    3bc082d4:	00003517          	auipc	a0,0x3
    3bc082d8:	f9450513          	addi	a0,a0,-108 # 3bc0b268 <inc32table+0xd0>
    3bc082dc:	87cf80ef          	jal	ra,3bc00358 <tf_printf>
    3bc082e0:	4785                	li	a5,1
    3bc082e2:	00f90023          	sb	a5,0(s2)
    3bc082e6:	0004c583          	lbu	a1,0(s1)
    3bc082ea:	478d                	li	a5,3
    3bc082ec:	0cf58963          	beq	a1,a5,3bc083be <read_ddr_pkg_info+0x1f6>
    3bc082f0:	04b7e263          	bltu	a5,a1,3bc08334 <read_ddr_pkg_info+0x16c>
    3bc082f4:	4485                	li	s1,1
    3bc082f6:	04958a63          	beq	a1,s1,3bc0834a <read_ddr_pkg_info+0x182>
    3bc082fa:	4789                	li	a5,2
    3bc082fc:	0af58463          	beq	a1,a5,3bc083a4 <read_ddr_pkg_info+0x1dc>
    3bc08300:	00003517          	auipc	a0,0x3
    3bc08304:	fb050513          	addi	a0,a0,-80 # 3bc0b2b0 <inc32table+0x118>
    3bc08308:	850f80ef          	jal	ra,3bc00358 <tf_printf>
    3bc0830c:	a82d                	j	3bc08346 <read_ddr_pkg_info+0x17e>
    3bc0830e:	00003517          	auipc	a0,0x3
    3bc08312:	f6250513          	addi	a0,a0,-158 # 3bc0b270 <inc32table+0xd8>
    3bc08316:	842f80ef          	jal	ra,3bc00358 <tf_printf>
    3bc0831a:	4789                	li	a5,2
    3bc0831c:	b7d9                	j	3bc082e2 <read_ddr_pkg_info+0x11a>
    3bc0831e:	00003517          	auipc	a0,0x3
    3bc08322:	f5a50513          	addi	a0,a0,-166 # 3bc0b278 <inc32table+0xe0>
    3bc08326:	832f80ef          	jal	ra,3bc00358 <tf_printf>
    3bc0832a:	0000b797          	auipc	a5,0xb
    3bc0832e:	0e0781a3          	sb	zero,227(a5) # 3bc1340d <ddr_type>
    3bc08332:	bf55                	j	3bc082e6 <read_ddr_pkg_info+0x11e>
    3bc08334:	4791                	li	a5,4
    3bc08336:	00003517          	auipc	a0,0x3
    3bc0833a:	f7250513          	addi	a0,a0,-142 # 3bc0b2a8 <inc32table+0x110>
    3bc0833e:	fcf591e3          	bne	a1,a5,3bc08300 <read_ddr_pkg_info+0x138>
    3bc08342:	816f80ef          	jal	ra,3bc00358 <tf_printf>
    3bc08346:	4781                	li	a5,0
    3bc08348:	a839                	j	3bc08366 <read_ddr_pkg_info+0x19e>
    3bc0834a:	00003517          	auipc	a0,0x3
    3bc0834e:	f4650513          	addi	a0,a0,-186 # 3bc0b290 <inc32table+0xf8>
    3bc08352:	e42e                	sd	a1,8(sp)
    3bc08354:	804f80ef          	jal	ra,3bc00358 <tf_printf>
    3bc08358:	00044783          	lbu	a5,0(s0)
    3bc0835c:	65a2                	ld	a1,8(sp)
    3bc0835e:	06b78563          	beq	a5,a1,3bc083c8 <read_ddr_pkg_info+0x200>
    3bc08362:	67e1                	lui	a5,0x18
    3bc08364:	07ad                	addi	a5,a5,11
    3bc08366:	03000737          	lui	a4,0x3000
    3bc0836a:	08f72623          	sw	a5,140(a4) # 300008c <__BSS_SIZE__+0x2ffa47c>
    3bc0836e:	00044583          	lbu	a1,0(s0)
    3bc08372:	4789                	li	a5,2
    3bc08374:	06f58c63          	beq	a1,a5,3bc083ec <read_ddr_pkg_info+0x224>
    3bc08378:	478d                	li	a5,3
    3bc0837a:	04f58d63          	beq	a1,a5,3bc083d4 <read_ddr_pkg_info+0x20c>
    3bc0837e:	4785                	li	a5,1
    3bc08380:	00003517          	auipc	a0,0x3
    3bc08384:	f4850513          	addi	a0,a0,-184 # 3bc0b2c8 <inc32table+0x130>
    3bc08388:	04f58a63          	beq	a1,a5,3bc083dc <read_ddr_pkg_info+0x214>
    3bc0838c:	7442                	ld	s0,48(sp)
    3bc0838e:	70e2                	ld	ra,56(sp)
    3bc08390:	74a2                	ld	s1,40(sp)
    3bc08392:	7902                	ld	s2,32(sp)
    3bc08394:	69e2                	ld	s3,24(sp)
    3bc08396:	00003517          	auipc	a0,0x3
    3bc0839a:	f5a50513          	addi	a0,a0,-166 # 3bc0b2f0 <inc32table+0x158>
    3bc0839e:	6121                	addi	sp,sp,64
    3bc083a0:	fb9f706f          	j	3bc00358 <tf_printf>
    3bc083a4:	00003517          	auipc	a0,0x3
    3bc083a8:	ef450513          	addi	a0,a0,-268 # 3bc0b298 <inc32table+0x100>
    3bc083ac:	fadf70ef          	jal	ra,3bc00358 <tf_printf>
    3bc083b0:	00044783          	lbu	a5,0(s0)
    3bc083b4:	00978d63          	beq	a5,s1,3bc083ce <read_ddr_pkg_info+0x206>
    3bc083b8:	67e1                	lui	a5,0x18
    3bc083ba:	07ed                	addi	a5,a5,27
    3bc083bc:	b76d                	j	3bc08366 <read_ddr_pkg_info+0x19e>
    3bc083be:	00003517          	auipc	a0,0x3
    3bc083c2:	ee250513          	addi	a0,a0,-286 # 3bc0b2a0 <inc32table+0x108>
    3bc083c6:	bfb5                	j	3bc08342 <read_ddr_pkg_info+0x17a>
    3bc083c8:	67e1                	lui	a5,0x18
    3bc083ca:	07b1                	addi	a5,a5,12
    3bc083cc:	bf69                	j	3bc08366 <read_ddr_pkg_info+0x19e>
    3bc083ce:	67e1                	lui	a5,0x18
    3bc083d0:	07f1                	addi	a5,a5,28
    3bc083d2:	bf51                	j	3bc08366 <read_ddr_pkg_info+0x19e>
    3bc083d4:	00003517          	auipc	a0,0x3
    3bc083d8:	f0450513          	addi	a0,a0,-252 # 3bc0b2d8 <inc32table+0x140>
    3bc083dc:	7442                	ld	s0,48(sp)
    3bc083de:	70e2                	ld	ra,56(sp)
    3bc083e0:	74a2                	ld	s1,40(sp)
    3bc083e2:	7902                	ld	s2,32(sp)
    3bc083e4:	69e2                	ld	s3,24(sp)
    3bc083e6:	6121                	addi	sp,sp,64
    3bc083e8:	f71f706f          	j	3bc00358 <tf_printf>
    3bc083ec:	00003517          	auipc	a0,0x3
    3bc083f0:	efc50513          	addi	a0,a0,-260 # 3bc0b2e8 <inc32table+0x150>
    3bc083f4:	b7e5                	j	3bc083dc <read_ddr_pkg_info+0x214>

000000003bc083f6 <get_ddr_vendor>:
    3bc083f6:	0000b517          	auipc	a0,0xb
    3bc083fa:	01854503          	lbu	a0,24(a0) # 3bc1340e <ddr_vendor>
    3bc083fe:	8082                	ret

000000003bc08400 <axi_mon_start_all>:
    3bc08400:	00030737          	lui	a4,0x30
    3bc08404:	080087b7          	lui	a5,0x8008
    3bc08408:	0705                	addi	a4,a4,1
    3bc0840a:	c398                	sw	a4,0(a5)
    3bc0840c:	08078693          	addi	a3,a5,128 # 8008080 <p_rom_api_cryptodma_aes_decrypt+0x3c07f80>
    3bc08410:	c298                	sw	a4,0(a3)
    3bc08412:	10078693          	addi	a3,a5,256
    3bc08416:	c298                	sw	a4,0(a3)
    3bc08418:	18078693          	addi	a3,a5,384
    3bc0841c:	c298                	sw	a4,0(a3)
    3bc0841e:	20078693          	addi	a3,a5,512
    3bc08422:	c298                	sw	a4,0(a3)
    3bc08424:	28078693          	addi	a3,a5,640
    3bc08428:	c298                	sw	a4,0(a3)
    3bc0842a:	30078693          	addi	a3,a5,768
    3bc0842e:	c298                	sw	a4,0(a3)
    3bc08430:	38078693          	addi	a3,a5,896
    3bc08434:	c298                	sw	a4,0(a3)
    3bc08436:	40078693          	addi	a3,a5,1024
    3bc0843a:	c298                	sw	a4,0(a3)
    3bc0843c:	48078693          	addi	a3,a5,1152
    3bc08440:	c298                	sw	a4,0(a3)
    3bc08442:	50078693          	addi	a3,a5,1280
    3bc08446:	c298                	sw	a4,0(a3)
    3bc08448:	58078793          	addi	a5,a5,1408
    3bc0844c:	c398                	sw	a4,0(a5)
    3bc0844e:	8082                	ret

000000003bc08450 <ddr_sys_bring_up>:
    3bc08450:	7179                	addi	sp,sp,-48
    3bc08452:	f406                	sd	ra,40(sp)
    3bc08454:	789000ef          	jal	ra,3bc093dc <pll_init>
    3bc08458:	344010ef          	jal	ra,3bc0979c <ddrc_init>
    3bc0845c:	0800a7b7          	lui	a5,0x800a
    3bc08460:	0207a023          	sw	zero,32(a5) # 800a020 <p_rom_api_cryptodma_aes_decrypt+0x3c09f20>
    3bc08464:	007797b7          	lui	a5,0x779
    3bc08468:	03000737          	lui	a4,0x3000
    3bc0846c:	8aa78793          	addi	a5,a5,-1878 # 7788aa <__BSS_SIZE__+0x772c9a>
    3bc08470:	1cf72c23          	sw	a5,472(a4) # 30001d8 <__BSS_SIZE__+0x2ffa5c8>
    3bc08474:	6789                	lui	a5,0x2
    3bc08476:	29978793          	addi	a5,a5,665 # 2299 <__BSS_SIZE__-0x3977>
    3bc0847a:	1cf72e23          	sw	a5,476(a4)
    3bc0847e:	794010ef          	jal	ra,3bc09c12 <phy_init>
    3bc08482:	1cb000ef          	jal	ra,3bc08e4c <cvx16_setting_check>
    3bc08486:	7db000ef          	jal	ra,3bc09460 <cvx16_pinmux>
    3bc0848a:	717000ef          	jal	ra,3bc093a0 <cvx16_en_rec_vol_mode>
    3bc0848e:	1df000ef          	jal	ra,3bc08e6c <cvx16_set_dfi_init_start>
    3bc08492:	7c8000ef          	jal	ra,3bc08c5a <cvx16_ddr_phy_power_on_seq1>
    3bc08496:	0c3000ef          	jal	ra,3bc08d58 <cvx16_polling_dfi_init_start>
    3bc0849a:	101000ef          	jal	ra,3bc08d9a <cvx16_INT_ISR_08>
    3bc0849e:	049000ef          	jal	ra,3bc08ce6 <cvx16_ddr_phy_power_on_seq3>
    3bc084a2:	07f000ef          	jal	ra,3bc08d20 <cvx16_wait_for_dfi_init_complete>
    3bc084a6:	121000ef          	jal	ra,3bc08dc6 <cvx16_polling_synp_normal_mode>
    3bc084aa:	1ca000ef          	jal	ra,3bc08674 <cvx16_bist_wr_prbs_init>
    3bc084ae:	0810                	addi	a2,sp,16
    3bc084b0:	082c                	addi	a1,sp,24
    3bc084b2:	0068                	addi	a0,sp,12
    3bc084b4:	4ae000ef          	jal	ra,3bc08962 <cvx16_bist_start_check>
    3bc084b8:	47b2                	lw	a5,12(sp)
    3bc084ba:	e385                	bnez	a5,3bc084da <ddr_sys_bring_up+0x8a>
    3bc084bc:	00003517          	auipc	a0,0x3
    3bc084c0:	e9450513          	addi	a0,a0,-364 # 3bc0b350 <inc32table+0x1b8>
    3bc084c4:	e95f70ef          	jal	ra,3bc00358 <tf_printf>
    3bc084c8:	fac1468b          	ldd	a3,a2,(sp),1,4
    3bc084cc:	45b2                	lw	a1,12(sp)
    3bc084ce:	00003517          	auipc	a0,0x3
    3bc084d2:	e9a50513          	addi	a0,a0,-358 # 3bc0b368 <inc32table+0x1d0>
    3bc084d6:	e83f70ef          	jal	ra,3bc00358 <tf_printf>
    3bc084da:	4ee010ef          	jal	ra,3bc099c8 <ctrl_init_low_patch>
    3bc084de:	16d000ef          	jal	ra,3bc08e4a <cvx16_wrlvl_req>
    3bc084e2:	192000ef          	jal	ra,3bc08674 <cvx16_bist_wr_prbs_init>
    3bc084e6:	0810                	addi	a2,sp,16
    3bc084e8:	082c                	addi	a1,sp,24
    3bc084ea:	0068                	addi	a0,sp,12
    3bc084ec:	476000ef          	jal	ra,3bc08962 <cvx16_bist_start_check>
    3bc084f0:	47b2                	lw	a5,12(sp)
    3bc084f2:	e385                	bnez	a5,3bc08512 <ddr_sys_bring_up+0xc2>
    3bc084f4:	00003517          	auipc	a0,0x3
    3bc084f8:	e5c50513          	addi	a0,a0,-420 # 3bc0b350 <inc32table+0x1b8>
    3bc084fc:	e5df70ef          	jal	ra,3bc00358 <tf_printf>
    3bc08500:	fac1468b          	ldd	a3,a2,(sp),1,4
    3bc08504:	45b2                	lw	a1,12(sp)
    3bc08506:	00003517          	auipc	a0,0x3
    3bc0850a:	e6250513          	addi	a0,a0,-414 # 3bc0b368 <inc32table+0x1d0>
    3bc0850e:	e4bf70ef          	jal	ra,3bc00358 <tf_printf>
    3bc08512:	2d7000ef          	jal	ra,3bc08fe8 <cvx16_rdglvl_req>
    3bc08516:	15e000ef          	jal	ra,3bc08674 <cvx16_bist_wr_prbs_init>
    3bc0851a:	0810                	addi	a2,sp,16
    3bc0851c:	082c                	addi	a1,sp,24
    3bc0851e:	0068                	addi	a0,sp,12
    3bc08520:	442000ef          	jal	ra,3bc08962 <cvx16_bist_start_check>
    3bc08524:	47b2                	lw	a5,12(sp)
    3bc08526:	e385                	bnez	a5,3bc08546 <ddr_sys_bring_up+0xf6>
    3bc08528:	00003517          	auipc	a0,0x3
    3bc0852c:	e2850513          	addi	a0,a0,-472 # 3bc0b350 <inc32table+0x1b8>
    3bc08530:	e29f70ef          	jal	ra,3bc00358 <tf_printf>
    3bc08534:	fac1468b          	ldd	a3,a2,(sp),1,4
    3bc08538:	45b2                	lw	a1,12(sp)
    3bc0853a:	00003517          	auipc	a0,0x3
    3bc0853e:	e2e50513          	addi	a0,a0,-466 # 3bc0b368 <inc32table+0x1d0>
    3bc08542:	e17f70ef          	jal	ra,3bc00358 <tf_printf>
    3bc08546:	4589                	li	a1,2
    3bc08548:	4505                	li	a0,1
    3bc0854a:	4d5000ef          	jal	ra,3bc0921e <cvx16_wdqlvl_req>
    3bc0854e:	4585                	li	a1,1
    3bc08550:	4505                	li	a0,1
    3bc08552:	4cd000ef          	jal	ra,3bc0921e <cvx16_wdqlvl_req>
    3bc08556:	4581                	li	a1,0
    3bc08558:	4505                	li	a0,1
    3bc0855a:	4c5000ef          	jal	ra,3bc0921e <cvx16_wdqlvl_req>
    3bc0855e:	116000ef          	jal	ra,3bc08674 <cvx16_bist_wr_prbs_init>
    3bc08562:	0810                	addi	a2,sp,16
    3bc08564:	082c                	addi	a1,sp,24
    3bc08566:	0068                	addi	a0,sp,12
    3bc08568:	3fa000ef          	jal	ra,3bc08962 <cvx16_bist_start_check>
    3bc0856c:	08000737          	lui	a4,0x8000
    3bc08570:	08c72783          	lw	a5,140(a4) # 800008c <p_rom_api_cryptodma_aes_decrypt+0x3bfff8c>
    3bc08574:	4505                	li	a0,1
    3bc08576:	2781                	sext.w	a5,a5
    3bc08578:	f0f7f793          	andi	a5,a5,-241
    3bc0857c:	0107e793          	ori	a5,a5,16
    3bc08580:	0000b697          	auipc	a3,0xb
    3bc08584:	e6f6a823          	sw	a5,-400(a3) # 3bc133f0 <rddata>
    3bc08588:	08f72623          	sw	a5,140(a4)
    3bc0858c:	323000ef          	jal	ra,3bc090ae <cvx16_rdlvl_req>
    3bc08590:	0e4000ef          	jal	ra,3bc08674 <cvx16_bist_wr_prbs_init>
    3bc08594:	0810                	addi	a2,sp,16
    3bc08596:	082c                	addi	a1,sp,24
    3bc08598:	0068                	addi	a0,sp,12
    3bc0859a:	3c8000ef          	jal	ra,3bc08962 <cvx16_bist_start_check>
    3bc0859e:	3fc010ef          	jal	ra,3bc0999a <ctrl_init_high_patch>
    3bc085a2:	00b10513          	addi	a0,sp,11
    3bc085a6:	615000ef          	jal	ra,3bc093ba <ctrl_init_detect_dram_size>
    3bc085aa:	00b14503          	lbu	a0,11(sp)
    3bc085ae:	448010ef          	jal	ra,3bc099f6 <ctrl_init_update_by_dram_size>
    3bc085b2:	00b14503          	lbu	a0,11(sp)
    3bc085b6:	1e4010ef          	jal	ra,3bc0979a <cvx16_dram_cap_check>
    3bc085ba:	1bf000ef          	jal	ra,3bc08f78 <cvx16_clk_gating_enable>
    3bc085be:	0b6000ef          	jal	ra,3bc08674 <cvx16_bist_wr_prbs_init>
    3bc085c2:	0810                	addi	a2,sp,16
    3bc085c4:	082c                	addi	a1,sp,24
    3bc085c6:	0068                	addi	a0,sp,12
    3bc085c8:	39a000ef          	jal	ra,3bc08962 <cvx16_bist_start_check>
    3bc085cc:	47b2                	lw	a5,12(sp)
    3bc085ce:	eb81                	bnez	a5,3bc085de <ddr_sys_bring_up+0x18e>
    3bc085d0:	00003517          	auipc	a0,0x3
    3bc085d4:	dd850513          	addi	a0,a0,-552 # 3bc0b3a8 <inc32table+0x210>
    3bc085d8:	d81f70ef          	jal	ra,3bc00358 <tf_printf>
    3bc085dc:	a001                	j	3bc085dc <ddr_sys_bring_up+0x18c>
    3bc085de:	0e4000ef          	jal	ra,3bc086c2 <cvx16_bist_wr_sram_init>
    3bc085e2:	0810                	addi	a2,sp,16
    3bc085e4:	082c                	addi	a1,sp,24
    3bc085e6:	0068                	addi	a0,sp,12
    3bc085e8:	37a000ef          	jal	ra,3bc08962 <cvx16_bist_start_check>
    3bc085ec:	47b2                	lw	a5,12(sp)
    3bc085ee:	eb81                	bnez	a5,3bc085fe <ddr_sys_bring_up+0x1ae>
    3bc085f0:	00003517          	auipc	a0,0x3
    3bc085f4:	db850513          	addi	a0,a0,-584 # 3bc0b3a8 <inc32table+0x210>
    3bc085f8:	d61f70ef          	jal	ra,3bc00358 <tf_printf>
    3bc085fc:	a001                	j	3bc085fc <ddr_sys_bring_up+0x1ac>
    3bc085fe:	00003517          	auipc	a0,0x3
    3bc08602:	dc250513          	addi	a0,a0,-574 # 3bc0b3c0 <inc32table+0x228>
    3bc08606:	d53f70ef          	jal	ra,3bc00358 <tf_printf>
    3bc0860a:	080087b7          	lui	a5,0x8008
    3bc0860e:	4595                	li	a1,5
    3bc08610:	cbac                	sw	a1,80(a5)
    3bc08612:	08078613          	addi	a2,a5,128 # 8008080 <p_rom_api_cryptodma_aes_decrypt+0x3c07f80>
    3bc08616:	01000737          	lui	a4,0x1000
    3bc0861a:	ca2c                	sw	a1,80(a2)
    3bc0861c:	10070713          	addi	a4,a4,256 # 1000100 <__BSS_SIZE__+0xffa4f0>
    3bc08620:	c398                	sw	a4,0(a5)
    3bc08622:	43d4                	lw	a3,4(a5)
    3bc08624:	2681                	sext.w	a3,a3
    3bc08626:	c006f693          	andi	a3,a3,-1024
    3bc0862a:	c3d4                	sw	a3,4(a5)
    3bc0862c:	c218                	sw	a4,0(a2)
    3bc0862e:	4254                	lw	a3,4(a2)
    3bc08630:	2681                	sext.w	a3,a3
    3bc08632:	c006f693          	andi	a3,a3,-1024
    3bc08636:	c254                	sw	a3,4(a2)
    3bc08638:	40078613          	addi	a2,a5,1024
    3bc0863c:	ca2c                	sw	a1,80(a2)
    3bc0863e:	48078793          	addi	a5,a5,1152
    3bc08642:	cbac                	sw	a1,80(a5)
    3bc08644:	c218                	sw	a4,0(a2)
    3bc08646:	4254                	lw	a3,4(a2)
    3bc08648:	2681                	sext.w	a3,a3
    3bc0864a:	c006f693          	andi	a3,a3,-1024
    3bc0864e:	c254                	sw	a3,4(a2)
    3bc08650:	c398                	sw	a4,0(a5)
    3bc08652:	43d8                	lw	a4,4(a5)
    3bc08654:	2701                	sext.w	a4,a4
    3bc08656:	c0077713          	andi	a4,a4,-1024
    3bc0865a:	c3d8                	sw	a4,4(a5)
    3bc0865c:	0800a737          	lui	a4,0x800a
    3bc08660:	4b5c                	lw	a5,20(a4)
    3bc08662:	2781                	sext.w	a5,a5
    3bc08664:	1007e793          	ori	a5,a5,256
    3bc08668:	cb5c                	sw	a5,20(a4)
    3bc0866a:	d97ff0ef          	jal	ra,3bc08400 <axi_mon_start_all>
    3bc0866e:	70a2                	ld	ra,40(sp)
    3bc08670:	6145                	addi	sp,sp,48
    3bc08672:	8082                	ret

000000003bc08674 <cvx16_bist_wr_prbs_init>:
    3bc08674:	00060737          	lui	a4,0x60
    3bc08678:	080107b7          	lui	a5,0x8010
    3bc0867c:	0719                	addi	a4,a4,6
    3bc0867e:	c398                	sw	a4,0(a5)
    3bc08680:	80200737          	lui	a4,0x80200
    3bc08684:	1101                	addi	sp,sp,-32
    3bc08686:	a0070713          	addi	a4,a4,-1536 # ffffffff801ffa00 <__BL2_END__+0xffffffff445ec5f0>
    3bc0868a:	c63a                	sw	a4,12(sp)
    3bc0868c:	40200737          	lui	a4,0x40200
    3bc08690:	e802                	sd	zero,16(sp)
    3bc08692:	ec02                	sd	zero,24(sp)
    3bc08694:	a0070713          	addi	a4,a4,-1536 # 401ffa00 <__BL2_END__+0x45ec5f0>
    3bc08698:	c3b8                	sw	a4,64(a5)
    3bc0869a:	4732                	lw	a4,12(sp)
    3bc0869c:	c3f8                	sw	a4,68(a5)
    3bc0869e:	4742                	lw	a4,16(sp)
    3bc086a0:	c7b8                	sw	a4,72(a5)
    3bc086a2:	4752                	lw	a4,20(sp)
    3bc086a4:	c7f8                	sw	a4,76(a5)
    3bc086a6:	4762                	lw	a4,24(sp)
    3bc086a8:	cbb8                	sw	a4,80(a5)
    3bc086aa:	4772                	lw	a4,28(sp)
    3bc086ac:	cbf8                	sw	a4,84(a5)
    3bc086ae:	00100737          	lui	a4,0x100
    3bc086b2:	0007a823          	sw	zero,16(a5) # 8010010 <p_rom_api_cryptodma_aes_decrypt+0x3c0ff10>
    3bc086b6:	177d                	addi	a4,a4,-1
    3bc086b8:	cbd8                	sw	a4,20(a5)
    3bc086ba:	4711                	li	a4,4
    3bc086bc:	cf98                	sw	a4,24(a5)
    3bc086be:	6105                	addi	sp,sp,32
    3bc086c0:	8082                	ret

000000003bc086c2 <cvx16_bist_wr_sram_init>:
    3bc086c2:	000c0737          	lui	a4,0xc0
    3bc086c6:	080107b7          	lui	a5,0x8010
    3bc086ca:	0731                	addi	a4,a4,12
    3bc086cc:	c398                	sw	a4,0(a5)
    3bc086ce:	6705                	lui	a4,0x1
    3bc086d0:	f0570713          	addi	a4,a4,-251 # f05 <__BSS_SIZE__-0x4d0b>
    3bc086d4:	d3d8                	sw	a4,36(a5)
    3bc086d6:	80103737          	lui	a4,0x80103
    3bc086da:	1101                	addi	sp,sp,-32
    3bc086dc:	c0f70713          	addi	a4,a4,-1009 # ffffffff80102c0f <__BL2_END__+0xffffffff444ef7ff>
    3bc086e0:	c63a                	sw	a4,12(sp)
    3bc086e2:	c0000737          	lui	a4,0xc0000
    3bc086e6:	0705                	addi	a4,a4,1
    3bc086e8:	1702                	slli	a4,a4,0x20
    3bc086ea:	e83a                	sd	a4,16(sp)
    3bc086ec:	40103737          	lui	a4,0x40103
    3bc086f0:	ec02                	sd	zero,24(sp)
    3bc086f2:	c0f70713          	addi	a4,a4,-1009 # 40102c0f <__BL2_END__+0x44ef7ff>
    3bc086f6:	c3b8                	sw	a4,64(a5)
    3bc086f8:	4732                	lw	a4,12(sp)
    3bc086fa:	c3f8                	sw	a4,68(a5)
    3bc086fc:	4742                	lw	a4,16(sp)
    3bc086fe:	c7b8                	sw	a4,72(a5)
    3bc08700:	4752                	lw	a4,20(sp)
    3bc08702:	c7f8                	sw	a4,76(a5)
    3bc08704:	4762                	lw	a4,24(sp)
    3bc08706:	cbb8                	sw	a4,80(a5)
    3bc08708:	4772                	lw	a4,28(sp)
    3bc0870a:	cbf8                	sw	a4,84(a5)
    3bc0870c:	00100737          	lui	a4,0x100
    3bc08710:	0007a823          	sw	zero,16(a5) # 8010010 <p_rom_api_cryptodma_aes_decrypt+0x3c0ff10>
    3bc08714:	177d                	addi	a4,a4,-1
    3bc08716:	cbd8                	sw	a4,20(a5)
    3bc08718:	02000713          	li	a4,32
    3bc0871c:	cf98                	sw	a4,24(a5)
    3bc0871e:	6105                	addi	sp,sp,32
    3bc08720:	8082                	ret

000000003bc08722 <cvx16_bist_rdglvl_init>:
    3bc08722:	00060737          	lui	a4,0x60
    3bc08726:	080107b7          	lui	a5,0x8010
    3bc0872a:	0719                	addi	a4,a4,6
    3bc0872c:	c398                	sw	a4,0(a5)
    3bc0872e:	1101                	addi	sp,sp,-32
    3bc08730:	80004737          	lui	a4,0x80004
    3bc08734:	e802                	sd	zero,16(sp)
    3bc08736:	ec02                	sd	zero,24(sp)
    3bc08738:	c602                	sw	zero,12(sp)
    3bc0873a:	a0070713          	addi	a4,a4,-1536 # ffffffff80003a00 <__BL2_END__+0xffffffff443f05f0>
    3bc0873e:	c3b8                	sw	a4,64(a5)
    3bc08740:	4732                	lw	a4,12(sp)
    3bc08742:	c3f8                	sw	a4,68(a5)
    3bc08744:	4742                	lw	a4,16(sp)
    3bc08746:	c7b8                	sw	a4,72(a5)
    3bc08748:	4752                	lw	a4,20(sp)
    3bc0874a:	c7f8                	sw	a4,76(a5)
    3bc0874c:	4762                	lw	a4,24(sp)
    3bc0874e:	cbb8                	sw	a4,80(a5)
    3bc08750:	4772                	lw	a4,28(sp)
    3bc08752:	cbf8                	sw	a4,84(a5)
    3bc08754:	00100737          	lui	a4,0x100
    3bc08758:	0007a823          	sw	zero,16(a5) # 8010010 <p_rom_api_cryptodma_aes_decrypt+0x3c0ff10>
    3bc0875c:	177d                	addi	a4,a4,-1
    3bc0875e:	cbd8                	sw	a4,20(a5)
    3bc08760:	4711                	li	a4,4
    3bc08762:	cf98                	sw	a4,24(a5)
    3bc08764:	6105                	addi	sp,sp,32
    3bc08766:	8082                	ret

000000003bc08768 <cvx16_bist_rdlvl_init>:
    3bc08768:	000607b7          	lui	a5,0x60
    3bc0876c:	08010737          	lui	a4,0x8010
    3bc08770:	0799                	addi	a5,a5,6
    3bc08772:	c31c                	sw	a5,0(a4)
    3bc08774:	1101                	addi	sp,sp,-32
    3bc08776:	e519                	bnez	a0,3bc08784 <cvx16_bist_rdlvl_init+0x1c>
    3bc08778:	200017b7          	lui	a5,0x20001
    3bc0877c:	078a                	slli	a5,a5,0x2
    3bc0877e:	a0078793          	addi	a5,a5,-1536 # 20000a00 <p_rom_api_cryptodma_aes_decrypt+0x1bc00900>
    3bc08782:	a0ad                	j	3bc087ec <cvx16_bist_rdlvl_init+0x84>
    3bc08784:	4785                	li	a5,1
    3bc08786:	04f51c63          	bne	a0,a5,3bc087de <cvx16_bist_rdlvl_init+0x76>
    3bc0878a:	6785                	lui	a5,0x1
    3bc0878c:	f0578793          	addi	a5,a5,-251 # f05 <__BSS_SIZE__-0x4d0b>
    3bc08790:	d35c                	sw	a5,36(a4)
    3bc08792:	00003797          	auipc	a5,0x3
    3bc08796:	c467b783          	ld	a5,-954(a5) # 3bc0b3d8 <inc32table+0x240>
    3bc0879a:	e43e                	sd	a5,8(sp)
    3bc0879c:	00003797          	auipc	a5,0x3
    3bc087a0:	c447b783          	ld	a5,-956(a5) # 3bc0b3e0 <inc32table+0x248>
    3bc087a4:	e83e                	sd	a5,16(sp)
    3bc087a6:	478d                	li	a5,3
    3bc087a8:	07fa                	slli	a5,a5,0x1e
    3bc087aa:	0785                	addi	a5,a5,1
    3bc087ac:	ec3e                	sd	a5,24(sp)
    3bc087ae:	4722                	lw	a4,8(sp)
    3bc087b0:	080107b7          	lui	a5,0x8010
    3bc087b4:	c3b8                	sw	a4,64(a5)
    3bc087b6:	4732                	lw	a4,12(sp)
    3bc087b8:	c3f8                	sw	a4,68(a5)
    3bc087ba:	4742                	lw	a4,16(sp)
    3bc087bc:	c7b8                	sw	a4,72(a5)
    3bc087be:	4752                	lw	a4,20(sp)
    3bc087c0:	c7f8                	sw	a4,76(a5)
    3bc087c2:	4762                	lw	a4,24(sp)
    3bc087c4:	cbb8                	sw	a4,80(a5)
    3bc087c6:	4772                	lw	a4,28(sp)
    3bc087c8:	cbf8                	sw	a4,84(a5)
    3bc087ca:	00100737          	lui	a4,0x100
    3bc087ce:	0007a823          	sw	zero,16(a5) # 8010010 <p_rom_api_cryptodma_aes_decrypt+0x3c0ff10>
    3bc087d2:	177d                	addi	a4,a4,-1
    3bc087d4:	cbd8                	sw	a4,20(a5)
    3bc087d6:	4711                	li	a4,4
    3bc087d8:	cf98                	sw	a4,24(a5)
    3bc087da:	6105                	addi	sp,sp,32
    3bc087dc:	8082                	ret
    3bc087de:	4789                	li	a5,2
    3bc087e0:	00f51a63          	bne	a0,a5,3bc087f4 <cvx16_bist_rdlvl_init+0x8c>
    3bc087e4:	00003797          	auipc	a5,0x3
    3bc087e8:	c047b783          	ld	a5,-1020(a5) # 3bc0b3e8 <inc32table+0x250>
    3bc087ec:	e43e                	sd	a5,8(sp)
    3bc087ee:	e802                	sd	zero,16(sp)
    3bc087f0:	ec02                	sd	zero,24(sp)
    3bc087f2:	bf75                	j	3bc087ae <cvx16_bist_rdlvl_init+0x46>
    3bc087f4:	47c9                	li	a5,18
    3bc087f6:	02f51563          	bne	a0,a5,3bc08820 <cvx16_bist_rdlvl_init+0xb8>
    3bc087fa:	080006b7          	lui	a3,0x8000
    3bc087fe:	0846a783          	lw	a5,132(a3) # 8000084 <p_rom_api_cryptodma_aes_decrypt+0x3bfff84>
    3bc08802:	6709                	lui	a4,0x2
    3bc08804:	f0070713          	addi	a4,a4,-256 # 1f00 <__BSS_SIZE__-0x3d10>
    3bc08808:	2781                	sext.w	a5,a5
    3bc0880a:	9b81                	andi	a5,a5,-32
    3bc0880c:	01d7e793          	ori	a5,a5,29
    3bc08810:	8fd9                	or	a5,a5,a4
    3bc08812:	0000b717          	auipc	a4,0xb
    3bc08816:	bcf72f23          	sw	a5,-1058(a4) # 3bc133f0 <rddata>
    3bc0881a:	08f6a223          	sw	a5,132(a3)
    3bc0881e:	b7d9                	j	3bc087e4 <cvx16_bist_rdlvl_init+0x7c>
    3bc08820:	47c1                	li	a5,16
    3bc08822:	f8f516e3          	bne	a0,a5,3bc087ae <cvx16_bist_rdlvl_init+0x46>
    3bc08826:	08000637          	lui	a2,0x8000
    3bc0882a:	08462783          	lw	a5,132(a2) # 8000084 <p_rom_api_cryptodma_aes_decrypt+0x3bfff84>
    3bc0882e:	6689                	lui	a3,0x2
    3bc08830:	f0068693          	addi	a3,a3,-256 # 1f00 <__BSS_SIZE__-0x3d10>
    3bc08834:	2781                	sext.w	a5,a5
    3bc08836:	9b81                	andi	a5,a5,-32
    3bc08838:	0017e793          	ori	a5,a5,1
    3bc0883c:	3007c713          	xori	a4,a5,768
    3bc08840:	8f75                	and	a4,a4,a3
    3bc08842:	8fb9                	xor	a5,a5,a4
    3bc08844:	0000b717          	auipc	a4,0xb
    3bc08848:	baf72623          	sw	a5,-1108(a4) # 3bc133f0 <rddata>
    3bc0884c:	08f62223          	sw	a5,132(a2)
    3bc08850:	b725                	j	3bc08778 <cvx16_bist_rdlvl_init+0x10>

000000003bc08852 <cvx16_bist_wdqlvl_init>:
    3bc08852:	000607b7          	lui	a5,0x60
    3bc08856:	08010737          	lui	a4,0x8010
    3bc0885a:	0799                	addi	a5,a5,6
    3bc0885c:	c31c                	sw	a5,0(a4)
    3bc0885e:	1101                	addi	sp,sp,-32
    3bc08860:	e909                	bnez	a0,3bc08872 <cvx16_bist_wdqlvl_init+0x20>
    3bc08862:	00003797          	auipc	a5,0x3
    3bc08866:	b8e7b783          	ld	a5,-1138(a5) # 3bc0b3f0 <inc32table+0x258>
    3bc0886a:	e43e                	sd	a5,8(sp)
    3bc0886c:	e802                	sd	zero,16(sp)
    3bc0886e:	ec02                	sd	zero,24(sp)
    3bc08870:	a035                	j	3bc0889c <cvx16_bist_wdqlvl_init+0x4a>
    3bc08872:	4785                	li	a5,1
    3bc08874:	04f51c63          	bne	a0,a5,3bc088cc <cvx16_bist_wdqlvl_init+0x7a>
    3bc08878:	6785                	lui	a5,0x1
    3bc0887a:	f0578793          	addi	a5,a5,-251 # f05 <__BSS_SIZE__-0x4d0b>
    3bc0887e:	d35c                	sw	a5,36(a4)
    3bc08880:	00003797          	auipc	a5,0x3
    3bc08884:	b587b783          	ld	a5,-1192(a5) # 3bc0b3d8 <inc32table+0x240>
    3bc08888:	e43e                	sd	a5,8(sp)
    3bc0888a:	00003797          	auipc	a5,0x3
    3bc0888e:	b567b783          	ld	a5,-1194(a5) # 3bc0b3e0 <inc32table+0x248>
    3bc08892:	e83e                	sd	a5,16(sp)
    3bc08894:	478d                	li	a5,3
    3bc08896:	07fa                	slli	a5,a5,0x1e
    3bc08898:	0785                	addi	a5,a5,1
    3bc0889a:	ec3e                	sd	a5,24(sp)
    3bc0889c:	4722                	lw	a4,8(sp)
    3bc0889e:	080107b7          	lui	a5,0x8010
    3bc088a2:	c3b8                	sw	a4,64(a5)
    3bc088a4:	4732                	lw	a4,12(sp)
    3bc088a6:	c3f8                	sw	a4,68(a5)
    3bc088a8:	4742                	lw	a4,16(sp)
    3bc088aa:	c7b8                	sw	a4,72(a5)
    3bc088ac:	4752                	lw	a4,20(sp)
    3bc088ae:	c7f8                	sw	a4,76(a5)
    3bc088b0:	4762                	lw	a4,24(sp)
    3bc088b2:	cbb8                	sw	a4,80(a5)
    3bc088b4:	4772                	lw	a4,28(sp)
    3bc088b6:	cbf8                	sw	a4,84(a5)
    3bc088b8:	00100737          	lui	a4,0x100
    3bc088bc:	0007a823          	sw	zero,16(a5) # 8010010 <p_rom_api_cryptodma_aes_decrypt+0x3c0ff10>
    3bc088c0:	177d                	addi	a4,a4,-1
    3bc088c2:	cbd8                	sw	a4,20(a5)
    3bc088c4:	4711                	li	a4,4
    3bc088c6:	cf98                	sw	a4,24(a5)
    3bc088c8:	6105                	addi	sp,sp,32
    3bc088ca:	8082                	ret
    3bc088cc:	47c5                	li	a5,17
    3bc088ce:	00003717          	auipc	a4,0x3
    3bc088d2:	b2270713          	addi	a4,a4,-1246 # 3bc0b3f0 <inc32table+0x258>
    3bc088d6:	00f51f63          	bne	a0,a5,3bc088f4 <cvx16_bist_wdqlvl_init+0xa2>
    3bc088da:	67c1                	lui	a5,0x10
    3bc088dc:	30178793          	addi	a5,a5,769 # 10301 <__BSS_SIZE__+0xa6f1>
    3bc088e0:	0000b697          	auipc	a3,0xb
    3bc088e4:	b0f6a823          	sw	a5,-1264(a3) # 3bc133f0 <rddata>
    3bc088e8:	080006b7          	lui	a3,0x8000
    3bc088ec:	18f6a823          	sw	a5,400(a3) # 8000190 <p_rom_api_cryptodma_aes_decrypt+0x3c00090>
    3bc088f0:	631c                	ld	a5,0(a4)
    3bc088f2:	bfa5                	j	3bc0886a <cvx16_bist_wdqlvl_init+0x18>
    3bc088f4:	47c9                	li	a5,18
    3bc088f6:	f6f516e3          	bne	a0,a5,3bc08862 <cvx16_bist_wdqlvl_init+0x10>
    3bc088fa:	67c9                	lui	a5,0x12
    3bc088fc:	f1d78793          	addi	a5,a5,-227 # 11f1d <__BSS_SIZE__+0xc30d>
    3bc08900:	b7c5                	j	3bc088e0 <cvx16_bist_wdqlvl_init+0x8e>

000000003bc08902 <cvx16_bist_wdmlvl_init>:
    3bc08902:	00060737          	lui	a4,0x60
    3bc08906:	080107b7          	lui	a5,0x8010
    3bc0890a:	0719                	addi	a4,a4,6
    3bc0890c:	c398                	sw	a4,0(a5)
    3bc0890e:	6705                	lui	a4,0x1
    3bc08910:	f0570713          	addi	a4,a4,-251 # f05 <__BSS_SIZE__-0x4d0b>
    3bc08914:	d3d8                	sw	a4,36(a5)
    3bc08916:	40103737          	lui	a4,0x40103
    3bc0891a:	1101                	addi	sp,sp,-32
    3bc0891c:	e0070713          	addi	a4,a4,-512 # 40102e00 <__BL2_END__+0x44ef9f0>
    3bc08920:	c63a                	sw	a4,12(sp)
    3bc08922:	00401737          	lui	a4,0x401
    3bc08926:	81770713          	addi	a4,a4,-2025 # 400817 <__BSS_SIZE__+0x3fac07>
    3bc0892a:	0726                	slli	a4,a4,0x9
    3bc0892c:	e83a                	sd	a4,16(sp)
    3bc0892e:	40102737          	lui	a4,0x40102
    3bc08932:	ec02                	sd	zero,24(sp)
    3bc08934:	60070713          	addi	a4,a4,1536 # 40102600 <__BL2_END__+0x44ef1f0>
    3bc08938:	c3b8                	sw	a4,64(a5)
    3bc0893a:	4732                	lw	a4,12(sp)
    3bc0893c:	c3f8                	sw	a4,68(a5)
    3bc0893e:	4742                	lw	a4,16(sp)
    3bc08940:	c7b8                	sw	a4,72(a5)
    3bc08942:	4752                	lw	a4,20(sp)
    3bc08944:	c7f8                	sw	a4,76(a5)
    3bc08946:	4762                	lw	a4,24(sp)
    3bc08948:	cbb8                	sw	a4,80(a5)
    3bc0894a:	4772                	lw	a4,28(sp)
    3bc0894c:	cbf8                	sw	a4,84(a5)
    3bc0894e:	00100737          	lui	a4,0x100
    3bc08952:	0007a823          	sw	zero,16(a5) # 8010010 <p_rom_api_cryptodma_aes_decrypt+0x3c0ff10>
    3bc08956:	177d                	addi	a4,a4,-1
    3bc08958:	cbd8                	sw	a4,20(a5)
    3bc0895a:	4711                	li	a4,4
    3bc0895c:	cf98                	sw	a4,24(a5)
    3bc0895e:	6105                	addi	sp,sp,32
    3bc08960:	8082                	ret

000000003bc08962 <cvx16_bist_start_check>:
    3bc08962:	000307b7          	lui	a5,0x30
    3bc08966:	08010737          	lui	a4,0x8010
    3bc0896a:	078d                	addi	a5,a5,3
    3bc0896c:	c31c                	sw	a5,0(a4)
    3bc0896e:	0000b897          	auipc	a7,0xb
    3bc08972:	a8288893          	addi	a7,a7,-1406 # 3bc133f0 <rddata>
    3bc08976:	08072783          	lw	a5,128(a4) # 8010080 <p_rom_api_cryptodma_aes_decrypt+0x3c0ff80>
    3bc0897a:	08070693          	addi	a3,a4,128
    3bc0897e:	2781                	sext.w	a5,a5
    3bc08980:	00f8a023          	sw	a5,0(a7)
    3bc08984:	0047f813          	andi	a6,a5,4
    3bc08988:	fe0807e3          	beqz	a6,3bc08976 <cvx16_bist_start_check+0x14>
    3bc0898c:	0c37b78b          	extu	a5,a5,3,3
    3bc08990:	c79d                	beqz	a5,3bc089be <cvx16_bist_start_check+0x5c>
    3bc08992:	00052023          	sw	zero,0(a0)
    3bc08996:	e2e6c80b          	lwd	a6,a4,(a3),1,3
    3bc0899a:	e4f6c50b          	lwd	a0,a5,(a3),2,3
    3bc0899e:	1702                	slli	a4,a4,0x20
    3bc089a0:	7c08368b          	extu	a3,a6,31,0
    3bc089a4:	8f55                	or	a4,a4,a3
    3bc089a6:	1782                	slli	a5,a5,0x20
    3bc089a8:	7c05350b          	extu	a0,a0,31,0
    3bc089ac:	e198                	sd	a4,0(a1)
    3bc089ae:	8fc9                	or	a5,a5,a0
    3bc089b0:	e21c                	sd	a5,0(a2)
    3bc089b2:	080107b7          	lui	a5,0x8010
    3bc089b6:	00050737          	lui	a4,0x50
    3bc089ba:	c398                	sw	a4,0(a5)
    3bc089bc:	8082                	ret
    3bc089be:	4785                	li	a5,1
    3bc089c0:	c11c                	sw	a5,0(a0)
    3bc089c2:	0005b023          	sd	zero,0(a1)
    3bc089c6:	00063023          	sd	zero,0(a2)
    3bc089ca:	b7e5                	j	3bc089b2 <cvx16_bist_start_check+0x50>

000000003bc089cc <cvx16_rdvld_train>:
    3bc089cc:	7159                	addi	sp,sp,-112
    3bc089ce:	f0a2                	sd	s0,96(sp)
    3bc089d0:	eca6                	sd	s1,88(sp)
    3bc089d2:	e8ca                	sd	s2,80(sp)
    3bc089d4:	e4ce                	sd	s3,72(sp)
    3bc089d6:	e0d2                	sd	s4,64(sp)
    3bc089d8:	fc56                	sd	s5,56(sp)
    3bc089da:	f486                	sd	ra,104(sp)
    3bc089dc:	f85a                	sd	s6,48(sp)
    3bc089de:	f45e                	sd	s7,40(sp)
    3bc089e0:	f062                	sd	s8,32(sp)
    3bc089e2:	c93ff0ef          	jal	ra,3bc08674 <cvx16_bist_wr_prbs_init>
    3bc089e6:	080017b7          	lui	a5,0x8001
    3bc089ea:	b147a403          	lw	s0,-1260(a5) # 8000b14 <p_rom_api_cryptodma_aes_decrypt+0x3c00a14>
    3bc089ee:	b447a783          	lw	a5,-1212(a5)
    3bc089f2:	4925                	li	s2,9
    3bc089f4:	080007b7          	lui	a5,0x8000
    3bc089f8:	0947a483          	lw	s1,148(a5) # 8000094 <p_rom_api_cryptodma_aes_decrypt+0x3bfff94>
    3bc089fc:	2401                	sext.w	s0,s0
    3bc089fe:	001f0a37          	lui	s4,0x1f0
    3bc08a02:	2481                	sext.w	s1,s1
    3bc08a04:	080019b7          	lui	s3,0x8001
    3bc08a08:	4a85                	li	s5,1
    3bc08a0a:	0109171b          	slliw	a4,s2,0x10
    3bc08a0e:	8f21                	xor	a4,a4,s0
    3bc08a10:	01477733          	and	a4,a4,s4
    3bc08a14:	8c39                	xor	s0,s0,a4
    3bc08a16:	2401                	sext.w	s0,s0
    3bc08a18:	b089aa23          	sw	s0,-1260(s3) # 8000b14 <p_rom_api_cryptodma_aes_decrypt+0x3c00a14>
    3bc08a1c:	b489a223          	sw	s0,-1212(s3)
    3bc08a20:	0830                	addi	a2,sp,24
    3bc08a22:	080c                	addi	a1,sp,16
    3bc08a24:	0068                	addi	a0,sp,12
    3bc08a26:	f3dff0ef          	jal	ra,3bc08962 <cvx16_bist_start_check>
    3bc08a2a:	47b2                	lw	a5,12(sp)
    3bc08a2c:	00090c1b          	sext.w	s8,s2
    3bc08a30:	ef8d                	bnez	a5,3bc08a6a <cvx16_rdvld_train+0x9e>
    3bc08a32:	00f4f793          	andi	a5,s1,15
    3bc08a36:	2785                	addiw	a5,a5,1
    3bc08a38:	018787bb          	addw	a5,a5,s8
    3bc08a3c:	0107979b          	slliw	a5,a5,0x10
    3bc08a40:	8fa1                	xor	a5,a5,s0
    3bc08a42:	0147f7b3          	and	a5,a5,s4
    3bc08a46:	8c3d                	xor	s0,s0,a5
    3bc08a48:	2401                	sext.w	s0,s0
    3bc08a4a:	b089aa23          	sw	s0,-1260(s3)
    3bc08a4e:	b489a223          	sw	s0,-1212(s3)
    3bc08a52:	70a6                	ld	ra,104(sp)
    3bc08a54:	7406                	ld	s0,96(sp)
    3bc08a56:	64e6                	ld	s1,88(sp)
    3bc08a58:	6946                	ld	s2,80(sp)
    3bc08a5a:	69a6                	ld	s3,72(sp)
    3bc08a5c:	6a06                	ld	s4,64(sp)
    3bc08a5e:	7ae2                	ld	s5,56(sp)
    3bc08a60:	7b42                	ld	s6,48(sp)
    3bc08a62:	7ba2                	ld	s7,40(sp)
    3bc08a64:	7c02                	ld	s8,32(sp)
    3bc08a66:	6165                	addi	sp,sp,112
    3bc08a68:	8082                	ret
    3bc08a6a:	397d                	addiw	s2,s2,-1
    3bc08a6c:	f9591fe3          	bne	s2,s5,3bc08a0a <cvx16_rdvld_train+0x3e>
    3bc08a70:	b7cd                	j	3bc08a52 <cvx16_rdvld_train+0x86>

000000003bc08a72 <cvx16_dll_cal>:
    3bc08a72:	080067b7          	lui	a5,0x8006
    3bc08a76:	47fc                	lw	a5,76(a5)
    3bc08a78:	0000b717          	auipc	a4,0xb
    3bc08a7c:	97870713          	addi	a4,a4,-1672 # 3bc133f0 <rddata>
    3bc08a80:	2781                	sext.w	a5,a5
    3bc08a82:	c31c                	sw	a5,0(a4)
    3bc08a84:	1447b78b          	extu	a5,a5,5,4
    3bc08a88:	cf9d                	beqz	a5,3bc08ac6 <cvx16_dll_cal+0x54>
    3bc08a8a:	080006b7          	lui	a3,0x8000
    3bc08a8e:	42bc                	lw	a5,64(a3)
    3bc08a90:	7601                	lui	a2,0xfffe0
    3bc08a92:	1675                	addi	a2,a2,-3
    3bc08a94:	2781                	sext.w	a5,a5
    3bc08a96:	8ff1                	and	a5,a5,a2
    3bc08a98:	c31c                	sw	a5,0(a4)
    3bc08a9a:	c2bc                	sw	a5,64(a3)
    3bc08a9c:	42bc                	lw	a5,64(a3)
    3bc08a9e:	00020637          	lui	a2,0x20
    3bc08aa2:	0609                	addi	a2,a2,2
    3bc08aa4:	2781                	sext.w	a5,a5
    3bc08aa6:	8fd1                	or	a5,a5,a2
    3bc08aa8:	c2bc                	sw	a5,64(a3)
    3bc08aaa:	0000b797          	auipc	a5,0xb
    3bc08aae:	9407a323          	sw	zero,-1722(a5) # 3bc133f0 <rddata>
    3bc08ab2:	08003637          	lui	a2,0x8003
    3bc08ab6:	66c1                	lui	a3,0x10
    3bc08ab8:	4a5c                	lw	a5,20(a2)
    3bc08aba:	2781                	sext.w	a5,a5
    3bc08abc:	c31c                	sw	a5,0(a4)
    3bc08abe:	8ff5                	and	a5,a5,a3
    3bc08ac0:	2781                	sext.w	a5,a5
    3bc08ac2:	dbfd                	beqz	a5,3bc08ab8 <cvx16_dll_cal+0x46>
    3bc08ac4:	8082                	ret
    3bc08ac6:	08000637          	lui	a2,0x8000
    3bc08aca:	423c                	lw	a5,64(a2)
    3bc08acc:	7681                	lui	a3,0xfffe0
    3bc08ace:	16f5                	addi	a3,a3,-3
    3bc08ad0:	2781                	sext.w	a5,a5
    3bc08ad2:	8ff5                	and	a5,a5,a3
    3bc08ad4:	c31c                	sw	a5,0(a4)
    3bc08ad6:	c23c                	sw	a5,64(a2)
    3bc08ad8:	8082                	ret

000000003bc08ada <cvx16_clk_normal>:
    3bc08ada:	080066b7          	lui	a3,0x8006
    3bc08ade:	46dc                	lw	a5,12(a3)
    3bc08ae0:	7769                	lui	a4,0xffffa
    3bc08ae2:	177d                	addi	a4,a4,-1
    3bc08ae4:	2781                	sext.w	a5,a5
    3bc08ae6:	8ff9                	and	a5,a5,a4
    3bc08ae8:	03003737          	lui	a4,0x3003
    3bc08aec:	c6dc                	sw	a5,12(a3)
    3bc08aee:	90070713          	addi	a4,a4,-1792 # 3002900 <__BSS_SIZE__+0x2ffccf0>
    3bc08af2:	0000b797          	auipc	a5,0xb
    3bc08af6:	8d67a783          	lw	a5,-1834(a5) # 3bc133c8 <reg_set>
    3bc08afa:	cb7c                	sw	a5,84(a4)
    3bc08afc:	0000b797          	auipc	a5,0xb
    3bc08b00:	8d47d783          	lhu	a5,-1836(a5) # 3bc133d0 <reg_span>
    3bc08b04:	cf3c                	sw	a5,88(a4)
    3bc08b06:	0000b797          	auipc	a5,0xb
    3bc08b0a:	8d27b783          	ld	a5,-1838(a5) # 3bc133d8 <reg_step>
    3bc08b0e:	5c07b78b          	extu	a5,a5,23,0
    3bc08b12:	2781                	sext.w	a5,a5
    3bc08b14:	0000b697          	auipc	a3,0xb
    3bc08b18:	8dc68693          	addi	a3,a3,-1828 # 3bc133f0 <rddata>
    3bc08b1c:	c29c                	sw	a5,0(a3)
    3bc08b1e:	cf7c                	sw	a5,92(a4)
    3bc08b20:	4b3c                	lw	a5,80(a4)
    3bc08b22:	2781                	sext.w	a5,a5
    3bc08b24:	0017c793          	xori	a5,a5,1
    3bc08b28:	fa17f793          	andi	a5,a5,-95
    3bc08b2c:	0207e793          	ori	a5,a5,32
    3bc08b30:	c29c                	sw	a5,0(a3)
    3bc08b32:	cb3c                	sw	a5,80(a4)
    3bc08b34:	8082                	ret

000000003bc08b36 <cvx16_clk_div2>:
    3bc08b36:	08006737          	lui	a4,0x8006
    3bc08b3a:	475c                	lw	a5,12(a4)
    3bc08b3c:	6691                	lui	a3,0x4
    3bc08b3e:	8fd5                	or	a5,a5,a3
    3bc08b40:	0000b697          	auipc	a3,0xb
    3bc08b44:	8af6a823          	sw	a5,-1872(a3) # 3bc133f0 <rddata>
    3bc08b48:	c75c                	sw	a5,12(a4)
    3bc08b4a:	8082                	ret

000000003bc08b4c <cvx16_clk_div40>:
    3bc08b4c:	08006737          	lui	a4,0x8006
    3bc08b50:	475c                	lw	a5,12(a4)
    3bc08b52:	6689                	lui	a3,0x2
    3bc08b54:	8fd5                	or	a5,a5,a3
    3bc08b56:	0000b697          	auipc	a3,0xb
    3bc08b5a:	88f6ad23          	sw	a5,-1894(a3) # 3bc133f0 <rddata>
    3bc08b5e:	c75c                	sw	a5,12(a4)
    3bc08b60:	8082                	ret

000000003bc08b62 <cvx16_chg_pll_freq>:
    3bc08b62:	1101                	addi	sp,sp,-32
    3bc08b64:	0000b797          	auipc	a5,0xb
    3bc08b68:	8807a623          	sw	zero,-1908(a5) # 3bc133f0 <rddata>
    3bc08b6c:	080066b7          	lui	a3,0x8006
    3bc08b70:	e822                	sd	s0,16(sp)
    3bc08b72:	ec06                	sd	ra,24(sp)
    3bc08b74:	e426                	sd	s1,8(sp)
    3bc08b76:	e04a                	sd	s2,0(sp)
    3bc08b78:	0006a223          	sw	zero,4(a3) # 8006004 <p_rom_api_cryptodma_aes_decrypt+0x3c05f04>
    3bc08b7c:	0006a423          	sw	zero,8(a3)
    3bc08b80:	46dc                	lw	a5,12(a3)
    3bc08b82:	0000b417          	auipc	s0,0xb
    3bc08b86:	86e40413          	addi	s0,s0,-1938 # 3bc133f0 <rddata>
    3bc08b8a:	2781                	sext.w	a5,a5
    3bc08b8c:	f7f7f793          	andi	a5,a5,-129
    3bc08b90:	c01c                	sw	a5,0(s0)
    3bc08b92:	c6dc                	sw	a5,12(a3)
    3bc08b94:	46fc                	lw	a5,76(a3)
    3bc08b96:	c01c                	sw	a5,0(s0)
    3bc08b98:	46fc                	lw	a5,76(a3)
    3bc08b9a:	c01c                	sw	a5,0(s0)
    3bc08b9c:	46fc                	lw	a5,76(a3)
    3bc08b9e:	c01c                	sw	a5,0(s0)
    3bc08ba0:	46fc                	lw	a5,76(a3)
    3bc08ba2:	c01c                	sw	a5,0(s0)
    3bc08ba4:	46fc                	lw	a5,76(a3)
    3bc08ba6:	c01c                	sw	a5,0(s0)
    3bc08ba8:	46f8                	lw	a4,76(a3)
    3bc08baa:	0007079b          	sext.w	a5,a4
    3bc08bae:	8b05                	andi	a4,a4,1
    3bc08bb0:	c315                	beqz	a4,3bc08bd4 <cvx16_chg_pll_freq+0x72>
    3bc08bb2:	2487b60b          	extu	a2,a5,9,8
    3bc08bb6:	1447b70b          	extu	a4,a5,5,4
    3bc08bba:	e629                	bnez	a2,3bc08c04 <cvx16_chg_pll_freq+0xa2>
    3bc08bbc:	fcf7f793          	andi	a5,a5,-49
    3bc08bc0:	0087171b          	slliw	a4,a4,0x8
    3bc08bc4:	8f3d                	xor	a4,a4,a5
    3bc08bc6:	30077713          	andi	a4,a4,768
    3bc08bca:	8fb9                	xor	a5,a5,a4
    3bc08bcc:	c01c                	sw	a5,0(s0)
    3bc08bce:	c6fc                	sw	a5,76(a3)
    3bc08bd0:	f7dff0ef          	jal	ra,3bc08b4c <cvx16_clk_div40>
    3bc08bd4:	4685                	li	a3,1
    3bc08bd6:	c014                	sw	a3,0(s0)
    3bc08bd8:	08006737          	lui	a4,0x8006
    3bc08bdc:	c354                	sw	a3,4(a4)
    3bc08bde:	475c                	lw	a5,12(a4)
    3bc08be0:	64a1                	lui	s1,0x8
    3bc08be2:	08006937          	lui	s2,0x8006
    3bc08be6:	2781                	sext.w	a5,a5
    3bc08be8:	0807e793          	ori	a5,a5,128
    3bc08bec:	c75c                	sw	a5,12(a4)
    3bc08bee:	c014                	sw	a3,0(s0)
    3bc08bf0:	c714                	sw	a3,8(a4)
    3bc08bf2:	401c                	lw	a5,0(s0)
    3bc08bf4:	8fe5                	and	a5,a5,s1
    3bc08bf6:	cbb9                	beqz	a5,3bc08c4c <cvx16_chg_pll_freq+0xea>
    3bc08bf8:	60e2                	ld	ra,24(sp)
    3bc08bfa:	6442                	ld	s0,16(sp)
    3bc08bfc:	64a2                	ld	s1,8(sp)
    3bc08bfe:	6902                	ld	s2,0(sp)
    3bc08c00:	6105                	addi	sp,sp,32
    3bc08c02:	8082                	ret
    3bc08c04:	4589                	li	a1,2
    3bc08c06:	02b61163          	bne	a2,a1,3bc08c28 <cvx16_chg_pll_freq+0xc6>
    3bc08c0a:	fcf7f793          	andi	a5,a5,-49
    3bc08c0e:	0207e793          	ori	a5,a5,32
    3bc08c12:	0087171b          	slliw	a4,a4,0x8
    3bc08c16:	8f3d                	xor	a4,a4,a5
    3bc08c18:	30077713          	andi	a4,a4,768
    3bc08c1c:	8fb9                	xor	a5,a5,a4
    3bc08c1e:	c01c                	sw	a5,0(s0)
    3bc08c20:	c6fc                	sw	a5,76(a3)
    3bc08c22:	eb9ff0ef          	jal	ra,3bc08ada <cvx16_clk_normal>
    3bc08c26:	b77d                	j	3bc08bd4 <cvx16_chg_pll_freq+0x72>
    3bc08c28:	4585                	li	a1,1
    3bc08c2a:	fab615e3          	bne	a2,a1,3bc08bd4 <cvx16_chg_pll_freq+0x72>
    3bc08c2e:	fcf7f793          	andi	a5,a5,-49
    3bc08c32:	0107e793          	ori	a5,a5,16
    3bc08c36:	0087171b          	slliw	a4,a4,0x8
    3bc08c3a:	8f3d                	xor	a4,a4,a5
    3bc08c3c:	30077713          	andi	a4,a4,768
    3bc08c40:	8fb9                	xor	a5,a5,a4
    3bc08c42:	c01c                	sw	a5,0(s0)
    3bc08c44:	c6fc                	sw	a5,76(a3)
    3bc08c46:	ef1ff0ef          	jal	ra,3bc08b36 <cvx16_clk_div2>
    3bc08c4a:	b769                	j	3bc08bd4 <cvx16_chg_pll_freq+0x72>
    3bc08c4c:	01092783          	lw	a5,16(s2) # 8006010 <p_rom_api_cryptodma_aes_decrypt+0x3c05f10>
    3bc08c50:	4501                	li	a0,0
    3bc08c52:	c01c                	sw	a5,0(s0)
    3bc08c54:	d36f70ef          	jal	ra,3bc0018a <udelay>
    3bc08c58:	bf69                	j	3bc08bf2 <cvx16_chg_pll_freq+0x90>

000000003bc08c5a <cvx16_ddr_phy_power_on_seq1>:
    3bc08c5a:	080067b7          	lui	a5,0x8006
    3bc08c5e:	43b4                	lw	a3,64(a5)
    3bc08c60:	bf000737          	lui	a4,0xbf000
    3bc08c64:	377d                	addiw	a4,a4,-1
    3bc08c66:	8f75                	and	a4,a4,a3
    3bc08c68:	0000a697          	auipc	a3,0xa
    3bc08c6c:	78868693          	addi	a3,a3,1928 # 3bc133f0 <rddata>
    3bc08c70:	c298                	sw	a4,0(a3)
    3bc08c72:	c3b8                	sw	a4,64(a5)
    3bc08c74:	43b8                	lw	a4,64(a5)
    3bc08c76:	0006a023          	sw	zero,0(a3)
    3bc08c7a:	0407a023          	sw	zero,64(a5) # 8006040 <p_rom_api_cryptodma_aes_decrypt+0x3c05f40>
    3bc08c7e:	4fd8                	lw	a4,28(a5)
    3bc08c80:	2701                	sext.w	a4,a4
    3bc08c82:	08076713          	ori	a4,a4,128
    3bc08c86:	cfd8                	sw	a4,28(a5)
    3bc08c88:	0006a023          	sw	zero,0(a3)
    3bc08c8c:	0007a023          	sw	zero,0(a5)
    3bc08c90:	4fd8                	lw	a4,28(a5)
    3bc08c92:	2701                	sext.w	a4,a4
    3bc08c94:	f7f77713          	andi	a4,a4,-129
    3bc08c98:	c298                	sw	a4,0(a3)
    3bc08c9a:	cfd8                	sw	a4,28(a5)
    3bc08c9c:	8082                	ret

000000003bc08c9e <cvx16_ddr_phy_power_on_seq2>:
    3bc08c9e:	1141                	addi	sp,sp,-16
    3bc08ca0:	e406                	sd	ra,8(sp)
    3bc08ca2:	e022                	sd	s0,0(sp)
    3bc08ca4:	ebfff0ef          	jal	ra,3bc08b62 <cvx16_chg_pll_freq>
    3bc08ca8:	08000737          	lui	a4,0x8000
    3bc08cac:	15472783          	lw	a5,340(a4) # 8000154 <p_rom_api_cryptodma_aes_decrypt+0x3c00054>
    3bc08cb0:	0000a417          	auipc	s0,0xa
    3bc08cb4:	74040413          	addi	s0,s0,1856 # 3bc133f0 <rddata>
    3bc08cb8:	2781                	sext.w	a5,a5
    3bc08cba:	9bf9                	andi	a5,a5,-2
    3bc08cbc:	14f72a23          	sw	a5,340(a4)
    3bc08cc0:	00042023          	sw	zero,0(s0)
    3bc08cc4:	12072823          	sw	zero,304(a4)
    3bc08cc8:	dabff0ef          	jal	ra,3bc08a72 <cvx16_dll_cal>
    3bc08ccc:	080067b7          	lui	a5,0x8006
    3bc08cd0:	80000737          	lui	a4,0x80000
    3bc08cd4:	c3b8                	sw	a4,64(a5)
    3bc08cd6:	00042023          	sw	zero,0(s0)
    3bc08cda:	60a2                	ld	ra,8(sp)
    3bc08cdc:	6402                	ld	s0,0(sp)
    3bc08cde:	0007a023          	sw	zero,0(a5) # 8006000 <p_rom_api_cryptodma_aes_decrypt+0x3c05f00>
    3bc08ce2:	0141                	addi	sp,sp,16
    3bc08ce4:	8082                	ret

000000003bc08ce6 <cvx16_ddr_phy_power_on_seq3>:
    3bc08ce6:	080007b7          	lui	a5,0x8000
    3bc08cea:	10078693          	addi	a3,a5,256 # 8000100 <p_rom_api_cryptodma_aes_decrypt+0x3c00000>
    3bc08cee:	4af8                	lw	a4,84(a3)
    3bc08cf0:	0000a617          	auipc	a2,0xa
    3bc08cf4:	70060613          	addi	a2,a2,1792 # 3bc133f0 <rddata>
    3bc08cf8:	20078793          	addi	a5,a5,512
    3bc08cfc:	2701                	sext.w	a4,a4
    3bc08cfe:	9b79                	andi	a4,a4,-2
    3bc08d00:	caf8                	sw	a4,84(a3)
    3bc08d02:	00062023          	sw	zero,0(a2)
    3bc08d06:	f207a823          	sw	zero,-208(a5)
    3bc08d0a:	43d4                	lw	a3,4(a5)
    3bc08d0c:	000405b7          	lui	a1,0x40
    3bc08d10:	8ecd                	or	a3,a3,a1
    3bc08d12:	c214                	sw	a3,0(a2)
    3bc08d14:	c3d4                	sw	a3,4(a5)
    3bc08d16:	53d8                	lw	a4,36(a5)
    3bc08d18:	8f4d                	or	a4,a4,a1
    3bc08d1a:	c218                	sw	a4,0(a2)
    3bc08d1c:	d3d8                	sw	a4,36(a5)
    3bc08d1e:	8082                	ret

000000003bc08d20 <cvx16_wait_for_dfi_init_complete>:
    3bc08d20:	08004737          	lui	a4,0x8004
    3bc08d24:	0000a697          	auipc	a3,0xa
    3bc08d28:	6cc68693          	addi	a3,a3,1740 # 3bc133f0 <rddata>
    3bc08d2c:	1bc72783          	lw	a5,444(a4) # 80041bc <p_rom_api_cryptodma_aes_decrypt+0x3c040bc>
    3bc08d30:	2781                	sext.w	a5,a5
    3bc08d32:	c29c                	sw	a5,0(a3)
    3bc08d34:	8b85                	andi	a5,a5,1
    3bc08d36:	dbfd                	beqz	a5,3bc08d2c <cvx16_wait_for_dfi_init_complete+0xc>
    3bc08d38:	32072023          	sw	zero,800(a4)
    3bc08d3c:	1b072783          	lw	a5,432(a4)
    3bc08d40:	2781                	sext.w	a5,a5
    3bc08d42:	fc07f793          	andi	a5,a5,-64
    3bc08d46:	0057e793          	ori	a5,a5,5
    3bc08d4a:	c29c                	sw	a5,0(a3)
    3bc08d4c:	1af72823          	sw	a5,432(a4)
    3bc08d50:	4785                	li	a5,1
    3bc08d52:	32f72023          	sw	a5,800(a4)
    3bc08d56:	8082                	ret

000000003bc08d58 <cvx16_polling_dfi_init_start>:
    3bc08d58:	080036b7          	lui	a3,0x8003
    3bc08d5c:	0000a717          	auipc	a4,0xa
    3bc08d60:	69470713          	addi	a4,a4,1684 # 3bc133f0 <rddata>
    3bc08d64:	569c                	lw	a5,40(a3)
    3bc08d66:	2781                	sext.w	a5,a5
    3bc08d68:	c31c                	sw	a5,0(a4)
    3bc08d6a:	1007f793          	andi	a5,a5,256
    3bc08d6e:	dbfd                	beqz	a5,3bc08d64 <cvx16_polling_dfi_init_start+0xc>
    3bc08d70:	8082                	ret

000000003bc08d72 <cvx16_set_dfi_init_complete>:
    3bc08d72:	1141                	addi	sp,sp,-16
    3bc08d74:	4551                	li	a0,20
    3bc08d76:	e406                	sd	ra,8(sp)
    3bc08d78:	c12f70ef          	jal	ra,3bc0018a <udelay>
    3bc08d7c:	080007b7          	lui	a5,0x8000
    3bc08d80:	4741                	li	a4,16
    3bc08d82:	12e7a023          	sw	a4,288(a5) # 8000120 <p_rom_api_cryptodma_aes_decrypt+0x3c00020>
    3bc08d86:	60a2                	ld	ra,8(sp)
    3bc08d88:	4705                	li	a4,1
    3bc08d8a:	0000a697          	auipc	a3,0xa
    3bc08d8e:	66e6a323          	sw	a4,1638(a3) # 3bc133f0 <rddata>
    3bc08d92:	10e7ac23          	sw	a4,280(a5)
    3bc08d96:	0141                	addi	sp,sp,16
    3bc08d98:	8082                	ret

000000003bc08d9a <cvx16_INT_ISR_08>:
    3bc08d9a:	1141                	addi	sp,sp,-16
    3bc08d9c:	e406                	sd	ra,8(sp)
    3bc08d9e:	0000a797          	auipc	a5,0xa
    3bc08da2:	65278793          	addi	a5,a5,1618 # 3bc133f0 <rddata>
    3bc08da6:	0007a023          	sw	zero,0(a5)
    3bc08daa:	08000737          	lui	a4,0x8000
    3bc08dae:	10072c23          	sw	zero,280(a4) # 8000118 <p_rom_api_cryptodma_aes_decrypt+0x3c00018>
    3bc08db2:	08006737          	lui	a4,0x8006
    3bc08db6:	4778                	lw	a4,76(a4)
    3bc08db8:	c398                	sw	a4,0(a5)
    3bc08dba:	ee5ff0ef          	jal	ra,3bc08c9e <cvx16_ddr_phy_power_on_seq2>
    3bc08dbe:	60a2                	ld	ra,8(sp)
    3bc08dc0:	0141                	addi	sp,sp,16
    3bc08dc2:	fb1ff06f          	j	3bc08d72 <cvx16_set_dfi_init_complete>

000000003bc08dc6 <cvx16_polling_synp_normal_mode>:
    3bc08dc6:	08004637          	lui	a2,0x8004
    3bc08dca:	0000a697          	auipc	a3,0xa
    3bc08dce:	62668693          	addi	a3,a3,1574 # 3bc133f0 <rddata>
    3bc08dd2:	4705                	li	a4,1
    3bc08dd4:	425c                	lw	a5,4(a2)
    3bc08dd6:	2781                	sext.w	a5,a5
    3bc08dd8:	c29c                	sw	a5,0(a3)
    3bc08dda:	8b9d                	andi	a5,a5,7
    3bc08ddc:	fee79ce3          	bne	a5,a4,3bc08dd4 <cvx16_polling_synp_normal_mode+0xe>
    3bc08de0:	8082                	ret

000000003bc08de2 <cvx16_dfi_ca_park_prbs>:
    3bc08de2:	4785                	li	a5,1
    3bc08de4:	0000a717          	auipc	a4,0xa
    3bc08de8:	60c70713          	addi	a4,a4,1548 # 3bc133f0 <rddata>
    3bc08dec:	080006b7          	lui	a3,0x8000
    3bc08df0:	c31c                	sw	a5,0(a4)
    3bc08df2:	16f6aa23          	sw	a5,372(a3) # 8000174 <p_rom_api_cryptodma_aes_decrypt+0x3c00074>
    3bc08df6:	08003637          	lui	a2,0x8003
    3bc08dfa:	468d                	li	a3,3
    3bc08dfc:	5a1c                	lw	a5,48(a2)
    3bc08dfe:	2781                	sext.w	a5,a5
    3bc08e00:	c31c                	sw	a5,0(a4)
    3bc08e02:	2487b78b          	extu	a5,a5,9,8
    3bc08e06:	fed79be3          	bne	a5,a3,3bc08dfc <cvx16_dfi_ca_park_prbs+0x1a>
    3bc08e0a:	4785                	li	a5,1
    3bc08e0c:	02f51a63          	bne	a0,a5,3bc08e40 <cvx16_dfi_ca_park_prbs+0x5e>
    3bc08e10:	0800a7b7          	lui	a5,0x800a
    3bc08e14:	46ed                	li	a3,27
    3bc08e16:	c394                	sw	a3,0(a5)
    3bc08e18:	0800a7b7          	lui	a5,0x800a
    3bc08e1c:	4685                	li	a3,1
    3bc08e1e:	c3d4                	sw	a3,4(a5)
    3bc08e20:	020006b7          	lui	a3,0x2000
    3bc08e24:	fcb68693          	addi	a3,a3,-53 # 1ffffcb <__BSS_SIZE__+0x1ffa3bb>
    3bc08e28:	c794                	sw	a3,8(a5)
    3bc08e2a:	400006b7          	lui	a3,0x40000
    3bc08e2e:	16fd                	addi	a3,a3,-1
    3bc08e30:	c7d4                	sw	a3,12(a5)
    3bc08e32:	47c1                	li	a5,16
    3bc08e34:	c31c                	sw	a5,0(a4)
    3bc08e36:	08000737          	lui	a4,0x8000
    3bc08e3a:	16f72a23          	sw	a5,372(a4) # 8000174 <p_rom_api_cryptodma_aes_decrypt+0x3c00074>
    3bc08e3e:	8082                	ret
    3bc08e40:	0800a7b7          	lui	a5,0x800a
    3bc08e44:	0007a023          	sw	zero,0(a5) # 800a000 <p_rom_api_cryptodma_aes_decrypt+0x3c09f00>
    3bc08e48:	bfc1                	j	3bc08e18 <cvx16_dfi_ca_park_prbs+0x36>

000000003bc08e4a <cvx16_wrlvl_req>:
    3bc08e4a:	8082                	ret

000000003bc08e4c <cvx16_setting_check>:
    3bc08e4c:	08004737          	lui	a4,0x8004
    3bc08e50:	080037b7          	lui	a5,0x8003
    3bc08e54:	439c                	lw	a5,0(a5)
    3bc08e56:	19072683          	lw	a3,400(a4) # 8004190 <p_rom_api_cryptodma_aes_decrypt+0x3c04090>
    3bc08e5a:	0000a797          	auipc	a5,0xa
    3bc08e5e:	59678793          	addi	a5,a5,1430 # 3bc133f0 <rddata>
    3bc08e62:	c394                	sw	a3,0(a5)
    3bc08e64:	19472703          	lw	a4,404(a4)
    3bc08e68:	c398                	sw	a4,0(a5)
    3bc08e6a:	8082                	ret

000000003bc08e6c <cvx16_set_dfi_init_start>:
    3bc08e6c:	08004737          	lui	a4,0x8004
    3bc08e70:	32072023          	sw	zero,800(a4) # 8004320 <p_rom_api_cryptodma_aes_decrypt+0x3c04220>
    3bc08e74:	1b072783          	lw	a5,432(a4)
    3bc08e78:	2781                	sext.w	a5,a5
    3bc08e7a:	0207e793          	ori	a5,a5,32
    3bc08e7e:	0000a697          	auipc	a3,0xa
    3bc08e82:	56f6a923          	sw	a5,1394(a3) # 3bc133f0 <rddata>
    3bc08e86:	1af72823          	sw	a5,432(a4)
    3bc08e8a:	4785                	li	a5,1
    3bc08e8c:	32f72023          	sw	a5,800(a4)
    3bc08e90:	8082                	ret

000000003bc08e92 <cvx16_pll_init>:
    3bc08e92:	08006737          	lui	a4,0x8006
    3bc08e96:	000807b7          	lui	a5,0x80
    3bc08e9a:	02072423          	sw	zero,40(a4) # 8006028 <p_rom_api_cryptodma_aes_decrypt+0x3c05f28>
    3bc08e9e:	0785                	addi	a5,a5,1
    3bc08ea0:	030036b7          	lui	a3,0x3003
    3bc08ea4:	cb7c                	sw	a5,84(a4)
    3bc08ea6:	90068693          	addi	a3,a3,-1792 # 3002900 <__BSS_SIZE__+0x2ffccf0>
    3bc08eaa:	0000a797          	auipc	a5,0xa
    3bc08eae:	51e7a783          	lw	a5,1310(a5) # 3bc133c8 <reg_set>
    3bc08eb2:	cafc                	sw	a5,84(a3)
    3bc08eb4:	0000a797          	auipc	a5,0xa
    3bc08eb8:	51c7d783          	lhu	a5,1308(a5) # 3bc133d0 <reg_span>
    3bc08ebc:	cebc                	sw	a5,88(a3)
    3bc08ebe:	0000a797          	auipc	a5,0xa
    3bc08ec2:	51a7b783          	ld	a5,1306(a5) # 3bc133d8 <reg_step>
    3bc08ec6:	5c07b78b          	extu	a5,a5,23,0
    3bc08eca:	0000a617          	auipc	a2,0xa
    3bc08ece:	52660613          	addi	a2,a2,1318 # 3bc133f0 <rddata>
    3bc08ed2:	2781                	sext.w	a5,a5
    3bc08ed4:	c21c                	sw	a5,0(a2)
    3bc08ed6:	cefc                	sw	a5,92(a3)
    3bc08ed8:	4abc                	lw	a5,80(a3)
    3bc08eda:	2781                	sext.w	a5,a5
    3bc08edc:	0017c793          	xori	a5,a5,1
    3bc08ee0:	fa17f793          	andi	a5,a5,-95
    3bc08ee4:	0207e793          	ori	a5,a5,32
    3bc08ee8:	c21c                	sw	a5,0(a2)
    3bc08eea:	cabc                	sw	a5,80(a3)
    3bc08eec:	475c                	lw	a5,12(a4)
    3bc08eee:	2781                	sext.w	a5,a5
    3bc08ef0:	30b7c693          	xori	a3,a5,779
    3bc08ef4:	3c06b68b          	extu	a3,a3,15,0
    3bc08ef8:	8fb5                	xor	a5,a5,a3
    3bc08efa:	c21c                	sw	a5,0(a2)
    3bc08efc:	c75c                	sw	a5,12(a4)
    3bc08efe:	4b1c                	lw	a5,16(a4)
    3bc08f00:	080066b7          	lui	a3,0x8006
    3bc08f04:	2781                	sext.w	a5,a5
    3bc08f06:	f007f793          	andi	a5,a5,-256
    3bc08f0a:	cb1c                	sw	a5,16(a4)
    3bc08f0c:	4785                	li	a5,1
    3bc08f0e:	c21c                	sw	a5,0(a2)
    3bc08f10:	c35c                	sw	a5,4(a4)
    3bc08f12:	475c                	lw	a5,12(a4)
    3bc08f14:	2781                	sext.w	a5,a5
    3bc08f16:	0807e793          	ori	a5,a5,128
    3bc08f1a:	c21c                	sw	a5,0(a2)
    3bc08f1c:	c75c                	sw	a5,12(a4)
    3bc08f1e:	6721                	lui	a4,0x8
    3bc08f20:	4a9c                	lw	a5,16(a3)
    3bc08f22:	2781                	sext.w	a5,a5
    3bc08f24:	c21c                	sw	a5,0(a2)
    3bc08f26:	8ff9                	and	a5,a5,a4
    3bc08f28:	2781                	sext.w	a5,a5
    3bc08f2a:	dbfd                	beqz	a5,3bc08f20 <cvx16_pll_init+0x8e>
    3bc08f2c:	8082                	ret

000000003bc08f2e <cvx16_clk_gating_disable>:
    3bc08f2e:	6785                	lui	a5,0x1
    3bc08f30:	08006737          	lui	a4,0x8006
    3bc08f34:	2f578793          	addi	a5,a5,757 # 12f5 <__BSS_SIZE__-0x491b>
    3bc08f38:	c37c                	sw	a5,68(a4)
    3bc08f3a:	0000a697          	auipc	a3,0xa
    3bc08f3e:	4b668693          	addi	a3,a3,1206 # 3bc133f0 <rddata>
    3bc08f42:	0006a023          	sw	zero,0(a3)
    3bc08f46:	080007b7          	lui	a5,0x8000
    3bc08f4a:	0e07aa23          	sw	zero,244(a5) # 80000f4 <p_rom_api_cryptodma_aes_decrypt+0x3bffff4>
    3bc08f4e:	080047b7          	lui	a5,0x8004
    3bc08f52:	5b98                	lw	a4,48(a5)
    3bc08f54:	767d                	lui	a2,0xfffff
    3bc08f56:	5ff60613          	addi	a2,a2,1535 # fffffffffffff5ff <__BL2_END__+0xffffffffc43ec1ef>
    3bc08f5a:	2701                	sext.w	a4,a4
    3bc08f5c:	8f71                	and	a4,a4,a2
    3bc08f5e:	c298                	sw	a4,0(a3)
    3bc08f60:	db98                	sw	a4,48(a5)
    3bc08f62:	10078793          	addi	a5,a5,256 # 8004100 <p_rom_api_cryptodma_aes_decrypt+0x3c04000>
    3bc08f66:	47b8                	lw	a4,72(a5)
    3bc08f68:	7f800637          	lui	a2,0x7f800
    3bc08f6c:	167d                	addi	a2,a2,-1
    3bc08f6e:	2701                	sext.w	a4,a4
    3bc08f70:	8f71                	and	a4,a4,a2
    3bc08f72:	c298                	sw	a4,0(a3)
    3bc08f74:	c7b8                	sw	a4,72(a5)
    3bc08f76:	8082                	ret

000000003bc08f78 <cvx16_clk_gating_enable>:
    3bc08f78:	679d                	lui	a5,0x7
    3bc08f7a:	0000a617          	auipc	a2,0xa
    3bc08f7e:	47660613          	addi	a2,a2,1142 # 3bc133f0 <rddata>
    3bc08f82:	c8178793          	addi	a5,a5,-895 # 6c81 <__BSS_SIZE__+0x1071>
    3bc08f86:	c21c                	sw	a5,0(a2)
    3bc08f88:	08006737          	lui	a4,0x8006
    3bc08f8c:	c37c                	sw	a5,68(a4)
    3bc08f8e:	08004737          	lui	a4,0x8004
    3bc08f92:	18070593          	addi	a1,a4,384 # 8004180 <p_rom_api_cryptodma_aes_decrypt+0x3c04080>
    3bc08f96:	499c                	lw	a5,16(a1)
    3bc08f98:	060006b7          	lui	a3,0x6000
    3bc08f9c:	1f000537          	lui	a0,0x1f000
    3bc08fa0:	2781                	sext.w	a5,a5
    3bc08fa2:	8ebd                	xor	a3,a3,a5
    3bc08fa4:	8ee9                	and	a3,a3,a0
    3bc08fa6:	8fb5                	xor	a5,a5,a3
    3bc08fa8:	2781                	sext.w	a5,a5
    3bc08faa:	c99c                	sw	a5,16(a1)
    3bc08fac:	000307b7          	lui	a5,0x30
    3bc08fb0:	03378793          	addi	a5,a5,51 # 30033 <__BSS_SIZE__+0x2a423>
    3bc08fb4:	c21c                	sw	a5,0(a2)
    3bc08fb6:	080006b7          	lui	a3,0x8000
    3bc08fba:	0ef6aa23          	sw	a5,244(a3) # 80000f4 <p_rom_api_cryptodma_aes_decrypt+0x3bffff4>
    3bc08fbe:	5b1c                	lw	a5,48(a4)
    3bc08fc0:	76fd                	lui	a3,0xfffff
    3bc08fc2:	bff68693          	addi	a3,a3,-1025 # ffffffffffffebff <__BL2_END__+0xffffffffc43eb7ef>
    3bc08fc6:	2781                	sext.w	a5,a5
    3bc08fc8:	8ff5                	and	a5,a5,a3
    3bc08fca:	6685                	lui	a3,0x1
    3bc08fcc:	a0068693          	addi	a3,a3,-1536 # a00 <__BSS_SIZE__-0x5210>
    3bc08fd0:	8fd5                	or	a5,a5,a3
    3bc08fd2:	c21c                	sw	a5,0(a2)
    3bc08fd4:	db1c                	sw	a5,48(a4)
    3bc08fd6:	10070713          	addi	a4,a4,256
    3bc08fda:	473c                	lw	a5,72(a4)
    3bc08fdc:	808006b7          	lui	a3,0x80800
    3bc08fe0:	8fd5                	or	a5,a5,a3
    3bc08fe2:	c21c                	sw	a5,0(a2)
    3bc08fe4:	c73c                	sw	a5,72(a4)
    3bc08fe6:	8082                	ret

000000003bc08fe8 <cvx16_rdglvl_req>:
    3bc08fe8:	1101                	addi	sp,sp,-32
    3bc08fea:	e426                	sd	s1,8(sp)
    3bc08fec:	ec06                	sd	ra,24(sp)
    3bc08fee:	e822                	sd	s0,16(sp)
    3bc08ff0:	e04a                	sd	s2,0(sp)
    3bc08ff2:	080047b7          	lui	a5,0x8004
    3bc08ff6:	5407a023          	sw	zero,1344(a5) # 8004540 <p_rom_api_cryptodma_aes_decrypt+0x3c04440>
    3bc08ffa:	5e07a823          	sw	zero,1520(a5)
    3bc08ffe:	6a07a023          	sw	zero,1696(a5)
    3bc09002:	08004737          	lui	a4,0x8004
    3bc09006:	0000a497          	auipc	s1,0xa
    3bc0900a:	3ea48493          	addi	s1,s1,1002 # 3bc133f0 <rddata>
    3bc0900e:	3fc72783          	lw	a5,1020(a4) # 80043fc <p_rom_api_cryptodma_aes_decrypt+0x3c042fc>
    3bc09012:	2781                	sext.w	a5,a5
    3bc09014:	c09c                	sw	a5,0(s1)
    3bc09016:	ffe5                	bnez	a5,3bc0900e <cvx16_rdglvl_req+0x26>
    3bc09018:	5b1c                	lw	a5,48(a4)
    3bc0901a:	0007841b          	sext.w	s0,a5
    3bc0901e:	fd447693          	andi	a3,s0,-44
    3bc09022:	c094                	sw	a3,0(s1)
    3bc09024:	db14                	sw	a3,48(a4)
    3bc09026:	0017f913          	andi	s2,a5,1
    3bc0902a:	f05ff0ef          	jal	ra,3bc08f2e <cvx16_clk_gating_disable>
    3bc0902e:	ef4ff0ef          	jal	ra,3bc08722 <cvx16_bist_rdglvl_init>
    3bc09032:	080006b7          	lui	a3,0x8000
    3bc09036:	1846a703          	lw	a4,388(a3) # 8000184 <p_rom_api_cryptodma_aes_decrypt+0x3c00084>
    3bc0903a:	080037b7          	lui	a5,0x8003
    3bc0903e:	2701                	sext.w	a4,a4
    3bc09040:	00176713          	ori	a4,a4,1
    3bc09044:	c098                	sw	a4,0(s1)
    3bc09046:	18e6a223          	sw	a4,388(a3)
    3bc0904a:	4447a703          	lw	a4,1092(a5) # 8003444 <p_rom_api_cryptodma_aes_decrypt+0x3c03344>
    3bc0904e:	2701                	sext.w	a4,a4
    3bc09050:	c098                	sw	a4,0(s1)
    3bc09052:	8b09                	andi	a4,a4,2
    3bc09054:	db7d                	beqz	a4,3bc0904a <cvx16_rdglvl_req+0x62>
    3bc09056:	080107b7          	lui	a5,0x8010
    3bc0905a:	00040737          	lui	a4,0x40
    3bc0905e:	c398                	sw	a4,0(a5)
    3bc09060:	080046b7          	lui	a3,0x8004
    3bc09064:	5a98                	lw	a4,48(a3)
    3bc09066:	60e2                	ld	ra,24(sp)
    3bc09068:	2701                	sext.w	a4,a4
    3bc0906a:	00874633          	xor	a2,a4,s0
    3bc0906e:	02067613          	andi	a2,a2,32
    3bc09072:	8f31                	xor	a4,a4,a2
    3bc09074:	00874633          	xor	a2,a4,s0
    3bc09078:	8a21                	andi	a2,a2,8
    3bc0907a:	8f31                	xor	a4,a4,a2
    3bc0907c:	008747b3          	xor	a5,a4,s0
    3bc09080:	8b89                	andi	a5,a5,2
    3bc09082:	8fb9                	xor	a5,a5,a4
    3bc09084:	9bf9                	andi	a5,a5,-2
    3bc09086:	0127e7b3          	or	a5,a5,s2
    3bc0908a:	c09c                	sw	a5,0(s1)
    3bc0908c:	da9c                	sw	a5,48(a3)
    3bc0908e:	50068713          	addi	a4,a3,1280 # 8004500 <p_rom_api_cryptodma_aes_decrypt+0x3c04400>
    3bc09092:	4785                	li	a5,1
    3bc09094:	c33c                	sw	a5,64(a4)
    3bc09096:	6442                	ld	s0,16(sp)
    3bc09098:	58068713          	addi	a4,a3,1408
    3bc0909c:	64a2                	ld	s1,8(sp)
    3bc0909e:	6902                	ld	s2,0(sp)
    3bc090a0:	db3c                	sw	a5,112(a4)
    3bc090a2:	68068693          	addi	a3,a3,1664
    3bc090a6:	d29c                	sw	a5,32(a3)
    3bc090a8:	6105                	addi	sp,sp,32
    3bc090aa:	ecfff06f          	j	3bc08f78 <cvx16_clk_gating_enable>

000000003bc090ae <cvx16_rdlvl_req>:
    3bc090ae:	7139                	addi	sp,sp,-64
    3bc090b0:	f426                	sd	s1,40(sp)
    3bc090b2:	e456                	sd	s5,8(sp)
    3bc090b4:	fc06                	sd	ra,56(sp)
    3bc090b6:	f822                	sd	s0,48(sp)
    3bc090b8:	f04a                	sd	s2,32(sp)
    3bc090ba:	ec4e                	sd	s3,24(sp)
    3bc090bc:	e852                	sd	s4,16(sp)
    3bc090be:	080047b7          	lui	a5,0x8004
    3bc090c2:	5407a023          	sw	zero,1344(a5) # 8004540 <p_rom_api_cryptodma_aes_decrypt+0x3c04440>
    3bc090c6:	5e07a823          	sw	zero,1520(a5)
    3bc090ca:	8aaa                	mv	s5,a0
    3bc090cc:	6a07a023          	sw	zero,1696(a5)
    3bc090d0:	08004737          	lui	a4,0x8004
    3bc090d4:	0000a497          	auipc	s1,0xa
    3bc090d8:	31c48493          	addi	s1,s1,796 # 3bc133f0 <rddata>
    3bc090dc:	3fc72783          	lw	a5,1020(a4) # 80043fc <p_rom_api_cryptodma_aes_decrypt+0x3c042fc>
    3bc090e0:	2781                	sext.w	a5,a5
    3bc090e2:	c09c                	sw	a5,0(s1)
    3bc090e4:	ffe5                	bnez	a5,3bc090dc <cvx16_rdlvl_req+0x2e>
    3bc090e6:	5b1c                	lw	a5,48(a4)
    3bc090e8:	080009b7          	lui	s3,0x8000
    3bc090ec:	0007891b          	sext.w	s2,a5
    3bc090f0:	0017f413          	andi	s0,a5,1
    3bc090f4:	fd497793          	andi	a5,s2,-44
    3bc090f8:	c09c                	sw	a5,0(s1)
    3bc090fa:	db1c                	sw	a5,48(a4)
    3bc090fc:	e33ff0ef          	jal	ra,3bc08f2e <cvx16_clk_gating_disable>
    3bc09100:	4505                	li	a0,1
    3bc09102:	ce1ff0ef          	jal	ra,3bc08de2 <cvx16_dfi_ca_park_prbs>
    3bc09106:	08098693          	addi	a3,s3,128 # 8000080 <p_rom_api_cryptodma_aes_decrypt+0x3bfff80>
    3bc0910a:	4298                	lw	a4,0(a3)
    3bc0910c:	002007b7          	lui	a5,0x200
    3bc09110:	007f0637          	lui	a2,0x7f0
    3bc09114:	2701                	sext.w	a4,a4
    3bc09116:	8fb9                	xor	a5,a5,a4
    3bc09118:	8ff1                	and	a5,a5,a2
    3bc0911a:	8f3d                	xor	a4,a4,a5
    3bc0911c:	2701                	sext.w	a4,a4
    3bc0911e:	1f0007b7          	lui	a5,0x1f000
    3bc09122:	8fb9                	xor	a5,a5,a4
    3bc09124:	7f000637          	lui	a2,0x7f000
    3bc09128:	8ff1                	and	a5,a5,a2
    3bc0912a:	8f3d                	xor	a4,a4,a5
    3bc0912c:	2701                	sext.w	a4,a4
    3bc0912e:	c098                	sw	a4,0(s1)
    3bc09130:	c298                	sw	a4,0(a3)
    3bc09132:	46dc                	lw	a5,12(a3)
    3bc09134:	8556                	mv	a0,s5
    3bc09136:	0007871b          	sext.w	a4,a5
    3bc0913a:	0827ba0b          	extu	s4,a5,2,2
    3bc0913e:	ff177793          	andi	a5,a4,-15
    3bc09142:	c09c                	sw	a5,0(s1)
    3bc09144:	c6dc                	sw	a5,12(a3)
    3bc09146:	e22ff0ef          	jal	ra,3bc08768 <cvx16_bist_rdlvl_init>
    3bc0914a:	1889a783          	lw	a5,392(s3)
    3bc0914e:	08003737          	lui	a4,0x8003
    3bc09152:	2781                	sext.w	a5,a5
    3bc09154:	0017e793          	ori	a5,a5,1
    3bc09158:	c09c                	sw	a5,0(s1)
    3bc0915a:	18f9a423          	sw	a5,392(s3)
    3bc0915e:	44472783          	lw	a5,1092(a4) # 8003444 <p_rom_api_cryptodma_aes_decrypt+0x3c03344>
    3bc09162:	2781                	sext.w	a5,a5
    3bc09164:	c09c                	sw	a5,0(s1)
    3bc09166:	8b91                	andi	a5,a5,4
    3bc09168:	dbfd                	beqz	a5,3bc0915e <cvx16_rdlvl_req+0xb0>
    3bc0916a:	040a0563          	beqz	s4,3bc091b4 <cvx16_rdlvl_req+0x106>
    3bc0916e:	08000737          	lui	a4,0x8000
    3bc09172:	08070693          	addi	a3,a4,128 # 8000080 <p_rom_api_cryptodma_aes_decrypt+0x3bfff80>
    3bc09176:	46dc                	lw	a5,12(a3)
    3bc09178:	18070713          	addi	a4,a4,384
    3bc0917c:	2781                	sext.w	a5,a5
    3bc0917e:	9bed                	andi	a5,a5,-5
    3bc09180:	c09c                	sw	a5,0(s1)
    3bc09182:	c6dc                	sw	a5,12(a3)
    3bc09184:	471c                	lw	a5,8(a4)
    3bc09186:	2781                	sext.w	a5,a5
    3bc09188:	0017e793          	ori	a5,a5,1
    3bc0918c:	c09c                	sw	a5,0(s1)
    3bc0918e:	c71c                	sw	a5,8(a4)
    3bc09190:	08003737          	lui	a4,0x8003
    3bc09194:	44472783          	lw	a5,1092(a4) # 8003444 <p_rom_api_cryptodma_aes_decrypt+0x3c03344>
    3bc09198:	2781                	sext.w	a5,a5
    3bc0919a:	c09c                	sw	a5,0(s1)
    3bc0919c:	8b91                	andi	a5,a5,4
    3bc0919e:	dbfd                	beqz	a5,3bc09194 <cvx16_rdlvl_req+0xe6>
    3bc091a0:	08000737          	lui	a4,0x8000
    3bc091a4:	08c72783          	lw	a5,140(a4) # 800008c <p_rom_api_cryptodma_aes_decrypt+0x3bfff8c>
    3bc091a8:	2781                	sext.w	a5,a5
    3bc091aa:	0047e793          	ori	a5,a5,4
    3bc091ae:	c09c                	sw	a5,0(s1)
    3bc091b0:	08f72623          	sw	a5,140(a4)
    3bc091b4:	819ff0ef          	jal	ra,3bc089cc <cvx16_rdvld_train>
    3bc091b8:	080107b7          	lui	a5,0x8010
    3bc091bc:	00040737          	lui	a4,0x40
    3bc091c0:	c398                	sw	a4,0(a5)
    3bc091c2:	4501                	li	a0,0
    3bc091c4:	c1fff0ef          	jal	ra,3bc08de2 <cvx16_dfi_ca_park_prbs>
    3bc091c8:	08004737          	lui	a4,0x8004
    3bc091cc:	5b1c                	lw	a5,48(a4)
    3bc091ce:	70e2                	ld	ra,56(sp)
    3bc091d0:	69e2                	ld	s3,24(sp)
    3bc091d2:	2781                	sext.w	a5,a5
    3bc091d4:	0127c6b3          	xor	a3,a5,s2
    3bc091d8:	0206f693          	andi	a3,a3,32
    3bc091dc:	8fb5                	xor	a5,a5,a3
    3bc091de:	0127c6b3          	xor	a3,a5,s2
    3bc091e2:	8aa1                	andi	a3,a3,8
    3bc091e4:	8fb5                	xor	a5,a5,a3
    3bc091e6:	0127c933          	xor	s2,a5,s2
    3bc091ea:	00297913          	andi	s2,s2,2
    3bc091ee:	0127c7b3          	xor	a5,a5,s2
    3bc091f2:	9bf9                	andi	a5,a5,-2
    3bc091f4:	8fc1                	or	a5,a5,s0
    3bc091f6:	c09c                	sw	a5,0(s1)
    3bc091f8:	db1c                	sw	a5,48(a4)
    3bc091fa:	50070693          	addi	a3,a4,1280 # 8004500 <p_rom_api_cryptodma_aes_decrypt+0x3c04400>
    3bc091fe:	4785                	li	a5,1
    3bc09200:	c2bc                	sw	a5,64(a3)
    3bc09202:	7442                	ld	s0,48(sp)
    3bc09204:	58070693          	addi	a3,a4,1408
    3bc09208:	74a2                	ld	s1,40(sp)
    3bc0920a:	7902                	ld	s2,32(sp)
    3bc0920c:	6a42                	ld	s4,16(sp)
    3bc0920e:	6aa2                	ld	s5,8(sp)
    3bc09210:	dabc                	sw	a5,112(a3)
    3bc09212:	68070713          	addi	a4,a4,1664
    3bc09216:	d31c                	sw	a5,32(a4)
    3bc09218:	6121                	addi	sp,sp,64
    3bc0921a:	d5fff06f          	j	3bc08f78 <cvx16_clk_gating_enable>

000000003bc0921e <cvx16_wdqlvl_req>:
    3bc0921e:	7179                	addi	sp,sp,-48
    3bc09220:	e84a                	sd	s2,16(sp)
    3bc09222:	e44e                	sd	s3,8(sp)
    3bc09224:	e052                	sd	s4,0(sp)
    3bc09226:	f406                	sd	ra,40(sp)
    3bc09228:	f022                	sd	s0,32(sp)
    3bc0922a:	ec26                	sd	s1,24(sp)
    3bc0922c:	080047b7          	lui	a5,0x8004
    3bc09230:	5407a023          	sw	zero,1344(a5) # 8004540 <p_rom_api_cryptodma_aes_decrypt+0x3c04440>
    3bc09234:	5e07a823          	sw	zero,1520(a5)
    3bc09238:	89aa                	mv	s3,a0
    3bc0923a:	8a2e                	mv	s4,a1
    3bc0923c:	6a07a023          	sw	zero,1696(a5)
    3bc09240:	08004737          	lui	a4,0x8004
    3bc09244:	0000a917          	auipc	s2,0xa
    3bc09248:	1ac90913          	addi	s2,s2,428 # 3bc133f0 <rddata>
    3bc0924c:	3fc72783          	lw	a5,1020(a4) # 80043fc <p_rom_api_cryptodma_aes_decrypt+0x3c042fc>
    3bc09250:	2781                	sext.w	a5,a5
    3bc09252:	00f92023          	sw	a5,0(s2)
    3bc09256:	fbfd                	bnez	a5,3bc0924c <cvx16_wdqlvl_req+0x2e>
    3bc09258:	5b1c                	lw	a5,48(a4)
    3bc0925a:	0007849b          	sext.w	s1,a5
    3bc0925e:	0017f413          	andi	s0,a5,1
    3bc09262:	fd44f793          	andi	a5,s1,-44
    3bc09266:	00f92023          	sw	a5,0(s2)
    3bc0926a:	db1c                	sw	a5,48(a4)
    3bc0926c:	cc3ff0ef          	jal	ra,3bc08f2e <cvx16_clk_gating_disable>
    3bc09270:	4505                	li	a0,1
    3bc09272:	b71ff0ef          	jal	ra,3bc08de2 <cvx16_dfi_ca_park_prbs>
    3bc09276:	080007b7          	lui	a5,0x8000
    3bc0927a:	0bc7a703          	lw	a4,188(a5) # 80000bc <p_rom_api_cryptodma_aes_decrypt+0x3bfffbc>
    3bc0927e:	2701                	sext.w	a4,a4
    3bc09280:	000a1863          	bnez	s4,3bc09290 <cvx16_wdqlvl_req+0x72>
    3bc09284:	77fd                	lui	a5,0xfffff
    3bc09286:	17fd                	addi	a5,a5,-1
    3bc09288:	8f7d                	and	a4,a4,a5
    3bc0928a:	6789                	lui	a5,0x2
    3bc0928c:	8f5d                	or	a4,a4,a5
    3bc0928e:	a821                	j	3bc092a6 <cvx16_wdqlvl_req+0x88>
    3bc09290:	4785                	li	a5,1
    3bc09292:	00fa1763          	bne	s4,a5,3bc092a0 <cvx16_wdqlvl_req+0x82>
    3bc09296:	77f9                	lui	a5,0xffffe
    3bc09298:	17fd                	addi	a5,a5,-1
    3bc0929a:	8f7d                	and	a4,a4,a5
    3bc0929c:	6785                	lui	a5,0x1
    3bc0929e:	b7fd                	j	3bc0928c <cvx16_wdqlvl_req+0x6e>
    3bc092a0:	4789                	li	a5,2
    3bc092a2:	0efa0963          	beq	s4,a5,3bc09394 <cvx16_wdqlvl_req+0x176>
    3bc092a6:	00e92023          	sw	a4,0(s2)
    3bc092aa:	00092703          	lw	a4,0(s2)
    3bc092ae:	080007b7          	lui	a5,0x8000
    3bc092b2:	0ae7ae23          	sw	a4,188(a5) # 80000bc <p_rom_api_cryptodma_aes_decrypt+0x3bfffbc>
    3bc092b6:	0e0a1163          	bnez	s4,3bc09398 <cvx16_wdqlvl_req+0x17a>
    3bc092ba:	08004737          	lui	a4,0x8004
    3bc092be:	475c                	lw	a5,12(a4)
    3bc092c0:	2781                	sext.w	a5,a5
    3bc092c2:	0807e793          	ori	a5,a5,128
    3bc092c6:	00f92023          	sw	a5,0(s2)
    3bc092ca:	c75c                	sw	a5,12(a4)
    3bc092cc:	e36ff0ef          	jal	ra,3bc08902 <cvx16_bist_wdmlvl_init>
    3bc092d0:	080007b7          	lui	a5,0x8000
    3bc092d4:	18c7a783          	lw	a5,396(a5) # 800018c <p_rom_api_cryptodma_aes_decrypt+0x3c0008c>
    3bc092d8:	2781                	sext.w	a5,a5
    3bc092da:	4017e693          	ori	a3,a5,1025
    3bc092de:	000a1663          	bnez	s4,3bc092ea <cvx16_wdqlvl_req+0xcc>
    3bc092e2:	bff7f793          	andi	a5,a5,-1025
    3bc092e6:	0017e693          	ori	a3,a5,1
    3bc092ea:	4785                	li	a5,1
    3bc092ec:	00f98763          	beq	s3,a5,3bc092fa <cvx16_wdqlvl_req+0xdc>
    3bc092f0:	39bd                	addiw	s3,s3,-17
    3bc092f2:	fef6f713          	andi	a4,a3,-17
    3bc092f6:	0137e463          	bltu	a5,s3,3bc092fe <cvx16_wdqlvl_req+0xe0>
    3bc092fa:	0106e713          	ori	a4,a3,16
    3bc092fe:	00e92023          	sw	a4,0(s2)
    3bc09302:	080007b7          	lui	a5,0x8000
    3bc09306:	18e7a623          	sw	a4,396(a5) # 800018c <p_rom_api_cryptodma_aes_decrypt+0x3c0008c>
    3bc0930a:	08003737          	lui	a4,0x8003
    3bc0930e:	44472783          	lw	a5,1092(a4) # 8003444 <p_rom_api_cryptodma_aes_decrypt+0x3c03344>
    3bc09312:	2781                	sext.w	a5,a5
    3bc09314:	00f92023          	sw	a5,0(s2)
    3bc09318:	8ba1                	andi	a5,a5,8
    3bc0931a:	dbf5                	beqz	a5,3bc0930e <cvx16_wdqlvl_req+0xf0>
    3bc0931c:	080049b7          	lui	s3,0x8004
    3bc09320:	00c9a783          	lw	a5,12(s3) # 800400c <p_rom_api_cryptodma_aes_decrypt+0x3c03f0c>
    3bc09324:	00040737          	lui	a4,0x40
    3bc09328:	4501                	li	a0,0
    3bc0932a:	2781                	sext.w	a5,a5
    3bc0932c:	f7f7f793          	andi	a5,a5,-129
    3bc09330:	00f92023          	sw	a5,0(s2)
    3bc09334:	00f9a623          	sw	a5,12(s3)
    3bc09338:	080107b7          	lui	a5,0x8010
    3bc0933c:	c398                	sw	a4,0(a5)
    3bc0933e:	aa5ff0ef          	jal	ra,3bc08de2 <cvx16_dfi_ca_park_prbs>
    3bc09342:	0309a783          	lw	a5,48(s3)
    3bc09346:	70a2                	ld	ra,40(sp)
    3bc09348:	6a02                	ld	s4,0(sp)
    3bc0934a:	2781                	sext.w	a5,a5
    3bc0934c:	0097c733          	xor	a4,a5,s1
    3bc09350:	02077713          	andi	a4,a4,32
    3bc09354:	8fb9                	xor	a5,a5,a4
    3bc09356:	0097c733          	xor	a4,a5,s1
    3bc0935a:	8b21                	andi	a4,a4,8
    3bc0935c:	8fb9                	xor	a5,a5,a4
    3bc0935e:	8cbd                	xor	s1,s1,a5
    3bc09360:	8889                	andi	s1,s1,2
    3bc09362:	8fa5                	xor	a5,a5,s1
    3bc09364:	9bf9                	andi	a5,a5,-2
    3bc09366:	8fc1                	or	a5,a5,s0
    3bc09368:	00f92023          	sw	a5,0(s2)
    3bc0936c:	02f9a823          	sw	a5,48(s3)
    3bc09370:	50098713          	addi	a4,s3,1280
    3bc09374:	4785                	li	a5,1
    3bc09376:	c33c                	sw	a5,64(a4)
    3bc09378:	58098713          	addi	a4,s3,1408
    3bc0937c:	7402                	ld	s0,32(sp)
    3bc0937e:	db3c                	sw	a5,112(a4)
    3bc09380:	68098993          	addi	s3,s3,1664
    3bc09384:	64e2                	ld	s1,24(sp)
    3bc09386:	6942                	ld	s2,16(sp)
    3bc09388:	02f9a023          	sw	a5,32(s3)
    3bc0938c:	69a2                	ld	s3,8(sp)
    3bc0938e:	6145                	addi	sp,sp,48
    3bc09390:	be9ff06f          	j	3bc08f78 <cvx16_clk_gating_enable>
    3bc09394:	678d                	lui	a5,0x3
    3bc09396:	bddd                	j	3bc0928c <cvx16_wdqlvl_req+0x6e>
    3bc09398:	854e                	mv	a0,s3
    3bc0939a:	cb8ff0ef          	jal	ra,3bc08852 <cvx16_bist_wdqlvl_init>
    3bc0939e:	bf0d                	j	3bc092d0 <cvx16_wdqlvl_req+0xb2>

000000003bc093a0 <cvx16_en_rec_vol_mode>:
    3bc093a0:	6785                	lui	a5,0x1
    3bc093a2:	0785                	addi	a5,a5,1
    3bc093a4:	0000a717          	auipc	a4,0xa
    3bc093a8:	04f72623          	sw	a5,76(a4) # 3bc133f0 <rddata>
    3bc093ac:	08000737          	lui	a4,0x8000
    3bc093b0:	50f72023          	sw	a5,1280(a4) # 8000500 <p_rom_api_cryptodma_aes_decrypt+0x3c00400>
    3bc093b4:	54f72023          	sw	a5,1344(a4)
    3bc093b8:	8082                	ret

000000003bc093ba <ctrl_init_detect_dram_size>:
    3bc093ba:	4799                	li	a5,6
    3bc093bc:	00f50023          	sb	a5,0(a0) # 1f000000 <p_rom_api_cryptodma_aes_decrypt+0x1abfff00>
    3bc093c0:	0000a717          	auipc	a4,0xa
    3bc093c4:	02f72823          	sw	a5,48(a4) # 3bc133f0 <rddata>
    3bc093c8:	08000737          	lui	a4,0x8000
    3bc093cc:	20f72423          	sw	a5,520(a4) # 8000208 <p_rom_api_cryptodma_aes_decrypt+0x3c00108>
    3bc093d0:	080107b7          	lui	a5,0x8010
    3bc093d4:	00040737          	lui	a4,0x40
    3bc093d8:	c398                	sw	a4,0(a5)
    3bc093da:	8082                	ret

000000003bc093dc <pll_init>:
    3bc093dc:	2f000793          	li	a5,752
    3bc093e0:	0000a717          	auipc	a4,0xa
    3bc093e4:	00f72c23          	sw	a5,24(a4) # 3bc133f8 <freq_in>
    3bc093e8:	06400793          	li	a5,100
    3bc093ec:	0000a717          	auipc	a4,0xa
    3bc093f0:	00f72823          	sw	a5,16(a4) # 3bc133fc <mod_freq>
    3bc093f4:	00002717          	auipc	a4,0x2
    3bc093f8:	30872703          	lw	a4,776(a4) # 3bc0b6fc <ddr_data_rate>
    3bc093fc:	0047569b          	srliw	a3,a4,0x4
    3bc09400:	463d                	li	a2,15
    3bc09402:	0000a797          	auipc	a5,0xa
    3bc09406:	fed7af23          	sw	a3,-2(a5) # 3bc13400 <tar_freq>
    3bc0940a:	0000a797          	auipc	a5,0xa
    3bc0940e:	fec7a523          	sw	a2,-22(a5) # 3bc133f4 <dev_freq>
    3bc09412:	02f00713          	li	a4,47
    3bc09416:	077a                	slli	a4,a4,0x1e
    3bc09418:	7c06b78b          	extu	a5,a3,31,0
    3bc0941c:	02f757b3          	divu	a5,a4,a5
    3bc09420:	0000a717          	auipc	a4,0xa
    3bc09424:	faf73423          	sd	a5,-88(a4) # 3bc133c8 <reg_set>
    3bc09428:	0fa00713          	li	a4,250
    3bc0942c:	02d7073b          	mulw	a4,a4,a3
    3bc09430:	06400693          	li	a3,100
    3bc09434:	02d7573b          	divuw	a4,a4,a3
    3bc09438:	7c07370b          	extu	a4,a4,31,0
    3bc0943c:	0000a697          	auipc	a3,0xa
    3bc09440:	f8e6ba23          	sd	a4,-108(a3) # 3bc133d0 <reg_span>
    3bc09444:	3e800693          	li	a3,1000
    3bc09448:	02d70733          	mul	a4,a4,a3
    3bc0944c:	02c787b3          	mul	a5,a5,a2
    3bc09450:	02e7d7b3          	divu	a5,a5,a4
    3bc09454:	0000a717          	auipc	a4,0xa
    3bc09458:	f8f73223          	sd	a5,-124(a4) # 3bc133d8 <reg_step>
    3bc0945c:	a37ff06f          	j	3bc08e92 <cvx16_pll_init>

000000003bc09460 <cvx16_pinmux>:
    3bc09460:	1141                	addi	sp,sp,-16
    3bc09462:	e406                	sd	ra,8(sp)
    3bc09464:	f93fe0ef          	jal	ra,3bc083f6 <get_ddr_vendor>
    3bc09468:	357d                	addiw	a0,a0,-1
    3bc0946a:	0ff57513          	andi	a0,a0,255
    3bc0946e:	47a5                	li	a5,9
    3bc09470:	12a7ef63          	bltu	a5,a0,3bc095ae <cvx16_pinmux+0x14e>
    3bc09474:	00002717          	auipc	a4,0x2
    3bc09478:	f8470713          	addi	a4,a4,-124 # 3bc0b3f8 <inc32table+0x260>
    3bc0947c:	44a7478b          	lrw	a5,a4,a0,2
    3bc09480:	97ba                	add	a5,a5,a4
    3bc09482:	8782                	jr	a5
    3bc09484:	12141737          	lui	a4,0x12141
    3bc09488:	080007b7          	lui	a5,0x8000
    3bc0948c:	074d                	addi	a4,a4,19
    3bc0948e:	c398                	sw	a4,0(a5)
    3bc09490:	0c041737          	lui	a4,0xc041
    3bc09494:	50370713          	addi	a4,a4,1283 # c041503 <p_rom_api_cryptodma_aes_decrypt+0x7c41403>
    3bc09498:	c3d8                	sw	a4,4(a5)
    3bc0949a:	06050737          	lui	a4,0x6050
    3bc0949e:	0705                	addi	a4,a4,1
    3bc094a0:	c798                	sw	a4,8(a5)
    3bc094a2:	08071737          	lui	a4,0x8071
    3bc094a6:	b0270713          	addi	a4,a4,-1278 # 8070b02 <p_rom_api_cryptodma_aes_decrypt+0x3c70a02>
    3bc094aa:	c7d8                	sw	a4,12(a5)
    3bc094ac:	0a0f1737          	lui	a4,0xa0f1
    3bc094b0:	e0970713          	addi	a4,a4,-503 # a0f0e09 <p_rom_api_cryptodma_aes_decrypt+0x5cf0d09>
    3bc094b4:	cb98                	sw	a4,16(a5)
    3bc094b6:	00161737          	lui	a4,0x161
    3bc094ba:	10d70713          	addi	a4,a4,269 # 16110d <__BSS_SIZE__+0x15b4fd>
    3bc094be:	cbd8                	sw	a4,20(a5)
    3bc094c0:	0007ac23          	sw	zero,24(a5) # 8000018 <p_rom_api_cryptodma_aes_decrypt+0x3bfff18>
    3bc094c4:	10000713          	li	a4,256
    3bc094c8:	cfd8                	sw	a4,28(a5)
    3bc094ca:	02136737          	lui	a4,0x2136
    3bc094ce:	57470713          	addi	a4,a4,1396 # 2136574 <__BSS_SIZE__+0x2130964>
    3bc094d2:	d398                	sw	a4,32(a5)
    3bc094d4:	4721                	li	a4,8
    3bc094d6:	d3d8                	sw	a4,36(a5)
    3bc094d8:	76512737          	lui	a4,0x76512
    3bc094dc:	30870713          	addi	a4,a4,776 # 76512308 <__BL2_END__+0x3a8feef8>
    3bc094e0:	d798                	sw	a4,40(a5)
    3bc094e2:	4711                	li	a4,4
    3bc094e4:	d7d8                	sw	a4,44(a5)
    3bc094e6:	a0e1                	j	3bc095ae <cvx16_pinmux+0x14e>
    3bc094e8:	08071737          	lui	a4,0x8071
    3bc094ec:	080007b7          	lui	a5,0x8000
    3bc094f0:	d0970713          	addi	a4,a4,-759 # 8070d09 <p_rom_api_cryptodma_aes_decrypt+0x3c70c09>
    3bc094f4:	c398                	sw	a4,0(a5)
    3bc094f6:	06050737          	lui	a4,0x6050
    3bc094fa:	20b70713          	addi	a4,a4,523 # 605020b <p_rom_api_cryptodma_aes_decrypt+0x1c5010b>
    3bc094fe:	c3d8                	sw	a4,4(a5)
    3bc09500:	14040737          	lui	a4,0x14040
    3bc09504:	10070713          	addi	a4,a4,256 # 14040100 <p_rom_api_cryptodma_aes_decrypt+0xfc40000>
    3bc09508:	c798                	sw	a4,8(a5)
    3bc0950a:	15031737          	lui	a4,0x15031
    3bc0950e:	e0c70713          	addi	a4,a4,-500 # 15030e0c <p_rom_api_cryptodma_aes_decrypt+0x10c30d0c>
    3bc09512:	c7d8                	sw	a4,12(a5)
    3bc09514:	0a0f1737          	lui	a4,0xa0f1
    3bc09518:	21370713          	addi	a4,a4,531 # a0f1213 <p_rom_api_cryptodma_aes_decrypt+0x5cf1113>
    3bc0951c:	cb98                	sw	a4,16(a5)
    3bc0951e:	00111737          	lui	a4,0x111
    3bc09522:	0759                	addi	a4,a4,22
    3bc09524:	cbd8                	sw	a4,20(a5)
    3bc09526:	0007ac23          	sw	zero,24(a5) # 8000018 <p_rom_api_cryptodma_aes_decrypt+0x3bfff18>
    3bc0952a:	10000713          	li	a4,256
    3bc0952e:	cfd8                	sw	a4,28(a5)
    3bc09530:	82135737          	lui	a4,0x82135
    3bc09534:	76470713          	addi	a4,a4,1892 # ffffffff82135764 <__BL2_END__+0xffffffff46522354>
    3bc09538:	d398                	sw	a4,32(a5)
    3bc0953a:	67513737          	lui	a4,0x67513
    3bc0953e:	0207a223          	sw	zero,36(a5)
    3bc09542:	02870713          	addi	a4,a4,40 # 67513028 <__BL2_END__+0x2b8ffc18>
    3bc09546:	bf69                	j	3bc094e0 <cvx16_pinmux+0x80>
    3bc09548:	08071737          	lui	a4,0x8071
    3bc0954c:	080007b7          	lui	a5,0x8000
    3bc09550:	b0970713          	addi	a4,a4,-1271 # 8070b09 <p_rom_api_cryptodma_aes_decrypt+0x3c70a09>
    3bc09554:	c398                	sw	a4,0(a5)
    3bc09556:	05000737          	lui	a4,0x5000
    3bc0955a:	20670713          	addi	a4,a4,518 # 5000206 <p_rom_api_cryptodma_aes_decrypt+0xc00106>
    3bc0955e:	c3d8                	sw	a4,4(a5)
    3bc09560:	0c040737          	lui	a4,0xc040
    3bc09564:	10d70713          	addi	a4,a4,269 # c04010d <p_rom_api_cryptodma_aes_decrypt+0x7c4000d>
    3bc09568:	c798                	sw	a4,8(a5)
    3bc0956a:	15031737          	lui	a4,0x15031
    3bc0956e:	a1470713          	addi	a4,a4,-1516 # 15030a14 <p_rom_api_cryptodma_aes_decrypt+0x10c30914>
    3bc09572:	c7d8                	sw	a4,12(a5)
    3bc09574:	10111737          	lui	a4,0x10111
    3bc09578:	21370713          	addi	a4,a4,531 # 10111213 <p_rom_api_cryptodma_aes_decrypt+0xbd11113>
    3bc0957c:	cb98                	sw	a4,16(a5)
    3bc0957e:	000f1737          	lui	a4,0xf1
    3bc09582:	60e70713          	addi	a4,a4,1550 # f160e <__BSS_SIZE__+0xeb9fe>
    3bc09586:	cbd8                	sw	a4,20(a5)
    3bc09588:	0007ac23          	sw	zero,24(a5) # 8000018 <p_rom_api_cryptodma_aes_decrypt+0x3bfff18>
    3bc0958c:	10000713          	li	a4,256
    3bc09590:	cfd8                	sw	a4,28(a5)
    3bc09592:	31756737          	lui	a4,0x31756
    3bc09596:	02470713          	addi	a4,a4,36 # 31756024 <p_rom_api_cryptodma_aes_decrypt+0x2d355f24>
    3bc0959a:	d398                	sw	a4,32(a5)
    3bc0959c:	4721                	li	a4,8
    3bc0959e:	d3d8                	sw	a4,36(a5)
    3bc095a0:	26473737          	lui	a4,0x26473
    3bc095a4:	51870713          	addi	a4,a4,1304 # 26473518 <p_rom_api_cryptodma_aes_decrypt+0x22073418>
    3bc095a8:	d798                	sw	a4,40(a5)
    3bc095aa:	0207a623          	sw	zero,44(a5)
    3bc095ae:	60a2                	ld	ra,8(sp)
    3bc095b0:	0141                	addi	sp,sp,16
    3bc095b2:	8082                	ret
    3bc095b4:	0c061737          	lui	a4,0xc061
    3bc095b8:	080007b7          	lui	a5,0x8000
    3bc095bc:	80b70713          	addi	a4,a4,-2037 # c06080b <p_rom_api_cryptodma_aes_decrypt+0x7c6070b>
    3bc095c0:	c398                	sw	a4,0(a5)
    3bc095c2:	070d1737          	lui	a4,0x70d1
    3bc095c6:	90470713          	addi	a4,a4,-1788 # 70d0904 <p_rom_api_cryptodma_aes_decrypt+0x2cd0804>
    3bc095ca:	c3d8                	sw	a4,4(a5)
    3bc095cc:	6741                	lui	a4,0x10
    3bc095ce:	50270713          	addi	a4,a4,1282 # 10502 <__BSS_SIZE__+0xa8f2>
    3bc095d2:	c798                	sw	a4,8(a5)
    3bc095d4:	110a1737          	lui	a4,0x110a1
    3bc095d8:	e0370713          	addi	a4,a4,-509 # 110a0e03 <p_rom_api_cryptodma_aes_decrypt+0xcca0d03>
    3bc095dc:	c7d8                	sw	a4,12(a5)
    3bc095de:	0f141737          	lui	a4,0xf141
    3bc095e2:	61070713          	addi	a4,a4,1552 # f141610 <p_rom_api_cryptodma_aes_decrypt+0xad41510>
    3bc095e6:	cb98                	sw	a4,16(a5)
    3bc095e8:	00151737          	lui	a4,0x151
    3bc095ec:	31270713          	addi	a4,a4,786 # 151312 <__BSS_SIZE__+0x14b702>
    3bc095f0:	cbd8                	sw	a4,20(a5)
    3bc095f2:	0007ac23          	sw	zero,24(a5) # 8000018 <p_rom_api_cryptodma_aes_decrypt+0x3bfff18>
    3bc095f6:	10000713          	li	a4,256
    3bc095fa:	cfd8                	sw	a4,28(a5)
    3bc095fc:	71840737          	lui	a4,0x71840
    3bc09600:	53270713          	addi	a4,a4,1330 # 71840532 <__BL2_END__+0x35c2d122>
    3bc09604:	d398                	sw	a4,32(a5)
    3bc09606:	4719                	li	a4,6
    3bc09608:	d3d8                	sw	a4,36(a5)
    3bc0960a:	76103737          	lui	a4,0x76103
    3bc0960e:	42570713          	addi	a4,a4,1061 # 76103425 <__BL2_END__+0x3a4f0015>
    3bc09612:	d798                	sw	a4,40(a5)
    3bc09614:	4721                	li	a4,8
    3bc09616:	b5f9                	j	3bc094e4 <cvx16_pinmux+0x84>
    3bc09618:	080b1737          	lui	a4,0x80b1
    3bc0961c:	080007b7          	lui	a5,0x8000
    3bc09620:	d0670713          	addi	a4,a4,-762 # 80b0d06 <p_rom_api_cryptodma_aes_decrypt+0x3cb0c06>
    3bc09624:	c398                	sw	a4,0(a5)
    3bc09626:	09010737          	lui	a4,0x9010
    3bc0962a:	40770713          	addi	a4,a4,1031 # 9010407 <p_rom_api_cryptodma_aes_decrypt+0x4c10307>
    3bc0962e:	c3d8                	sw	a4,4(a5)
    3bc09630:	14050737          	lui	a4,0x14050
    3bc09634:	20c70713          	addi	a4,a4,524 # 1405020c <p_rom_api_cryptodma_aes_decrypt+0xfc5010c>
    3bc09638:	c798                	sw	a4,8(a5)
    3bc0963a:	15001737          	lui	a4,0x15001
    3bc0963e:	e0370713          	addi	a4,a4,-509 # 15000e03 <p_rom_api_cryptodma_aes_decrypt+0x10c00d03>
    3bc09642:	c7d8                	sw	a4,12(a5)
    3bc09644:	0a0f1737          	lui	a4,0xa0f1
    3bc09648:	21370713          	addi	a4,a4,531 # a0f1213 <p_rom_api_cryptodma_aes_decrypt+0x5cf1113>
    3bc0964c:	cb98                	sw	a4,16(a5)
    3bc0964e:	00111737          	lui	a4,0x111
    3bc09652:	0759                	addi	a4,a4,22
    3bc09654:	cbd8                	sw	a4,20(a5)
    3bc09656:	0007ac23          	sw	zero,24(a5) # 8000018 <p_rom_api_cryptodma_aes_decrypt+0x3bfff18>
    3bc0965a:	10000713          	li	a4,256
    3bc0965e:	cfd8                	sw	a4,28(a5)
    3bc09660:	82135737          	lui	a4,0x82135
    3bc09664:	76470713          	addi	a4,a4,1892 # ffffffff82135764 <__BL2_END__+0xffffffff46522354>
    3bc09668:	d398                	sw	a4,32(a5)
    3bc0966a:	67513737          	lui	a4,0x67513
    3bc0966e:	0207a223          	sw	zero,36(a5)
    3bc09672:	20870713          	addi	a4,a4,520 # 67513208 <__BL2_END__+0x2b8ffdf8>
    3bc09676:	b5ad                	j	3bc094e0 <cvx16_pinmux+0x80>
    3bc09678:	0b061737          	lui	a4,0xb061
    3bc0967c:	080007b7          	lui	a5,0x8000
    3bc09680:	90870713          	addi	a4,a4,-1784 # b060908 <p_rom_api_cryptodma_aes_decrypt+0x6c60808>
    3bc09684:	c398                	sw	a4,0(a5)
    3bc09686:	02000737          	lui	a4,0x2000
    3bc0968a:	10770713          	addi	a4,a4,263 # 2000107 <__BSS_SIZE__+0x1ffa4f7>
    3bc0968e:	c3d8                	sw	a4,4(a5)
    3bc09690:	0c050737          	lui	a4,0xc050
    3bc09694:	40d70713          	addi	a4,a4,1037 # c05040d <p_rom_api_cryptodma_aes_decrypt+0x7c5030d>
    3bc09698:	c798                	sw	a4,8(a5)
    3bc0969a:	13141737          	lui	a4,0x13141
    3bc0969e:	50370713          	addi	a4,a4,1283 # 13141503 <p_rom_api_cryptodma_aes_decrypt+0xed41403>
    3bc096a2:	c7d8                	sw	a4,12(a5)
    3bc096a4:	160a1737          	lui	a4,0x160a1
    3bc096a8:	11270713          	addi	a4,a4,274 # 160a1112 <p_rom_api_cryptodma_aes_decrypt+0x11ca1012>
    3bc096ac:	cb98                	sw	a4,16(a5)
    3bc096ae:	000f1737          	lui	a4,0xf1
    3bc096b2:	0739                	addi	a4,a4,14
    3bc096b4:	cbd8                	sw	a4,20(a5)
    3bc096b6:	0007ac23          	sw	zero,24(a5) # 8000018 <p_rom_api_cryptodma_aes_decrypt+0x3bfff18>
    3bc096ba:	10000713          	li	a4,256
    3bc096be:	cfd8                	sw	a4,28(a5)
    3bc096c0:	28137737          	lui	a4,0x28137
    3bc096c4:	56470713          	addi	a4,a4,1380 # 28137564 <p_rom_api_cryptodma_aes_decrypt+0x23d37464>
    3bc096c8:	d398                	sw	a4,32(a5)
    3bc096ca:	76158737          	lui	a4,0x76158
    3bc096ce:	0207a223          	sw	zero,36(a5)
    3bc096d2:	32070713          	addi	a4,a4,800 # 76158320 <__BL2_END__+0x3a544f10>
    3bc096d6:	b529                	j	3bc094e0 <cvx16_pinmux+0x80>
    3bc096d8:	08061737          	lui	a4,0x8061
    3bc096dc:	080007b7          	lui	a5,0x8000
    3bc096e0:	b0970713          	addi	a4,a4,-1271 # 8060b09 <p_rom_api_cryptodma_aes_decrypt+0x3c60a09>
    3bc096e4:	c398                	sw	a4,0(a5)
    3bc096e6:	02040737          	lui	a4,0x2040
    3bc096ea:	70170713          	addi	a4,a4,1793 # 2040701 <__BSS_SIZE__+0x203aaf1>
    3bc096ee:	c3d8                	sw	a4,4(a5)
    3bc096f0:	0c000737          	lui	a4,0xc000
    3bc096f4:	50d70713          	addi	a4,a4,1293 # c00050d <p_rom_api_cryptodma_aes_decrypt+0x7c0040d>
    3bc096f8:	c798                	sw	a4,8(a5)
    3bc096fa:	13150737          	lui	a4,0x13150
    3bc096fe:	31470713          	addi	a4,a4,788 # 13150314 <p_rom_api_cryptodma_aes_decrypt+0xed50214>
    3bc09702:	c7d8                	sw	a4,12(a5)
    3bc09704:	10111737          	lui	a4,0x10111
    3bc09708:	21670713          	addi	a4,a4,534 # 10111216 <p_rom_api_cryptodma_aes_decrypt+0xbd11116>
    3bc0970c:	cb98                	sw	a4,16(a5)
    3bc0970e:	000f1737          	lui	a4,0xf1
    3bc09712:	a0e70713          	addi	a4,a4,-1522 # f0a0e <__BSS_SIZE__+0xeadfe>
    3bc09716:	cbd8                	sw	a4,20(a5)
    3bc09718:	0007ac23          	sw	zero,24(a5) # 8000018 <p_rom_api_cryptodma_aes_decrypt+0x3bfff18>
    3bc0971c:	10000713          	li	a4,256
    3bc09720:	cfd8                	sw	a4,28(a5)
    3bc09722:	82135737          	lui	a4,0x82135
    3bc09726:	67470713          	addi	a4,a4,1652 # ffffffff82135674 <__BL2_END__+0xffffffff46522264>
    3bc0972a:	d398                	sw	a4,32(a5)
    3bc0972c:	76153737          	lui	a4,0x76153
    3bc09730:	0207a223          	sw	zero,36(a5)
    3bc09734:	28070713          	addi	a4,a4,640 # 76153280 <__BL2_END__+0x3a53fe70>
    3bc09738:	b365                	j	3bc094e0 <cvx16_pinmux+0x80>
    3bc0973a:	070b1737          	lui	a4,0x70b1
    3bc0973e:	080007b7          	lui	a5,0x8000
    3bc09742:	90c70713          	addi	a4,a4,-1780 # 70b090c <p_rom_api_cryptodma_aes_decrypt+0x2cb080c>
    3bc09746:	c398                	sw	a4,0(a5)
    3bc09748:	04050737          	lui	a4,0x4050
    3bc0974c:	60870713          	addi	a4,a4,1544 # 4050608 <__BSS_SIZE__+0x404a9f8>
    3bc09750:	c3d8                	sw	a4,4(a5)
    3bc09752:	0e020737          	lui	a4,0xe020
    3bc09756:	30d70713          	addi	a4,a4,781 # e02030d <p_rom_api_cryptodma_aes_decrypt+0x9c2020d>
    3bc0975a:	c798                	sw	a4,8(a5)
    3bc0975c:	110a0737          	lui	a4,0x110a0
    3bc09760:	10070713          	addi	a4,a4,256 # 110a0100 <p_rom_api_cryptodma_aes_decrypt+0xcca0000>
    3bc09764:	c7d8                	sw	a4,12(a5)
    3bc09766:	0f131737          	lui	a4,0xf131
    3bc0976a:	61470713          	addi	a4,a4,1556 # f131614 <p_rom_api_cryptodma_aes_decrypt+0xad31514>
    3bc0976e:	cb98                	sw	a4,16(a5)
    3bc09770:	00151737          	lui	a4,0x151
    3bc09774:	0749                	addi	a4,a4,18
    3bc09776:	cbd8                	sw	a4,20(a5)
    3bc09778:	0007ac23          	sw	zero,24(a5) # 8000018 <p_rom_api_cryptodma_aes_decrypt+0x3bfff18>
    3bc0977c:	10000713          	li	a4,256
    3bc09780:	cfd8                	sw	a4,28(a5)
    3bc09782:	86014737          	lui	a4,0x86014
    3bc09786:	53270713          	addi	a4,a4,1330 # ffffffff86014532 <__BL2_END__+0xffffffff4a401122>
    3bc0978a:	d398                	sw	a4,32(a5)
    3bc0978c:	471d                	li	a4,7
    3bc0978e:	d3d8                	sw	a4,36(a5)
    3bc09790:	76012737          	lui	a4,0x76012
    3bc09794:	34570713          	addi	a4,a4,837 # 76012345 <__BL2_END__+0x3a3fef35>
    3bc09798:	bdad                	j	3bc09612 <cvx16_pinmux+0x1b2>

000000003bc0979a <cvx16_dram_cap_check>:
    3bc0979a:	8082                	ret

000000003bc0979c <ddrc_init>:
    3bc0979c:	63746737          	lui	a4,0x63746
    3bc097a0:	080047b7          	lui	a5,0x8004
    3bc097a4:	37170713          	addi	a4,a4,881 # 63746371 <__BL2_END__+0x27b32f61>
    3bc097a8:	c7d8                	sw	a4,12(a5)
    3bc097aa:	14000737          	lui	a4,0x14000
    3bc097ae:	c3f8                	sw	a4,68(a5)
    3bc097b0:	470d                	li	a4,3
    3bc097b2:	d7f8                	sw	a4,108(a5)
    3bc097b4:	979c06b7          	lui	a3,0x979c0
    3bc097b8:	10078713          	addi	a4,a5,256 # 8004100 <p_rom_api_cryptodma_aes_decrypt+0x3c04000>
    3bc097bc:	c734                	sw	a3,72(a4)
    3bc097be:	810416b7          	lui	a3,0x81041
    3bc097c2:	40068693          	addi	a3,a3,1024 # ffffffff81041400 <__BL2_END__+0xffffffff4542dff0>
    3bc097c6:	c394                	sw	a3,0(a5)
    3bc097c8:	006a06b7          	lui	a3,0x6a0
    3bc097cc:	0207a823          	sw	zero,48(a5)
    3bc097d0:	0685                	addi	a3,a3,1
    3bc097d2:	dbd4                	sw	a3,52(a5)
    3bc097d4:	000206b7          	lui	a3,0x20
    3bc097d8:	df94                	sw	a3,56(a5)
    3bc097da:	002016b7          	lui	a3,0x201
    3bc097de:	07068693          	addi	a3,a3,112 # 201070 <__BSS_SIZE__+0x1fb460>
    3bc097e2:	cbb4                	sw	a3,80(a5)
    3bc097e4:	005106b7          	lui	a3,0x510
    3bc097e8:	0607a023          	sw	zero,96(a5)
    3bc097ec:	02c68693          	addi	a3,a3,44 # 51002c <__BSS_SIZE__+0x50a41c>
    3bc097f0:	6641                	lui	a2,0x10
    3bc097f2:	d3f4                	sw	a3,100(a5)
    3bc097f4:	04360613          	addi	a2,a2,67 # 10043 <__BSS_SIZE__+0xa433>
    3bc097f8:	08078693          	addi	a3,a5,128
    3bc097fc:	cab0                	sw	a2,80(a3)
    3bc097fe:	03730637          	lui	a2,0x3730
    3bc09802:	0c07aa23          	sw	zero,212(a5)
    3bc09806:	04060613          	addi	a2,a2,64 # 3730040 <__BSS_SIZE__+0x372a430>
    3bc0980a:	cef0                	sw	a2,92(a3)
    3bc0980c:	00800637          	lui	a2,0x800
    3bc09810:	d2b0                	sw	a2,96(a3)
    3bc09812:	0a0116b7          	lui	a3,0xa011
    3bc09816:	61068693          	addi	a3,a3,1552 # a011610 <p_rom_api_cryptodma_aes_decrypt+0x5c11510>
    3bc0981a:	c314                	sw	a3,0(a4)
    3bc0981c:	000306b7          	lui	a3,0x30
    3bc09820:	41468693          	addi	a3,a3,1044 # 30414 <__BSS_SIZE__+0x2a804>
    3bc09824:	c354                	sw	a3,4(a4)
    3bc09826:	030406b7          	lui	a3,0x3040
    3bc0982a:	40868693          	addi	a3,a3,1032 # 3040408 <__BSS_SIZE__+0x303a7f8>
    3bc0982e:	c714                	sw	a3,8(a4)
    3bc09830:	668d                	lui	a3,0x3
    3bc09832:	0691                	addi	a3,a3,4
    3bc09834:	c754                	sw	a3,12(a4)
    3bc09836:	050206b7          	lui	a3,0x5020
    3bc0983a:	40668693          	addi	a3,a3,1030 # 5020406 <p_rom_api_cryptodma_aes_decrypt+0xc20306>
    3bc0983e:	cb14                	sw	a3,16(a4)
    3bc09840:	010106b7          	lui	a3,0x1010
    3bc09844:	30368693          	addi	a3,a3,771 # 1010303 <__BSS_SIZE__+0x100a6f3>
    3bc09848:	cb54                	sw	a3,20(a4)
    3bc0984a:	50300693          	li	a3,1283
    3bc0984e:	d314                	sw	a3,32(a4)
    3bc09850:	048586b7          	lui	a3,0x4858
    3bc09854:	18078713          	addi	a4,a5,384
    3bc09858:	30268693          	addi	a3,a3,770 # 4858302 <p_rom_api_cryptodma_aes_decrypt+0x458202>
    3bc0985c:	cb14                	sw	a3,16(a4)
    3bc0985e:	000706b7          	lui	a3,0x70
    3bc09862:	10268693          	addi	a3,a3,258 # 70102 <__BSS_SIZE__+0x6a4f2>
    3bc09866:	cb54                	sw	a3,20(a4)
    3bc09868:	07c136b7          	lui	a3,0x7c13
    3bc0986c:	12168693          	addi	a3,a3,289 # 7c13121 <p_rom_api_cryptodma_aes_decrypt+0x3813021>
    3bc09870:	cf14                	sw	a3,24(a4)
    3bc09872:	02100693          	li	a3,33
    3bc09876:	cf54                	sw	a3,28(a4)
    3bc09878:	c04006b7          	lui	a3,0xc0400
    3bc0987c:	06e1                	addi	a3,a3,24
    3bc0987e:	d314                	sw	a3,32(a4)
    3bc09880:	00fe06b7          	lui	a3,0xfe0
    3bc09884:	0ff68693          	addi	a3,a3,255 # fe00ff <__BSS_SIZE__+0xfda4ef>
    3bc09888:	d354                	sw	a3,36(a4)
    3bc0988a:	800006b7          	lui	a3,0x80000
    3bc0988e:	d714                	sw	a3,40(a4)
    3bc09890:	2c100693          	li	a3,705
    3bc09894:	db14                	sw	a3,48(a4)
    3bc09896:	4685                	li	a3,1
    3bc09898:	c334                	sw	a3,64(a4)
    3bc0989a:	6609                	lui	a2,0x2
    3bc0989c:	001405b7          	lui	a1,0x140
    3bc098a0:	f1f60613          	addi	a2,a2,-225 # 1f1f <__BSS_SIZE__-0x3cf1>
    3bc098a4:	c374                	sw	a3,68(a4)
    3bc098a6:	70758593          	addi	a1,a1,1799 # 140707 <__BSS_SIZE__+0x13aaf7>
    3bc098aa:	20078713          	addi	a4,a5,512
    3bc098ae:	c310                	sw	a2,0(a4)
    3bc098b0:	c34c                	sw	a1,4(a4)
    3bc098b2:	2007a423          	sw	zero,520(a5)
    3bc098b6:	1f0005b7          	lui	a1,0x1f000
    3bc098ba:	c74c                	sw	a1,12(a4)
    3bc098bc:	cb10                	sw	a2,16(a4)
    3bc098be:	050f0637          	lui	a2,0x50f0
    3bc098c2:	50560613          	addi	a2,a2,1285 # 50f0505 <p_rom_api_cryptodma_aes_decrypt+0xcf0405>
    3bc098c6:	cb50                	sw	a2,20(a4)
    3bc098c8:	06060637          	lui	a2,0x6060
    3bc098cc:	60560613          	addi	a2,a2,1541 # 6060605 <p_rom_api_cryptodma_aes_decrypt+0x1c60505>
    3bc098d0:	cf10                	sw	a2,24(a4)
    3bc098d2:	60600613          	li	a2,1542
    3bc098d6:	cf50                	sw	a2,28(a4)
    3bc098d8:	6611                	lui	a2,0x4
    3bc098da:	f3f60593          	addi	a1,a2,-193 # 3f3f <__BSS_SIZE__-0x1cd1>
    3bc098de:	d30c                	sw	a1,32(a4)
    3bc098e0:	050505b7          	lui	a1,0x5050
    3bc098e4:	50558593          	addi	a1,a1,1285 # 5050505 <p_rom_api_cryptodma_aes_decrypt+0xc50405>
    3bc098e8:	d34c                	sw	a1,36(a4)
    3bc098ea:	d70c                	sw	a1,40(a4)
    3bc098ec:	001f25b7          	lui	a1,0x1f2
    3bc098f0:	f0558593          	addi	a1,a1,-251 # 1f1f05 <__BSS_SIZE__+0x1ec2f5>
    3bc098f4:	d74c                	sw	a1,44(a4)
    3bc098f6:	070105b7          	lui	a1,0x7010
    3bc098fa:	70858593          	addi	a1,a1,1800 # 7010708 <p_rom_api_cryptodma_aes_decrypt+0x2c10608>
    3bc098fe:	c32c                	sw	a1,64(a4)
    3bc09900:	2407a223          	sw	zero,580(a5)
    3bc09904:	f8560613          	addi	a2,a2,-123
    3bc09908:	cb30                	sw	a2,80(a4)
    3bc0990a:	02000613          	li	a2,32
    3bc0990e:	cb70                	sw	a2,84(a4)
    3bc09910:	10000637          	lui	a2,0x10000
    3bc09914:	0a860613          	addi	a2,a2,168 # 100000a8 <p_rom_api_cryptodma_aes_decrypt+0xbbfffa8>
    3bc09918:	cf70                	sw	a2,92(a4)
    3bc0991a:	d370                	sw	a2,100(a4)
    3bc0991c:	d770                	sw	a2,108(a4)
    3bc0991e:	3007a023          	sw	zero,768(a5)
    3bc09922:	3007a223          	sw	zero,772(a5)
    3bc09926:	3007a623          	sw	zero,780(a5)
    3bc0992a:	30078713          	addi	a4,a5,768
    3bc0992e:	d314                	sw	a3,32(a4)
    3bc09930:	3607a623          	sw	zero,876(a5)
    3bc09934:	40078713          	addi	a4,a5,1024
    3bc09938:	4645                	li	a2,17
    3bc0993a:	c310                	sw	a2,0(a4)
    3bc0993c:	6619                	lui	a2,0x6
    3bc0993e:	c350                	sw	a2,4(a4)
    3bc09940:	c710                	sw	a2,8(a4)
    3bc09942:	48078713          	addi	a4,a5,1152
    3bc09946:	cb14                	sw	a3,16(a4)
    3bc09948:	489d                	li	a7,7
    3bc0994a:	01172a23          	sw	a7,20(a4) # 14000014 <p_rom_api_cryptodma_aes_decrypt+0xfbfff14>
    3bc0994e:	06a00813          	li	a6,106
    3bc09952:	6505                	lui	a0,0x1
    3bc09954:	01072c23          	sw	a6,24(a4)
    3bc09958:	e0750513          	addi	a0,a0,-505 # e07 <__BSS_SIZE__-0x4e09>
    3bc0995c:	01a805b7          	lui	a1,0x1a80
    3bc09960:	cf48                	sw	a0,28(a4)
    3bc09962:	1a858593          	addi	a1,a1,424 # 1a801a8 <__BSS_SIZE__+0x1a7a598>
    3bc09966:	d30c                	sw	a1,32(a4)
    3bc09968:	db50                	sw	a2,52(a4)
    3bc0996a:	df10                	sw	a2,56(a4)
    3bc0996c:	50078713          	addi	a4,a5,1280
    3bc09970:	c334                	sw	a3,64(a4)
    3bc09972:	05172223          	sw	a7,68(a4)
    3bc09976:	05072423          	sw	a6,72(a4)
    3bc0997a:	c768                	sw	a0,76(a4)
    3bc0997c:	cb2c                	sw	a1,80(a4)
    3bc0997e:	d370                	sw	a2,100(a4)
    3bc09980:	d730                	sw	a2,104(a4)
    3bc09982:	58078713          	addi	a4,a5,1408
    3bc09986:	db34                	sw	a3,112(a4)
    3bc09988:	07172a23          	sw	a7,116(a4)
    3bc0998c:	07072c23          	sw	a6,120(a4)
    3bc09990:	df68                	sw	a0,124(a4)
    3bc09992:	60078793          	addi	a5,a5,1536
    3bc09996:	c38c                	sw	a1,0(a5)
    3bc09998:	8082                	ret

000000003bc0999a <ctrl_init_high_patch>:
    3bc0999a:	080047b7          	lui	a5,0x8004
    3bc0999e:	4709                	li	a4,2
    3bc099a0:	db98                	sw	a4,48(a5)
    3bc099a2:	00400737          	lui	a4,0x400
    3bc099a6:	0761                	addi	a4,a4,24
    3bc099a8:	18078693          	addi	a3,a5,384 # 8004180 <p_rom_api_cryptodma_aes_decrypt+0x3c04080>
    3bc099ac:	d298                	sw	a4,32(a3)
    3bc099ae:	0800a737          	lui	a4,0x800a
    3bc099b2:	00072a23          	sw	zero,20(a4) # 800a014 <p_rom_api_cryptodma_aes_decrypt+0x3c09f14>
    3bc099b6:	63746737          	lui	a4,0x63746
    3bc099ba:	37170713          	addi	a4,a4,881 # 63746371 <__BL2_END__+0x27b32f61>
    3bc099be:	c7d8                	sw	a4,12(a5)
    3bc099c0:	08000737          	lui	a4,0x8000
    3bc099c4:	c3f8                	sw	a4,68(a5)
    3bc099c6:	8082                	ret

000000003bc099c8 <ctrl_init_low_patch>:
    3bc099c8:	080047b7          	lui	a5,0x8004
    3bc099cc:	c0400737          	lui	a4,0xc0400
    3bc099d0:	0207a823          	sw	zero,48(a5) # 8004030 <p_rom_api_cryptodma_aes_decrypt+0x3c03f30>
    3bc099d4:	0761                	addi	a4,a4,24
    3bc099d6:	1ae7a023          	sw	a4,416(a5)
    3bc099da:	6705                	lui	a4,0x1
    3bc099dc:	177d                	addi	a4,a4,-1
    3bc099de:	0800a6b7          	lui	a3,0x800a
    3bc099e2:	cad8                	sw	a4,20(a3)
    3bc099e4:	63746737          	lui	a4,0x63746
    3bc099e8:	37170713          	addi	a4,a4,881 # 63746371 <__BL2_END__+0x27b32f61>
    3bc099ec:	c7d8                	sw	a4,12(a5)
    3bc099ee:	14000737          	lui	a4,0x14000
    3bc099f2:	c3f8                	sw	a4,68(a5)
    3bc099f4:	8082                	ret

000000003bc099f6 <ctrl_init_update_by_dram_size>:
    3bc099f6:	080047b7          	lui	a5,0x8004
    3bc099fa:	4398                	lw	a4,0(a5)
    3bc099fc:	0000a797          	auipc	a5,0xa
    3bc09a00:	9ee7aa23          	sw	a4,-1548(a5) # 3bc133f0 <rddata>
    3bc09a04:	34c7368b          	extu	a3,a4,13,12
    3bc09a08:	4785                	li	a5,1
    3bc09a0a:	9f95                	subw	a5,a5,a3
    3bc09a0c:	40f557bb          	sraw	a5,a0,a5
    3bc09a10:	01e7571b          	srliw	a4,a4,0x1e
    3bc09a14:	4689                	li	a3,2
    3bc09a16:	40e6873b          	subw	a4,a3,a4
    3bc09a1a:	0ff7f793          	andi	a5,a5,255
    3bc09a1e:	40e7d7bb          	sraw	a5,a5,a4
    3bc09a22:	0ff7f793          	andi	a5,a5,255
    3bc09a26:	ffb7861b          	addiw	a2,a5,-5
    3bc09a2a:	4711                	li	a4,4
    3bc09a2c:	1ac76f63          	bltu	a4,a2,3bc09bea <ctrl_init_update_by_dram_size+0x1f4>
    3bc09a30:	00002717          	auipc	a4,0x2
    3bc09a34:	9f070713          	addi	a4,a4,-1552 # 3bc0b420 <inc32table+0x288>
    3bc09a38:	54c7478b          	lurw	a5,a4,a2,2
    3bc09a3c:	2781                	sext.w	a5,a5
    3bc09a3e:	97ba                	add	a5,a5,a4
    3bc09a40:	8782                	jr	a5
    3bc09a42:	00510737          	lui	a4,0x510
    3bc09a46:	080047b7          	lui	a5,0x8004
    3bc09a4a:	0765                	addi	a4,a4,25
    3bc09a4c:	d3f8                	sw	a4,100(a5)
    3bc09a4e:	0b011737          	lui	a4,0xb011
    3bc09a52:	61070713          	addi	a4,a4,1552 # b011610 <p_rom_api_cryptodma_aes_decrypt+0x6c11510>
    3bc09a56:	10e7a023          	sw	a4,256(a5) # 8004100 <p_rom_api_cryptodma_aes_decrypt+0x3c04000>
    3bc09a5a:	50200713          	li	a4,1282
    3bc09a5e:	12e7a023          	sw	a4,288(a5)
    3bc09a62:	08004637          	lui	a2,0x8004
    3bc09a66:	6709                	lui	a4,0x2
    3bc09a68:	20060793          	addi	a5,a2,512 # 8004200 <p_rom_api_cryptodma_aes_decrypt+0x3c04100>
    3bc09a6c:	f1f70713          	addi	a4,a4,-225 # 1f1f <__BSS_SIZE__-0x3cf1>
    3bc09a70:	003f06b7          	lui	a3,0x3f0
    3bc09a74:	c398                	sw	a4,0(a5)
    3bc09a76:	60668693          	addi	a3,a3,1542 # 3f0606 <__BSS_SIZE__+0x3ea9f6>
    3bc09a7a:	c3d4                	sw	a3,4(a5)
    3bc09a7c:	20062423          	sw	zero,520(a2)
    3bc09a80:	1f1f06b7          	lui	a3,0x1f1f0
    3bc09a84:	c7d4                	sw	a3,12(a5)
    3bc09a86:	cb98                	sw	a4,16(a5)
    3bc09a88:	040f0737          	lui	a4,0x40f0
    3bc09a8c:	40470713          	addi	a4,a4,1028 # 40f0404 <__BSS_SIZE__+0x40ea7f4>
    3bc09a90:	cbd8                	sw	a4,20(a5)
    3bc09a92:	04040737          	lui	a4,0x4040
    3bc09a96:	40470713          	addi	a4,a4,1028 # 4040404 <__BSS_SIZE__+0x403a7f4>
    3bc09a9a:	cf98                	sw	a4,24(a5)
    3bc09a9c:	40400693          	li	a3,1028
    3bc09aa0:	cfd4                	sw	a3,28(a5)
    3bc09aa2:	6691                	lui	a3,0x4
    3bc09aa4:	f3f68693          	addi	a3,a3,-193 # 3f3f <__BSS_SIZE__-0x1cd1>
    3bc09aa8:	d394                	sw	a3,32(a5)
    3bc09aaa:	d3d8                	sw	a4,36(a5)
    3bc09aac:	d798                	sw	a4,40(a5)
    3bc09aae:	001f2737          	lui	a4,0x1f2
    3bc09ab2:	f0470713          	addi	a4,a4,-252 # 1f1f04 <__BSS_SIZE__+0x1ec2f4>
    3bc09ab6:	d7d8                	sw	a4,44(a5)
    3bc09ab8:	a289                	j	3bc09bfa <ctrl_init_update_by_dram_size+0x204>
    3bc09aba:	00510737          	lui	a4,0x510
    3bc09abe:	080047b7          	lui	a5,0x8004
    3bc09ac2:	02c70713          	addi	a4,a4,44 # 51002c <__BSS_SIZE__+0x50a41c>
    3bc09ac6:	d3f8                	sw	a4,100(a5)
    3bc09ac8:	0a011737          	lui	a4,0xa011
    3bc09acc:	61070713          	addi	a4,a4,1552 # a011610 <p_rom_api_cryptodma_aes_decrypt+0x5c11510>
    3bc09ad0:	10e7a023          	sw	a4,256(a5) # 8004100 <p_rom_api_cryptodma_aes_decrypt+0x3c04000>
    3bc09ad4:	50300713          	li	a4,1283
    3bc09ad8:	12e7a023          	sw	a4,288(a5)
    3bc09adc:	08004637          	lui	a2,0x8004
    3bc09ae0:	6709                	lui	a4,0x2
    3bc09ae2:	20060793          	addi	a5,a2,512 # 8004200 <p_rom_api_cryptodma_aes_decrypt+0x3c04100>
    3bc09ae6:	f1f70713          	addi	a4,a4,-225 # 1f1f <__BSS_SIZE__-0x3cf1>
    3bc09aea:	003f06b7          	lui	a3,0x3f0
    3bc09aee:	c398                	sw	a4,0(a5)
    3bc09af0:	70768693          	addi	a3,a3,1799 # 3f0707 <__BSS_SIZE__+0x3eaaf7>
    3bc09af4:	c3d4                	sw	a3,4(a5)
    3bc09af6:	20062423          	sw	zero,520(a2)
    3bc09afa:	1f0006b7          	lui	a3,0x1f000
    3bc09afe:	c7d4                	sw	a3,12(a5)
    3bc09b00:	cb98                	sw	a4,16(a5)
    3bc09b02:	050f0737          	lui	a4,0x50f0
    3bc09b06:	50570713          	addi	a4,a4,1285 # 50f0505 <p_rom_api_cryptodma_aes_decrypt+0xcf0405>
    3bc09b0a:	cbd8                	sw	a4,20(a5)
    3bc09b0c:	05050737          	lui	a4,0x5050
    3bc09b10:	50570713          	addi	a4,a4,1285 # 5050505 <p_rom_api_cryptodma_aes_decrypt+0xc50405>
    3bc09b14:	cf98                	sw	a4,24(a5)
    3bc09b16:	50500693          	li	a3,1285
    3bc09b1a:	cfd4                	sw	a3,28(a5)
    3bc09b1c:	6691                	lui	a3,0x4
    3bc09b1e:	f3f68693          	addi	a3,a3,-193 # 3f3f <__BSS_SIZE__-0x1cd1>
    3bc09b22:	d394                	sw	a3,32(a5)
    3bc09b24:	d3d8                	sw	a4,36(a5)
    3bc09b26:	d798                	sw	a4,40(a5)
    3bc09b28:	001f2737          	lui	a4,0x1f2
    3bc09b2c:	f0570713          	addi	a4,a4,-251 # 1f1f05 <__BSS_SIZE__+0x1ec2f5>
    3bc09b30:	b759                	j	3bc09ab6 <ctrl_init_update_by_dram_size+0xc0>
    3bc09b32:	00510737          	lui	a4,0x510
    3bc09b36:	080047b7          	lui	a5,0x8004
    3bc09b3a:	02b70713          	addi	a4,a4,43 # 51002b <__BSS_SIZE__+0x50a41b>
    3bc09b3e:	d3f8                	sw	a4,100(a5)
    3bc09b40:	0b0f1737          	lui	a4,0xb0f1
    3bc09b44:	61070713          	addi	a4,a4,1552 # b0f1610 <p_rom_api_cryptodma_aes_decrypt+0x6cf1510>
    3bc09b48:	10e7a023          	sw	a4,256(a5) # 8004100 <p_rom_api_cryptodma_aes_decrypt+0x3c04000>
    3bc09b4c:	50300713          	li	a4,1283
    3bc09b50:	12e7a023          	sw	a4,288(a5)
    3bc09b54:	08004637          	lui	a2,0x8004
    3bc09b58:	6709                	lui	a4,0x2
    3bc09b5a:	20060793          	addi	a5,a2,512 # 8004200 <p_rom_api_cryptodma_aes_decrypt+0x3c04100>
    3bc09b5e:	f1f70713          	addi	a4,a4,-225 # 1f1f <__BSS_SIZE__-0x3cf1>
    3bc09b62:	000706b7          	lui	a3,0x70
    3bc09b66:	c398                	sw	a4,0(a5)
    3bc09b68:	70768693          	addi	a3,a3,1799 # 70707 <__BSS_SIZE__+0x6aaf7>
    3bc09b6c:	c3d4                	sw	a3,4(a5)
    3bc09b6e:	20062423          	sw	zero,520(a2)
    3bc09b72:	1f0006b7          	lui	a3,0x1f000
    3bc09b76:	c7d4                	sw	a3,12(a5)
    3bc09b78:	cb98                	sw	a4,16(a5)
    3bc09b7a:	060f0737          	lui	a4,0x60f0
    3bc09b7e:	60670713          	addi	a4,a4,1542 # 60f0606 <p_rom_api_cryptodma_aes_decrypt+0x1cf0506>
    3bc09b82:	cbd8                	sw	a4,20(a5)
    3bc09b84:	06060737          	lui	a4,0x6060
    3bc09b88:	60670713          	addi	a4,a4,1542 # 6060606 <p_rom_api_cryptodma_aes_decrypt+0x1c60506>
    3bc09b8c:	cf98                	sw	a4,24(a5)
    3bc09b8e:	60600693          	li	a3,1542
    3bc09b92:	cfd4                	sw	a3,28(a5)
    3bc09b94:	6691                	lui	a3,0x4
    3bc09b96:	f3f68693          	addi	a3,a3,-193 # 3f3f <__BSS_SIZE__-0x1cd1>
    3bc09b9a:	d394                	sw	a3,32(a5)
    3bc09b9c:	d3d8                	sw	a4,36(a5)
    3bc09b9e:	d798                	sw	a4,40(a5)
    3bc09ba0:	001f2737          	lui	a4,0x1f2
    3bc09ba4:	f0670713          	addi	a4,a4,-250 # 1f1f06 <__BSS_SIZE__+0x1ec2f6>
    3bc09ba8:	b739                	j	3bc09ab6 <ctrl_init_update_by_dram_size+0xc0>
    3bc09baa:	00510737          	lui	a4,0x510
    3bc09bae:	080047b7          	lui	a5,0x8004
    3bc09bb2:	04170713          	addi	a4,a4,65 # 510041 <__BSS_SIZE__+0x50a431>
    3bc09bb6:	d3f8                	sw	a4,100(a5)
    3bc09bb8:	0b0f1737          	lui	a4,0xb0f1
    3bc09bbc:	61070713          	addi	a4,a4,1552 # b0f1610 <p_rom_api_cryptodma_aes_decrypt+0x6cf1510>
    3bc09bc0:	10e7a023          	sw	a4,256(a5) # 8004100 <p_rom_api_cryptodma_aes_decrypt+0x3c04000>
    3bc09bc4:	50400713          	li	a4,1284
    3bc09bc8:	b761                	j	3bc09b50 <ctrl_init_update_by_dram_size+0x15a>
    3bc09bca:	00510737          	lui	a4,0x510
    3bc09bce:	080047b7          	lui	a5,0x8004
    3bc09bd2:	06e70713          	addi	a4,a4,110 # 51006e <__BSS_SIZE__+0x50a45e>
    3bc09bd6:	d3f8                	sw	a4,100(a5)
    3bc09bd8:	0b0f1737          	lui	a4,0xb0f1
    3bc09bdc:	61070713          	addi	a4,a4,1552 # b0f1610 <p_rom_api_cryptodma_aes_decrypt+0x6cf1510>
    3bc09be0:	10e7a023          	sw	a4,256(a5) # 8004100 <p_rom_api_cryptodma_aes_decrypt+0x3c04000>
    3bc09be4:	50500713          	li	a4,1285
    3bc09be8:	b7a5                	j	3bc09b50 <ctrl_init_update_by_dram_size+0x15a>
    3bc09bea:	4719                	li	a4,6
    3bc09bec:	eee788e3          	beq	a5,a4,3bc09adc <ctrl_init_update_by_dram_size+0xe6>
    3bc09bf0:	00f74c63          	blt	a4,a5,3bc09c08 <ctrl_init_update_by_dram_size+0x212>
    3bc09bf4:	4715                	li	a4,5
    3bc09bf6:	e6e786e3          	beq	a5,a4,3bc09a62 <ctrl_init_update_by_dram_size+0x6c>
    3bc09bfa:	080047b7          	lui	a5,0x8004
    3bc09bfe:	4709                	li	a4,2
    3bc09c00:	d3b8                	sw	a4,96(a5)
    3bc09c02:	0607a023          	sw	zero,96(a5) # 8004060 <p_rom_api_cryptodma_aes_decrypt+0x3c03f60>
    3bc09c06:	8082                	ret
    3bc09c08:	37e5                	addiw	a5,a5,-7
    3bc09c0a:	4709                	li	a4,2
    3bc09c0c:	fef767e3          	bltu	a4,a5,3bc09bfa <ctrl_init_update_by_dram_size+0x204>
    3bc09c10:	b791                	j	3bc09b54 <ctrl_init_update_by_dram_size+0x15e>

000000003bc09c12 <phy_init>:
    3bc09c12:	03020737          	lui	a4,0x3020
    3bc09c16:	080007b7          	lui	a5,0x8000
    3bc09c1a:	10070713          	addi	a4,a4,256 # 3020100 <__BSS_SIZE__+0x301a4f0>
    3bc09c1e:	c398                	sw	a4,0(a5)
    3bc09c20:	07060737          	lui	a4,0x7060
    3bc09c24:	50470713          	addi	a4,a4,1284 # 7060504 <p_rom_api_cryptodma_aes_decrypt+0x2c60404>
    3bc09c28:	c3d8                	sw	a4,4(a5)
    3bc09c2a:	0b0a1737          	lui	a4,0xb0a1
    3bc09c2e:	90870713          	addi	a4,a4,-1784 # b0a0908 <p_rom_api_cryptodma_aes_decrypt+0x6ca0808>
    3bc09c32:	c798                	sw	a4,8(a5)
    3bc09c34:	0f0e1737          	lui	a4,0xf0e1
    3bc09c38:	d0c70713          	addi	a4,a4,-756 # f0e0d0c <p_rom_api_cryptodma_aes_decrypt+0xace0c0c>
    3bc09c3c:	c7d8                	sw	a4,12(a5)
    3bc09c3e:	13121737          	lui	a4,0x13121
    3bc09c42:	11070713          	addi	a4,a4,272 # 13121110 <p_rom_api_cryptodma_aes_decrypt+0xed21010>
    3bc09c46:	cb98                	sw	a4,16(a5)
    3bc09c48:	00161737          	lui	a4,0x161
    3bc09c4c:	51470713          	addi	a4,a4,1300 # 161514 <__BSS_SIZE__+0x15b904>
    3bc09c50:	cbd8                	sw	a4,20(a5)
    3bc09c52:	0007ac23          	sw	zero,24(a5) # 8000018 <p_rom_api_cryptodma_aes_decrypt+0x3bfff18>
    3bc09c56:	10000593          	li	a1,256
    3bc09c5a:	76543737          	lui	a4,0x76543
    3bc09c5e:	cfcc                	sw	a1,28(a5)
    3bc09c60:	21070713          	addi	a4,a4,528 # 76543210 <__BL2_END__+0x3a92fe00>
    3bc09c64:	d398                	sw	a4,32(a5)
    3bc09c66:	46a1                	li	a3,8
    3bc09c68:	d3d4                	sw	a3,36(a5)
    3bc09c6a:	d798                	sw	a4,40(a5)
    3bc09c6c:	d7d4                	sw	a3,44(a5)
    3bc09c6e:	007f0737          	lui	a4,0x7f0
    3bc09c72:	0407a023          	sw	zero,64(a5)
    3bc09c76:	0735                	addi	a4,a4,13
    3bc09c78:	c3f8                	sw	a4,68(a5)
    3bc09c7a:	0407a423          	sw	zero,72(a5)
    3bc09c7e:	4741                	li	a4,16
    3bc09c80:	c7f8                	sw	a4,76(a5)
    3bc09c82:	4611                	li	a2,4
    3bc09c84:	0c001737          	lui	a4,0xc001
    3bc09c88:	cbb0                	sw	a2,80(a5)
    3bc09c8a:	b0070713          	addi	a4,a4,-1280 # c000b00 <p_rom_api_cryptodma_aes_decrypt+0x7c00a00>
    3bc09c8e:	cbf8                	sw	a4,84(a5)
    3bc09c90:	09160737          	lui	a4,0x9160
    3bc09c94:	04f70713          	addi	a4,a4,79 # 916004f <p_rom_api_cryptodma_aes_decrypt+0x4d5ff4f>
    3bc09c98:	cfb8                	sw	a4,88(a5)
    3bc09c9a:	040008b7          	lui	a7,0x4000
    3bc09c9e:	0407ae23          	sw	zero,92(a5)
    3bc09ca2:	37088713          	addi	a4,a7,880 # 4000370 <__BSS_SIZE__+0x3ffa760>
    3bc09ca6:	d3b8                	sw	a4,96(a5)
    3bc09ca8:	0e001737          	lui	a4,0xe001
    3bc09cac:	94070713          	addi	a4,a4,-1728 # e000940 <p_rom_api_cryptodma_aes_decrypt+0x9c00840>
    3bc09cb0:	d3f8                	sw	a4,100(a5)
    3bc09cb2:	00800737          	lui	a4,0x800
    3bc09cb6:	d7b8                	sw	a4,104(a5)
    3bc09cb8:	10800713          	li	a4,264
    3bc09cbc:	dbb8                	sw	a4,112(a5)
    3bc09cbe:	00072737          	lui	a4,0x72
    3bc09cc2:	dbf8                	sw	a4,116(a5)
    3bc09cc4:	1f00e6b7          	lui	a3,0x1f00e
    3bc09cc8:	08078713          	addi	a4,a5,128
    3bc09ccc:	c314                	sw	a3,0(a4)
    3bc09cce:	010916b7          	lui	a3,0x1091
    3bc09cd2:	06bd                	addi	a3,a3,15
    3bc09cd4:	c354                	sw	a3,4(a4)
    3bc09cd6:	0a0106b7          	lui	a3,0xa010
    3bc09cda:	11468693          	addi	a3,a3,276 # a010114 <p_rom_api_cryptodma_aes_decrypt+0x5c10014>
    3bc09cde:	c714                	sw	a3,8(a4)
    3bc09ce0:	aaaa06b7          	lui	a3,0xaaaa0
    3bc09ce4:	08f68693          	addi	a3,a3,143 # ffffffffaaaa008f <__BL2_END__+0xffffffff6ee8cc7f>
    3bc09ce8:	c754                	sw	a3,12(a4)
    3bc09cea:	6691                	lui	a3,0x4
    3bc09cec:	80068513          	addi	a0,a3,-2048 # 3800 <__BSS_SIZE__-0x2410>
    3bc09cf0:	cb08                	sw	a0,16(a4)
    3bc09cf2:	6505                	lui	a0,0x1
    3bc09cf4:	80150813          	addi	a6,a0,-2047 # 801 <__BSS_SIZE__-0x540f>
    3bc09cf8:	01072a23          	sw	a6,20(a4) # 72014 <__BSS_SIZE__+0x6c404>
    3bc09cfc:	07400837          	lui	a6,0x7400
    3bc09d00:	54080813          	addi	a6,a6,1344 # 7400540 <p_rom_api_cryptodma_aes_decrypt+0x3000440>
    3bc09d04:	03072023          	sw	a6,32(a4)
    3bc09d08:	01420837          	lui	a6,0x1420
    3bc09d0c:	50480813          	addi	a6,a6,1284 # 1420504 <__BSS_SIZE__+0x141a8f4>
    3bc09d10:	03072223          	sw	a6,36(a4)
    3bc09d14:	00550837          	lui	a6,0x550
    3bc09d18:	0829                	addi	a6,a6,10
    3bc09d1a:	03072423          	sw	a6,40(a4)
    3bc09d1e:	00554837          	lui	a6,0x554
    3bc09d22:	c5a80813          	addi	a6,a6,-934 # 553c5a <__BSS_SIZE__+0x54e04a>
    3bc09d26:	03072623          	sw	a6,44(a4)
    3bc09d2a:	00aaa837          	lui	a6,0xaaa
    3bc09d2e:	5c380813          	addi	a6,a6,1475 # aaa5c3 <__BSS_SIZE__+0xaa49b3>
    3bc09d32:	03072823          	sw	a6,48(a4)
    3bc09d36:	00aaf837          	lui	a6,0xaaf
    3bc09d3a:	0f080813          	addi	a6,a6,240 # aaf0f0 <__BSS_SIZE__+0xaa94e0>
    3bc09d3e:	03072a23          	sw	a6,52(a4)
    3bc09d42:	1e001837          	lui	a6,0x1e001
    3bc09d46:	f0f80813          	addi	a6,a6,-241 # 1e000f0f <p_rom_api_cryptodma_aes_decrypt+0x19c00e0f>
    3bc09d4a:	03072c23          	sw	a6,56(a4)
    3bc09d4e:	00084837          	lui	a6,0x84
    3bc09d52:	e1380813          	addi	a6,a6,-493 # 83e13 <__BSS_SIZE__+0x7e203>
    3bc09d56:	03072e23          	sw	a6,60(a4)
    3bc09d5a:	00030837          	lui	a6,0x30
    3bc09d5e:	0e07a823          	sw	zero,240(a5)
    3bc09d62:	03380813          	addi	a6,a6,51 # 30033 <__BSS_SIZE__+0x2a423>
    3bc09d66:	07072a23          	sw	a6,116(a4)
    3bc09d6a:	00210837          	lui	a6,0x210
    3bc09d6e:	02c80813          	addi	a6,a6,44 # 21002c <__BSS_SIZE__+0x20a41c>
    3bc09d72:	07072c23          	sw	a6,120(a4)
    3bc09d76:	00370837          	lui	a6,0x370
    3bc09d7a:	0859                	addi	a6,a6,22
    3bc09d7c:	07072e23          	sw	a6,124(a4)
    3bc09d80:	10078713          	addi	a4,a5,256
    3bc09d84:	01172023          	sw	a7,0(a4)
    3bc09d88:	1007a223          	sw	zero,260(a5)
    3bc09d8c:	1007a623          	sw	zero,268(a5)
    3bc09d90:	1007a823          	sw	zero,272(a5)
    3bc09d94:	1007aa23          	sw	zero,276(a5)
    3bc09d98:	681d                	lui	a6,0x7
    3bc09d9a:	1007ac23          	sw	zero,280(a5)
    3bc09d9e:	a1080813          	addi	a6,a6,-1520 # 6a10 <__BSS_SIZE__+0xe00>
    3bc09da2:	01072e23          	sw	a6,28(a4)
    3bc09da6:	1207a023          	sw	zero,288(a5)
    3bc09daa:	ef700813          	li	a6,-265
    3bc09dae:	03072223          	sw	a6,36(a4)
    3bc09db2:	487d                	li	a6,31
    3bc09db4:	03072423          	sw	a6,40(a4)
    3bc09db8:	4805                	li	a6,1
    3bc09dba:	03072623          	sw	a6,44(a4)
    3bc09dbe:	10100813          	li	a6,257
    3bc09dc2:	03072823          	sw	a6,48(a4)
    3bc09dc6:	db4c                	sw	a1,52(a4)
    3bc09dc8:	48d1                	li	a7,20
    3bc09dca:	03172c23          	sw	a7,56(a4)
    3bc09dce:	1407a023          	sw	zero,320(a5)
    3bc09dd2:	1407a223          	sw	zero,324(a5)
    3bc09dd6:	80850e13          	addi	t3,a0,-2040
    3bc09dda:	05c72423          	sw	t3,72(a4)
    3bc09dde:	1407a623          	sw	zero,332(a5)
    3bc09de2:	4895                	li	a7,5
    3bc09de4:	05172823          	sw	a7,80(a4)
    3bc09de8:	05072a23          	sw	a6,84(a4)
    3bc09dec:	1407ac23          	sw	zero,344(a5)
    3bc09df0:	00333837          	lui	a6,0x333
    3bc09df4:	1407ae23          	sw	zero,348(a5)
    3bc09df8:	33180813          	addi	a6,a6,817 # 333331 <__BSS_SIZE__+0x32d721>
    3bc09dfc:	1607a223          	sw	zero,356(a5)
    3bc09e00:	07072423          	sw	a6,104(a4)
    3bc09e04:	1607a623          	sw	zero,364(a5)
    3bc09e08:	1607a823          	sw	zero,368(a5)
    3bc09e0c:	db6c                	sw	a1,116(a4)
    3bc09e0e:	000205b7          	lui	a1,0x20
    3bc09e12:	18078713          	addi	a4,a5,384
    3bc09e16:	05c1                	addi	a1,a1,16
    3bc09e18:	c30c                	sw	a1,0(a4)
    3bc09e1a:	1807a223          	sw	zero,388(a5)
    3bc09e1e:	000505b7          	lui	a1,0x50
    3bc09e22:	1807a423          	sw	zero,392(a5)
    3bc09e26:	40058593          	addi	a1,a1,1024 # 50400 <__BSS_SIZE__+0x4a7f0>
    3bc09e2a:	c74c                	sw	a1,12(a4)
    3bc09e2c:	000215b7          	lui	a1,0x21
    3bc09e30:	20e58593          	addi	a1,a1,526 # 2120e <__BSS_SIZE__+0x1b5fe>
    3bc09e34:	cb0c                	sw	a1,16(a4)
    3bc09e36:	2007a023          	sw	zero,512(a5)
    3bc09e3a:	20078713          	addi	a4,a5,512
    3bc09e3e:	44000593          	li	a1,1088
    3bc09e42:	c34c                	sw	a1,4(a4)
    3bc09e44:	2007a423          	sw	zero,520(a5)
    3bc09e48:	2207a023          	sw	zero,544(a5)
    3bc09e4c:	d34c                	sw	a1,36(a4)
    3bc09e4e:	2207a423          	sw	zero,552(a5)
    3bc09e52:	4007a023          	sw	zero,1024(a5)
    3bc09e56:	4007a223          	sw	zero,1028(a5)
    3bc09e5a:	4007a423          	sw	zero,1032(a5)
    3bc09e5e:	4007a623          	sw	zero,1036(a5)
    3bc09e62:	001005b7          	lui	a1,0x100
    3bc09e66:	40078713          	addi	a4,a5,1024
    3bc09e6a:	e4b7558b          	swd	a1,a1,(a4),2,3
    3bc09e6e:	4007ac23          	sw	zero,1048(a5)
    3bc09e72:	04068693          	addi	a3,a3,64
    3bc09e76:	cf54                	sw	a3,28(a4)
    3bc09e78:	000416b7          	lui	a3,0x41
    3bc09e7c:	50078713          	addi	a4,a5,1280
    3bc09e80:	0685                	addi	a3,a3,1
    3bc09e82:	e0b7568b          	swd	a3,a1,(a4),0,3
    3bc09e86:	5007a423          	sw	zero,1288(a5)
    3bc09e8a:	5007a623          	sw	zero,1292(a5)
    3bc09e8e:	cb10                	sw	a2,16(a4)
    3bc09e90:	5007aa23          	sw	zero,1300(a5)
    3bc09e94:	5007ac23          	sw	zero,1304(a5)
    3bc09e98:	5007ae23          	sw	zero,1308(a5)
    3bc09e9c:	480d                	li	a6,3
    3bc09e9e:	03072023          	sw	a6,32(a4)
    3bc09ea2:	c334                	sw	a3,64(a4)
    3bc09ea4:	c36c                	sw	a1,68(a4)
    3bc09ea6:	5407a423          	sw	zero,1352(a5)
    3bc09eaa:	5407a623          	sw	zero,1356(a5)
    3bc09eae:	cb30                	sw	a2,80(a4)
    3bc09eb0:	5407aa23          	sw	zero,1364(a5)
    3bc09eb4:	5407ac23          	sw	zero,1368(a5)
    3bc09eb8:	5407ae23          	sw	zero,1372(a5)
    3bc09ebc:	07072023          	sw	a6,96(a4)
    3bc09ec0:	08001737          	lui	a4,0x8001
    3bc09ec4:	90070793          	addi	a5,a4,-1792 # 8000900 <p_rom_api_cryptodma_aes_decrypt+0x3c00800>
    3bc09ec8:	40000693          	li	a3,1024
    3bc09ecc:	c394                	sw	a3,0(a5)
    3bc09ece:	d7d4                	sw	a3,44(a5)
    3bc09ed0:	db94                	sw	a3,48(a5)
    3bc09ed2:	dbd4                	sw	a3,52(a5)
    3bc09ed4:	df94                	sw	a3,56(a5)
    3bc09ed6:	94072023          	sw	zero,-1728(a4)
    3bc09eda:	96072823          	sw	zero,-1680(a4)
    3bc09ede:	96072a23          	sw	zero,-1676(a4)
    3bc09ee2:	080806b7          	lui	a3,0x8080
    3bc09ee6:	96072c23          	sw	zero,-1672(a4)
    3bc09eea:	40468693          	addi	a3,a3,1028 # 8080404 <p_rom_api_cryptodma_aes_decrypt+0x3c80304>
    3bc09eee:	08081837          	lui	a6,0x8081
    3bc09ef2:	dff4                	sw	a3,124(a5)
    3bc09ef4:	80880813          	addi	a6,a6,-2040 # 8080808 <p_rom_api_cryptodma_aes_decrypt+0x3c80708>
    3bc09ef8:	98070793          	addi	a5,a4,-1664
    3bc09efc:	06400637          	lui	a2,0x6400
    3bc09f00:	0107a023          	sw	a6,0(a5)
    3bc09f04:	64060613          	addi	a2,a2,1600 # 6400640 <p_rom_api_cryptodma_aes_decrypt+0x2000540>
    3bc09f08:	a0070793          	addi	a5,a4,-1536
    3bc09f0c:	e0c7d60b          	swd	a2,a2,(a5),0,3
    3bc09f10:	e2c7d60b          	swd	a2,a2,(a5),1,3
    3bc09f14:	64000f93          	li	t6,1600
    3bc09f18:	01f7a823          	sw	t6,16(a5)
    3bc09f1c:	0d000f37          	lui	t5,0xd000
    3bc09f20:	0a001337          	lui	t1,0xa001
    3bc09f24:	01e7aa23          	sw	t5,20(a5)
    3bc09f28:	b0030313          	addi	t1,t1,-1280 # a000b00 <p_rom_api_cryptodma_aes_decrypt+0x5c00a00>
    3bc09f2c:	000408b7          	lui	a7,0x40
    3bc09f30:	0067ac23          	sw	t1,24(a5)
    3bc09f34:	40088893          	addi	a7,a7,1024 # 40400 <__BSS_SIZE__+0x3a7f0>
    3bc09f38:	004006b7          	lui	a3,0x400
    3bc09f3c:	04068693          	addi	a3,a3,64 # 400040 <__BSS_SIZE__+0x3fa430>
    3bc09f40:	0117ae23          	sw	a7,28(a5)
    3bc09f44:	d394                	sw	a3,32(a5)
    3bc09f46:	d3d4                	sw	a3,36(a5)
    3bc09f48:	d794                	sw	a3,40(a5)
    3bc09f4a:	d7d4                	sw	a3,44(a5)
    3bc09f4c:	04000e93          	li	t4,64
    3bc09f50:	03d7a823          	sw	t4,48(a5)
    3bc09f54:	a2072a23          	sw	zero,-1484(a4)
    3bc09f58:	03c7ac23          	sw	t3,56(a5)
    3bc09f5c:	0307ae23          	sw	a6,60(a5)
    3bc09f60:	c3b0                	sw	a2,64(a5)
    3bc09f62:	c3f0                	sw	a2,68(a5)
    3bc09f64:	c7b0                	sw	a2,72(a5)
    3bc09f66:	c7f0                	sw	a2,76(a5)
    3bc09f68:	05f7a823          	sw	t6,80(a5)
    3bc09f6c:	05e7aa23          	sw	t5,84(a5)
    3bc09f70:	0467ac23          	sw	t1,88(a5)
    3bc09f74:	0517ae23          	sw	a7,92(a5)
    3bc09f78:	d3b4                	sw	a3,96(a5)
    3bc09f7a:	d3f4                	sw	a3,100(a5)
    3bc09f7c:	d7b4                	sw	a3,104(a5)
    3bc09f7e:	d7f4                	sw	a3,108(a5)
    3bc09f80:	07d7a823          	sw	t4,112(a5)
    3bc09f84:	a6072a23          	sw	zero,-1420(a4)
    3bc09f88:	07c7ac23          	sw	t3,120(a5)
    3bc09f8c:	0707ae23          	sw	a6,124(a5)
    3bc09f90:	b0072023          	sw	zero,-1280(a4)
    3bc09f94:	b0072223          	sw	zero,-1276(a4)
    3bc09f98:	b0070793          	addi	a5,a4,-1280
    3bc09f9c:	00404837          	lui	a6,0x404
    3bc09fa0:	0107a423          	sw	a6,8(a5)
    3bc09fa4:	90050513          	addi	a0,a0,-1792
    3bc09fa8:	c7c8                	sw	a0,12(a5)
    3bc09faa:	000716b7          	lui	a3,0x71
    3bc09fae:	b0072823          	sw	zero,-1264(a4)
    3bc09fb2:	e0e68693          	addi	a3,a3,-498 # 70e0e <__BSS_SIZE__+0x6b1fe>
    3bc09fb6:	cbd4                	sw	a3,20(a5)
    3bc09fb8:	b0072c23          	sw	zero,-1256(a4)
    3bc09fbc:	b0072e23          	sw	zero,-1252(a4)
    3bc09fc0:	40400637          	lui	a2,0x40400
    3bc09fc4:	d390                	sw	a2,32(a5)
    3bc09fc6:	05c1                	addi	a1,a1,16
    3bc09fc8:	d3cc                	sw	a1,36(a5)
    3bc09fca:	b2072823          	sw	zero,-1232(a4)
    3bc09fce:	b2072a23          	sw	zero,-1228(a4)
    3bc09fd2:	0307ac23          	sw	a6,56(a5)
    3bc09fd6:	dfc8                	sw	a0,60(a5)
    3bc09fd8:	b4072023          	sw	zero,-1216(a4)
    3bc09fdc:	c3f4                	sw	a3,68(a5)
    3bc09fde:	b4072423          	sw	zero,-1208(a4)
    3bc09fe2:	b4072623          	sw	zero,-1204(a4)
    3bc09fe6:	cbb0                	sw	a2,80(a5)
    3bc09fe8:	cbec                	sw	a1,84(a5)
    3bc09fea:	8082                	ret
    3bc09fec:	0000                	unimp
	...

000000003bc09ff0 <build_message>:
    3bc09ff0:	3032 3232 312d 2d32 3032 3254 3a31 3535     2022-12-20T21:55
    3bc0a000:	333a 2b36 3830 303a 0030 0000 0000 0000     :36+08:00.......

000000003bc0a010 <version_string>:
    3bc0a010:	624a 3832 3967 673a 6536 3835 6565 0031     Jb28g9:g6e58ee1.
    3bc0a020:	3201 504f 4e45 4253 3a49 6e20 7865 5f74     .2OPENSBI: next_
    3bc0a030:	6461 7264 303d 2578 786c 6120 6772 3d31     addr=0x%lx arg1=
    3bc0a040:	7830 6c25 0078 0000 7830 0000 63c6 ffff     0x%lx...0x...c..
    3bc0a050:	636c ffff 636c ffff 636c ffff 636c ffff     lc..lc..lc..lc..
    3bc0a060:	63c6 ffff 636c ffff 636c ffff 647a ffff     .c..lc..lc..zd..
    3bc0a070:	636c ffff 636c ffff 636c ffff 6422 ffff     lc..lc..lc.."d..
    3bc0a080:	636c ffff 636c ffff 6402 ffff 636c ffff     lc..lc...d..lc..
    3bc0a090:	6480 ffff 636c ffff 636c ffff 6456 ffff     .d..lc..lc..Vd..
    3bc0a0a0:	636c ffff 6474 ffff 3001 4520 523a 5345     lc..td...0 E:RES
    3bc0a0b0:	5445 253a 3a73 6425 000a 0000 0000 0000     ET:%s:%d........
    3bc0a0c0:	3001 4520 723a 3d61 7830 6c25 0a78 0000     .0 E:ra=0x%lx...
    3bc0a0d0:	6170 696e 0063 0000 3201 5352 2e43 000a     panic....2RSC...
    3bc0a0e0:	3201 4c50 534c 0a2e 0000 0000 0000 0000     .2PLLS..........
    3bc0a0f0:	3201 4c50 454c 0a2e 0000 0000 0000 0000     .2PLLE..........
    3bc0a100:	3201 7355 2065 6e69 6574 6e72 6c61 3320     .2Use internal 3
    3bc0a110:	6b32 000a 0000 0000 3201 7473 6f5f 5f6e     2k.......2st_on_
    3bc0a120:	6572 7361 6e6f 253d 0a78 0000 0000 0000     reason=%x.......
    3bc0a130:	3201 7473 6f5f 6666 725f 6165 6f73 3d6e     .2st_off_reason=
    3bc0a140:	7825 000a 0000 0000 0000 249f 1746 245d     %x.........$F.]$
    3bc0a150:	1746 245d aaab 24aa 8201 0012 8101 0018     F.]$...$........
    3bc0a160:	8201 0030 8101 0016 c906 a55a 0024 0000     ..0.......Z.$...

000000003bc0a170 <hex2ascii_data>:
    3bc0a170:	3130 3332 3534 3736 3938 6261 6463 6665     0123456789abcdef
    3bc0a180:	6867 6a69 6c6b 6e6d 706f 7271 7473 7675     ghijklmnopqrstuv
    3bc0a190:	7877 7a79 0000 0000 0101 0101 0101 0101     wxyz............
    3bc0a1a0:	3301 4920 4c3a 4549 252f 2f64 7025 302f     .3 I:LIE/%d/%p/0
    3bc0a1b0:	2578 2f78 6c25 2e75 000a 0000 0000 0000     x%x/%lu.........
    3bc0a1c0:	3201 3250 2f53 7830 6c25 2f78 7025 0a2e     .2P2S/0x%lx/%p..
	...
    3bc0a1d8:	3101 5720 4c3a 3250 4e5f 4d4f 4741 4349     .1 W:LP2_NOMAGIC
    3bc0a1e8:	000a 0000 0000 0000 3001 4520 703a 7261     .........0 E:par
    3bc0a1f8:	6d61 5f32 6b63 7573 206d 3028 2578 2f78     am2_cksum (0x%x/
    3bc0a208:	7830 7825 0a29 0000 3201 3250 2e45 000a     0x%x)....2P2E...
    3bc0a218:	3201 5044 2f53 7830 7825 302f 2578 2e78     .2DPS/0x%x/0x%x.
    3bc0a228:	000a 0000 0000 0000 3001 4520 643a 7264     .........0 E:ddr
    3bc0a238:	705f 7261 6d61 635f 736b 6d75 2820 7830     _param_cksum (0x
    3bc0a248:	7825 302f 2578 2978 000a 0000 0000 0000     %x/0x%x)........
    3bc0a258:	3201 5044 2e45 000a 3101 5720 443a 204c     .2DPE....1 W:DL 
    3bc0a268:	6163 636e 6c65 656c 2e64 4c20 616f 2064     cancelled. Load 
    3bc0a278:	6c66 7361 2e68 2820 6425 2e29 000a 0000     flash. (%d).....
    3bc0a288:	3001 4520 463a 6961 656c 2064 6f74 6c20     .0 E:Failed to l
    3bc0a298:	616f 2064 4444 2052 6170 6172 206d 2528     oad DDR param (%
    3bc0a2a8:	2964 0a2e 0000 0000 3201 3243 2f53 7830     d).......2C2S/0x
    3bc0a2b8:	7825 302f 2578 2f78 7830 7825 0a2e 0000     %x/0x%x/0x%x....
    3bc0a2c8:	3201 6f4e 4320 3039 4c36 6920 616d 6567     .2No C906L image
    3bc0a2d8:	0a2e 0000 0000 0000 3001 4520 623a 636c     .........0 E:blc
    3bc0a2e8:	5f70 6e32 5f64 7572 616e 6464 2072 3028     p_2nd_runaddr (0
    3bc0a2f8:	2578 2978 6920 2073 6f6e 2074 6e69 4420     x%x) is not in D
    3bc0a308:	4152 2e4d 000a 0000 3001 4520 623a 636c     RAM......0 E:blc
    3bc0a318:	5f70 6e32 5f64 6973 657a 2820 7830 7825     p_2nd_size (0x%x
    3bc0a328:	2029 7369 6e20 746f 6920 206e 5244 4d41     ) is not in DRAM
    3bc0a338:	0a2e 0000 0000 0000 3001 4520 623a 636c     .........0 E:blc
    3bc0a348:	5f70 6e32 5f64 6b63 7573 206d 3028 2578     p_2nd_cksum (0x%
    3bc0a358:	2f78 7830 7825 0a29 0000 0000 0000 0000     x/0x%x).........
    3bc0a368:	3001 4520 763a 7265 6669 2079 6c62 7063     .0 E:verify blcp
    3bc0a378:	3220 646e 2820 6425 0a29 0000 0000 0000      2nd (%d).......
    3bc0a388:	3201 3243 2e45 000a 3201 534d 302f 2578     .2C2E....2MS/0x%
    3bc0a398:	2f78 7830 7825 302f 2578 2e78 000a 0000     x/0x%x/0x%x.....
    3bc0a3a8:	3201 6f4e 6d20 6e6f 7469 726f 0a2e 0000     .2No monitor....
    3bc0a3b8:	3001 4520 6d3a 6e6f 7469 726f 725f 6e75     .0 E:monitor_run
    3bc0a3c8:	6461 7264 2820 7830 7825 2029 7369 6e20     addr (0x%x) is n
    3bc0a3d8:	746f 6920 206e 5244 4d41 0a2e 0000 0000     ot in DRAM......
    3bc0a3e8:	3001 4520 6d3a 6e6f 7469 726f 735f 7a69     .0 E:monitor_siz
    3bc0a3f8:	2065 3028 2578 2978 6920 2073 6f6e 2074     e (0x%x) is not 
    3bc0a408:	6e69 4420 4152 2e4d 000a 0000 0000 0000     in DRAM.........
    3bc0a418:	3001 4520 6d3a 6e6f 7469 726f 635f 736b     .0 E:monitor_cks
    3bc0a428:	6d75 2820 7830 7825 302f 2578 2978 000a     um (0x%x/0x%x)..
    3bc0a438:	3001 4520 763a 7265 6669 2079 6f6d 696e     .0 E:verify moni
    3bc0a448:	6f74 2072 2528 2964 000a 0000 0000 0000     tor (%d)........
    3bc0a458:	3201 454d 0a2e 0000 3201 324c 302f 2578     .2ME.....2L2/0x%
    3bc0a468:	2e78 000a 0000 0000 3201 324c 302f 2578     x........2L2/0x%
    3bc0a478:	2f78 7830 7825 302f 2578 786c 302f 2578     x/0x%x/0x%lx/0x%
    3bc0a488:	2f78 7830 7825 000a 3201 4f43 504d 252f     x/0x%x...2COMP/%
    3bc0a498:	2e64 000a 0000 0000 3001 4520 6c3a 616f     d........0 E:loa
    3bc0a4a8:	6564 5f72 6e32 5f64 6b63 7573 206d 3028     der_2nd_cksum (0
    3bc0a4b8:	2578 2f78 7830 7825 0a29 0000 0000 0000     x%x/0x%x).......
    3bc0a4c8:	3001 4520 763a 7265 6669 2079 6f6c 6461     .0 E:verify load
    3bc0a4d8:	7265 3220 646e 2820 6425 0a29 0000 0000     er 2nd (%d).....
    3bc0a4e8:	3001 4520 463a 6961 656c 2064 6f74 6420     .0 E:Failed to d
    3bc0a4f8:	6365 6d6f 7270 7365 2073 6f6c 6461 7265     ecompress loader
    3bc0a508:	325f 646e 2820 6425 252f 756c 0a29 0000     _2nd (%d/%lu)...
    3bc0a518:	3201 6f4c 6461 7265 325f 646e 6c20 616f     .2Loader_2nd loa
    3bc0a528:	6564 2e64 000a 0000 3001 4520 463a 6961     ded......0 E:Fai
    3bc0a538:	656c 2064 6f74 6c20 616f 2064 6572 7473     led to load rest
    3bc0a548:	2820 6425 2e29 000a 3201 754a 706d 7420      (%d)....2Jump t
    3bc0a558:	206f 6f6d 696e 6f74 2072 7461 3020 2578     o monitor at 0x%
    3bc0a568:	786c 0a2e 0000 0000 3201 754a 706d 7420     lx.......2Jump t
    3bc0a578:	206f 6f6c 6461 7265 325f 646e 6120 2074     o loader_2nd at 
    3bc0a588:	7830 6c25 2e78 000a 3201 460a 4253 204c     0x%lx....2.FSBL 
    3bc0a598:	7325 253a 0a73 0000 3301 4920 733a 5f77     %s:%s....3 I:sw_
    3bc0a5a8:	6e69 6f66 303d 2578 0a78 0000 0000 0000     info=0x%x.......
    3bc0a5b8:	3301 4920 663a 7069 705f 7261 6d61 3a31     .3 I:fip_param1:
    3bc0a5c8:	7020 7261 6d61 635f 736b 6d75 303d 2578      param_cksum=0x%
    3bc0a5d8:	2078 6170 6172 326d 6c5f 616f 6164 6464     x param2_loadadd
    3bc0a5e8:	3d72 7830 7825 000a 3301 4920 433a 5f50     r=0x%x...3 I:CP_
    3bc0a5f8:	5453 5441 5f45 4552 3d47 7830 7825 000a     STATE_REG=0x%x..
    3bc0a608:	3201 4c42 2032 6e65 2e64 000a 0000 0000     .2BL2 end.......
    3bc0a618:	5643 444c 3230 000a 3001 4520 253a 2073     CVLD02...0 E:%s 
    3bc0a628:	6163 276e 2074 6c61 6f6c 2063 6c25 2075     can't alloc %lu 
    3bc0a638:	7962 6574 0a73 0000 3001 4520 253a 3a73     bytes....0 E:%s:
    3bc0a648:	6420 7473 735f 7a69 2065 7369 4e20 4c55      dst_size is NUL
    3bc0a658:	2e4c 000a 0000 0000 3301 4920 4c3a 4d5a     L........3 I:LZM
    3bc0a668:	3141 252f 2f70 7025 0a2e 0000 0000 0000     A1/%p/%p........
    3bc0a678:	3301 4920 4c3a 4d5a 3241 752f 636e 6d6f     .3 I:LZMA2/uncom
    3bc0a688:	5f70 6973 657a 303d 2578 786c 000a 0000     p_size=0x%lx....
    3bc0a698:	3001 4520 4c3a 6d7a 4461 6365 646f 2065     .0 E:LzmaDecode 
    3bc0a6a8:	5245 4f52 3a52 2520 2064 7328 6174 7574     ERROR: %d (statu
    3bc0a6b8:	3d73 6425 0a29 0000 3301 4920 4c3a 4d5a     s=%d)....3 I:LZM
    3bc0a6c8:	3941 302f 2578 786c 000a 0000 0000 0000     A9/0x%lx........
    3bc0a6d8:	3301 4920 4c3a 345a 252f 2f70 7025 0a2e     .3 I:LZ4/%p/%p..
	...
    3bc0a6f0:	3001 4520 643a 7463 5378 6174 7574 3d73     .0 E:dctxStatus=
    3bc0a700:	6c25 0a75 0000 0000 3301 4920 643a 7473     %lu......3 I:dst
    3bc0a710:	735f 7a69 3d65 6c25 2075 7273 5f63 6973     _size=%lu src_si
    3bc0a720:	657a 253d 756c 7220 7465 253d 647a 000a     ze=%lu ret=%zd..
    3bc0a730:	3001 4520 4c3a 345a 5f46 6564 6f63 706d     .0 E:LZ4F_decomp
    3bc0a740:	6572 7373 253d 756c 000a 0000 0000 0000     ress=%lu........
    3bc0a750:	3201 4344 2f50 7025 302f 2578 786c 252f     .2DCP/%p/0x%lx/%
    3bc0a760:	2f70 7830 6c25 2f78 6425 0a2e 0000 0000     p/0x%lx/%d......
    3bc0a770:	3201 4344 2f50 7830 6c25 2f78 6425 0a2e     .2DCP/0x%lx/%d..
	...

000000003bc0a788 <__func__.0>:
    3bc0a788:	7a53 6c41 6f6c 0063                         SzAlloc.

000000003bc0a790 <__func__.1>:
    3bc0a790:	6564 6f63 706d 6572 7373 6c5f 6d7a 0061     decompress_lzma.
    3bc0a7a0:	3301 4920 413a 7070 696c 6163 6974 6e6f     .3 I:Application
    3bc0a7b0:	203a 7325 000a 0000 3301 4920 753a 6273     : %s.....3 I:usb
    3bc0a7c0:	2520 0a73 0000 0000 3201 5355 4242 002e      %s......2USBB..
    3bc0a7d0:	3301 4920 433a 4956 555f 4253 425f 4552     .3 I:CVI_USB_BRE
    3bc0a7e0:	4b41 000a 0000 0000 3201 5355 4b42 002e     AK.......2USBK..
    3bc0a7f0:	3301 4920 663a 616c 4567 746e 7265 4c44     .3 I:flagEnterDL
    3bc0a800:	2520 0a64 0000 0000 3301 4920 4d3a 4741      %d......3 I:MAG
    3bc0a810:	4349 4e20 4d55 4e20 544f 4d20 5441 4843     IC NUM NOT MATCH
    3bc0a820:	000a 0000 0000 0000 3201 5355 4b42 2e46     .........2USBKF.
	...
    3bc0a838:	3301 4920 493a 204f 6241 726f 2074 2121     .3 I:IO Abort !!
    3bc0a848:	2121 0a21 0000 0000 3301 4920 723a 6365     !!!......3 I:rec
    3bc0a858:	7069 6569 746e 7420 7261 6567 2074 6163     ipient target ca
    3bc0a868:	6e6e 746f 6220 2065 6e69 6574 6672 6361     nnot be interfac
    3bc0a878:	2165 000a 0000 0000 3201 5355 5042 302f     e!.......2USBP/0
    3bc0a888:	2578 2e78 0000 0000 3301 4920 663a 7374     x%x......3 I:fts
    3bc0a898:	5b6e 6425 205d 203d 7825 000a 0000 0000     n[%d] = %x......
    3bc0a8a8:	3301 4920 633a 6372 7620 6c61 3d20 2520     .3 I:crc val = %
    3bc0a8b8:	0a78 0000 0000 0000 3301 4920 743a 2073     x........3 I:ts 
    3bc0a8c8:	6176 206c 203d 7825 000a 0000 0000 0000     val = %x........
    3bc0a8d8:	3201 5355 5342 252f 2e73 0000 0000 0000     .2USBS/%s.......
    3bc0a8e8:	3231 3433 3635 3837 4139 4342 0000 0000     123456789ABC....
    3bc0a8f8:	7065 6931 2d6e 7562 6b6c 0000 0000 0000     ep1in-bulk......
    3bc0a908:	7065 6f32 7475 622d 6c75 006b 0000 0000     ep2out-bulk.....
    3bc0a918:	7065 6933 2d6e 6e69 0074 0000 737e ffff     ep3in-int...~s..
    3bc0a928:	7550 ffff 73e4 ffff 7416 ffff 7416 ffff     Pu...s...t...t..
    3bc0a938:	753c ffff 7550 ffff 7416 ffff 7416 ffff     <u..Pu...t...t..
    3bc0a948:	7416 ffff 7416 ffff 7416 ffff 7416 ffff     .t...t...t...t..
    3bc0a958:	7416 ffff 7510 ffff 3301 4920 623a 6c75     .t...u...3 I:bul
    3bc0a968:	426b 6675 6c41 6f6c 3a63 2520 0a70 0000     kBufAlloc: %p...
    3bc0a978:	3301 4920 633a 646d 7542 4166 6c6c 636f     .3 I:cmdBufAlloc
    3bc0a988:	203a 7025 000a 0000 3301 4920 633a 3062     : %p.....3 I:cb0
    3bc0a998:	625f 6675 203a 7025 000a 0000 0000 0000     _buf: %p........
    3bc0a9a8:	3301 4920 633a 3162 625f 6675 203a 7025     .3 I:cb1_buf: %p
    3bc0a9b8:	000a 0000 0000 0000 3301 4920 633a 3262     .........3 I:cb2
    3bc0a9c8:	625f 6675 203a 7025 000a 0000 0000 0000     _buf: %p........
    3bc0a9d8:	3301 4920 653a 3070 7542 6666 6c41 6f6c     .3 I:ep0BuffAllo
    3bc0a9e8:	3a63 2520 0a70 0000 3301 4920 723a 7073     c: %p....3 I:rsp
    3bc0a9f8:	625f 6675 203a 7025 000a 0000 0000 0000     _buf: %p........
    3bc0aa08:	3301 4920 613a 6d63 625f 6675 203a 7025     .3 I:acm_buf: %p
    3bc0aa18:	000a 0000 0000 0000 3301 4920 733a 7465     .........3 I:set
    3bc0aa28:	7075 625f 6675 203a 7025 000a 0000 0000     up_buf: %p......
    3bc0aa38:	3301 4920 683a 6e61 6c64 7265 203a 7025     .3 I:handler: %p
    3bc0aa48:	000a 0000 0000 0000 5643 5449 4b45 0000     ........CVITEK..
    3bc0aa58:	5355 2042 6f43 206d 6f50 7472 0000 0000     USB Com Port....
    3bc0aa68:	3301 4920 553a 4253 7620 7562 2073 7369     .3 I:USB vbus is
    3bc0aa78:	6f20 6666 000a 0000 3301 4920 743a 6d69      off.....3 I:tim
    3bc0aa88:	6f65 7475 695f 5f6e 736d 2520 0a64 0000     eout_in_ms %d...
    3bc0aa98:	3201 5355 4342 002e 3301 4920 553a 4253     .2USBC...3 I:USB
    3bc0aaa8:	7020 6c6f 696c 676e 7420 6d69 6f65 7475      polling timeout
    3bc0aab8:	695f 5f6e 736d 203a 6425 000a 0000 0000     _in_ms: %d......
    3bc0aac8:	3301 4920 473a 6461 6567 2074 6552 6967     .3 I:Gadget Regi
    3bc0aad8:	7473 7265 4620 6961 0a6c 0000 0000 0000     ster Fail.......
    3bc0aae8:	3301 4920 473a 6461 6567 2074 626f 656a     .3 I:Gadget obje
    3bc0aaf8:	7463 6e20 746f 6520 6978 7473 6465 0a21     ct not existed!.
	...
    3bc0ab10:	3201 5355 4542 2e46 0000 0000 0000 0000     .2USBEF.........
    3bc0ab20:	3301 4920 633a 6e6f 656e 7463 6f69 206e     .3 I:connection 
    3bc0ab30:	7073 6565 3a64 2520 0a64 0000 0000 0000     speed: %d.......
    3bc0ab40:	3201 5355 5742 252f 2e64 0000 0000 0000     .2USBW/%d.......
    3bc0ab50:	3201 5355 4442 002e 3201 5355 4c42 002e     .2USBD...2USBL..
    3bc0ab60:	3001 4520 553a 4253 4520 7272 726f 2520     .0 E:USB Error %
    3bc0ab70:	0a75 0000 0000 0000 5454 0059 0000 0000     u.......TTY.....

000000003bc0ab80 <__func__.0>:
    3bc0ab80:	6962 646e 0000 0000                         bind....

000000003bc0ab88 <__func__.1>:
    3bc0ab88:	6e75 6962 646e 0000                         unbind..

000000003bc0ab90 <__func__.4>:
    3bc0ab90:	6964 6373 6e6f 656e 7463 0000 0000 0000     disconnect......

000000003bc0aba0 <__func__.5>:
    3bc0aba0:	6572 6573 0074 0000 6177 6e72 6e69 2167     reset...warning!
    3bc0abb0:	6620 6572 2065 6e75 6966 696e 6873 6465      free unfinished
    3bc0abc0:	7220 7165 6575 7473 0a21 0000 0000 0000      request!.......
    3bc0abd0:	7325 203a 4820 4e41 2147 4120 4248 4920     %s:  HANG! AHB I
    3bc0abe0:	6c64 2065 5247 4353 4c54 000a 0000 0000     dle GRSCTL......
    3bc0abf0:	7325 203a 6974 656d 756f 2074 6c66 7375     %s: timeout flus
    3bc0ac00:	6968 676e 6620 6669 206f 4728 5352 4354     hing fifo (GRSTC
    3bc0ac10:	4c54 253d 3830 2978 000a 0000 0000 0000     TL=%08x)........
    3bc0ac20:	7325 203a 6974 656d 756f 2074 6c66 7375     %s: timeout flus
    3bc0ac30:	6968 676e 6620 6669 736f 2820 7267 7473     hing fifos (grst
    3bc0ac40:	7463 206c 203d 7830 7825 0a29 0000 0000     ctl = 0x%x).....
    3bc0ac50:	7325 203a 6163 6c6c 6620 726f 6520 3070     %s: call for ep0
    3bc0ac60:	6f2d 7475 000a 0000 7325 203a 6974 656d     -out....%s: time
    3bc0ac70:	756f 2074 4944 5045 4e49 2e54 414e 454b     out DIEPINT.NAKE
    3bc0ac80:	4646 000a 0000 0000 7325 203a 6974 656d     FF......%s: time
    3bc0ac90:	756f 2074 4947 544e 5453 2e53 4f47 5455     out GINTSTS.GOUT
    3bc0aca0:	414e 454b 4646 000a 7325 203a 6974 656d     NAKEFF..%s: time
    3bc0acb0:	756f 2074 4f44 5045 5443 2e4c 5045 6944     out DOEPCTL.EPDi
    3bc0acc0:	6173 6c62 0a65 0000 7325 2928 4820 4e41     sable...%s() HAN
    3bc0acd0:	2147 5320 666f 2074 6552 6573 2074 5247     G! Soft Reset GR
    3bc0ace0:	5453 5443 3d4c 3025 0a78 0000 0000 0000     STCTL=%0x.......
    3bc0acf0:	7325 2928 4820 4e41 2147 5320 666f 2074     %s() HANG! Soft 
    3bc0ad00:	2e34 2032 6552 6573 2074 5247 5453 5443     4.2 Reset GRSTCT
    3bc0ad10:	3d4c 3025 0a78 0000 7325 2928 4820 4e41     L=%0x...%s() HAN
    3bc0ad20:	2147 4120 4248 4920 6c64 2065 5247 5453     G! AHB Idle GRST
    3bc0ad30:	5443 3d4c 3025 0a78 0000 0000 0000 0000     CTL=%0x.........
    3bc0ad40:	6973 657a 6620 726f 6820 6e61 6c64 7265     size for handler
    3bc0ad50:	6920 2073 6f74 206f 6173 6c6d 206c 2528      is too samll (%
    3bc0ad60:	646c 202c 6425 0a29 0000 0000 0000 0000     ld, %d).........
    3bc0ad70:	6f4e 6d20 6d65 726f 2079 7661 6961 616c     No memory availa
    3bc0ad80:	6c62 2065 6f66 2072 4455 2143 000a 0000     ble for UDC!....

000000003bc0ad90 <__func__.0>:
    3bc0ad90:	7764 3263 655f 5f70 7473 706f 785f 6566     dwc2_ep_stop_xfe
    3bc0ada0:	0072 0000 0000 0000                         r.......

000000003bc0ada8 <__func__.1>:
    3bc0ada8:	645f 6377 5f32 7065 645f 7369 6261 656c     _dwc2_ep_disable
	...

000000003bc0adc0 <__func__.2>:
    3bc0adc0:	7764 3263 725f 6365 6e6f 6966 5f67 7375     dwc2_reconfig_us
    3bc0add0:	6462 0000 0000 0000                         bd......

000000003bc0add8 <__func__.3>:
    3bc0add8:	7764 3263 685f 6f73 6774 745f 6678 6669     dwc2_hsotg_txfif
    3bc0ade8:	5f6f 6c66 7375 0068                         o_flush.

000000003bc0adf0 <__func__.4>:
    3bc0adf0:	7764 3263 685f 6f73 6774 695f 696e 5f74     dwc2_hsotg_init_
    3bc0ae00:	6966 6f66 0000 0000                         fifo....

000000003bc0ae08 <driver_name>:
    3bc0ae08:	7764 3263 752d 6364 0000 0000 0000 0000     dwc2-udc........

000000003bc0ae18 <dwc2_udc_ops>:
	...
    3bc0ae20:	2ab4 3bc0 0000 0000 0000 0000 0000 0000     .*.;............
	...
    3bc0ae40:	279e 3bc0 0000 0000 0000 0000 0000 0000     .'.;............
	...

000000003bc0ae60 <ep0name>:
    3bc0ae60:	7065 2d30 6f63 746e 6f72 006c 0000 0000     ep0-control.....

000000003bc0ae70 <ep1name>:
    3bc0ae70:	7065 6931 2d6e 7562 6b6c 0000 0000 0000     ep1in-bulk......

000000003bc0ae80 <ep2name>:
    3bc0ae80:	7065 6f32 7475 622d 6c75 006b 0000 0000     ep2out-bulk.....

000000003bc0ae90 <ep3name>:
    3bc0ae90:	7065 6933 2d6e 6e69 0074 0000 0000 0000     ep3in-int.......
    3bc0aea0:	7263 2d71 623e 6572 7571 7365 3a74 7830     crq->brequest:0x
    3bc0aeb0:	7825 000a 8f90 ffff 906c ffff 91be ffff     %x......l.......
    3bc0aec0:	9110 ffff 91be ffff 8f24 ffff 8f72 ffff     ........$...r...
    3bc0aed0:	91be ffff 8f86 ffff 8f5a ffff 91be ffff     ........Z.......
    3bc0aee0:	8f7c ffff 0000 0000 7572 206e 6574 7473     |.......run test
    3bc0aef0:	6d20 646f 2065 6425 000a 0000 0000 0000      mode %d........
    3bc0af00:	3301 4920 553a 4253 4956 2f44 7825 0a2e     .3 I:USBVID/%x..
	...

000000003bc0af18 <crc16_tab>:
    3bc0af18:	0000 1021 2042 3063 4084 50a5 60c6 70e7     ..!.B c0.@.P.`.p
    3bc0af28:	8108 9129 a14a b16b c18c d1ad e1ce f1ef     ..).J.k.........
    3bc0af38:	1231 0210 3273 2252 52b5 4294 72f7 62d6     1...s2R".R.B.r.b
    3bc0af48:	9339 8318 b37b a35a d3bd c39c f3ff e3de     9...{.Z.........
    3bc0af58:	2462 3443 0420 1401 64e6 74c7 44a4 5485     b$C4 ....d.t.D.T
    3bc0af68:	a56a b54b 8528 9509 e5ee f5cf c5ac d58d     j.K.(...........
    3bc0af78:	3653 2672 1611 0630 76d7 66f6 5695 46b4     S6r&..0..v.f.V.F
    3bc0af88:	b75b a77a 9719 8738 f7df e7fe d79d c7bc     [.z...8.........
    3bc0af98:	48c4 58e5 6886 78a7 0840 1861 2802 3823     .H.X.h.x@.a..(#8
    3bc0afa8:	c9cc d9ed e98e f9af 8948 9969 a90a b92b     ........H.i...+.
    3bc0afb8:	5af5 4ad4 7ab7 6a96 1a71 0a50 3a33 2a12     .Z.J.z.jq.P.3:.*
    3bc0afc8:	dbfd cbdc fbbf eb9e 9b79 8b58 bb3b ab1a     ........y.X.;...
    3bc0afd8:	6ca6 7c87 4ce4 5cc5 2c22 3c03 0c60 1c41     .l.|.L.\",.<`.A.
    3bc0afe8:	edae fd8f cdec ddcd ad2a bd0b 8d68 9d49     ........*...h.I.
    3bc0aff8:	7e97 6eb6 5ed5 4ef4 3e13 2e32 1e51 0e70     .~.n.^.N.>2.Q.p.
    3bc0b008:	ff9f efbe dfdd cffc bf1b af3a 9f59 8f78     ..........:.Y.x.
    3bc0b018:	9188 81a9 b1ca a1eb d10c c12d f14e e16f     ..........-.N.o.
    3bc0b028:	1080 00a1 30c2 20e3 5004 4025 7046 6067     .....0. .P%@Fpg`
    3bc0b038:	83b9 9398 a3fb b3da c33d d31c e37f f35e     ........=.....^.
    3bc0b048:	02b1 1290 22f3 32d2 4235 5214 6277 7256     .....".25B.RwbVr
    3bc0b058:	b5ea a5cb 95a8 8589 f56e e54f d52c c50d     ........n.O.,...
    3bc0b068:	34e2 24c3 14a0 0481 7466 6447 5424 4405     .4.$....ftGd$T.D
    3bc0b078:	a7db b7fa 8799 97b8 e75f f77e c71d d73c     ........_.~...<.
    3bc0b088:	26d3 36f2 0691 16b0 6657 7676 4615 5634     .&.6....Wfvv.F4V
    3bc0b098:	d94c c96d f90e e92f 99c8 89e9 b98a a9ab     L.m.../.........
    3bc0b0a8:	5844 4865 7806 6827 18c0 08e1 3882 28a3     DXeH.x'h.....8.(
    3bc0b0b8:	cb7d db5c eb3f fb1e 8bf9 9bd8 abbb bb9a     }.\.?...........
    3bc0b0c8:	4a75 5a54 6a37 7a16 0af1 1ad0 2ab3 3a92     uJTZ7j.z.....*.:
    3bc0b0d8:	fd2e ed0f dd6c cd4d bdaa ad8b 9de8 8dc9     ....l.M.........
    3bc0b0e8:	7c26 6c07 5c64 4c45 3ca2 2c83 1ce0 0cc1     &|.ld\EL.<.,....
    3bc0b0f8:	ef1f ff3e cf5d df7c af9b bfba 8fd9 9ff8     ..>.].|.........
    3bc0b108:	6e17 7e36 4e55 5e74 2e93 3eb2 0ed1 1ef0     .n6~UNt^...>....
    3bc0b118:	c21c ffff c250 ffff c2be ffff c33a ffff     ....P.......:...
    3bc0b128:	c360 ffff c406 ffff c4b6 ffff c518 ffff     `...............
    3bc0b138:	c64c ffff c740 ffff c744 ffff c776 ffff     L...@...D...v...
    3bc0b148:	c7e6 ffff c806 ffff c860 ffff 0000 0000     ........`.......

000000003bc0b158 <blockSizes.0>:
    3bc0b158:	0000 0001 0000 0000 0000 0004 0000 0000     ................
    3bc0b168:	0000 0010 0000 0000 0000 0040 0000 0000     ..........@.....

000000003bc0b178 <dec64table>:
	...
    3bc0b184:	ffff ffff fffc ffff 0001 0000 0002 0000     ................
    3bc0b194:	0003 0000                                   ....

000000003bc0b198 <inc32table>:
    3bc0b198:	0000 0000 0001 0000 0002 0000 0001 0000     ................
    3bc0b1a8:	0000 0000 0004 0000 0004 0000 0004 0000     ................
    3bc0b1b8:	cb7e ffff cb5e ffff cb3e ffff c8fa ffff     ~...^...>.......
    3bc0b1c8:	c99c ffff ca4e ffff cb10 ffff c8cc ffff     ....N...........
    3bc0b1d8:	c96e ffff ca20 ffff cae2 ffff c89e ffff     n... ...........
    3bc0b1e8:	c940 ffff c9f2 ffff cab4 ffff 0000 0000     @...............
    3bc0b1f8:	3201 4444 2052 6e69 7469 0a2e 0000 0000     .2DDR init......
    3bc0b208:	3201 6464 5f72 6170 6172 5b6d 5d30 303d     .2ddr_param[0]=0
    3bc0b218:	2578 2e78 000a 0000 3201 6b70 5f67 7974     x%x......2pkg_ty
    3bc0b228:	6570 253d 0a78 0000 3201 6e32 0a64 0000     pe=%x....22nd...
    3bc0b238:	3201 6e75 6e6b 776f 206e 6b70 5f67 7974     .2unknown pkg_ty
    3bc0b248:	6570 303d 2578 0a78 0000 0000 0000 0000     pe=0x%x.........
    3bc0b258:	3201 2544 5f78 7825 255f 0a78 0000 0000     .2D%x_%x_%x.....
    3bc0b268:	3201 4444 3252 0000 3201 4444 3352 0000     .2DDR2...2DDR3..
    3bc0b278:	3201 6e75 6e6b 776f 206e 6576 646e 726f     .2unknown vendor
    3bc0b288:	253d 0064 0000 0000 3201 352d 3231 004d     =%d......2-512M.
    3bc0b298:	3201 312d 0047 0000 3201 322d 0047 0000     .2-1G....2-2G...
    3bc0b2a8:	3201 342d 0047 0000 3201 752d 6b6e 6f6e     .2-4G....2-unkno
    3bc0b2b8:	6e77 6320 7061 6361 7469 3d79 6425 0000     wn capacity=%d..
    3bc0b2c8:	3201 512d 4e46 3838 000a 0000 0000 0000     .2-QFN88........
    3bc0b2d8:	3201 512d 4e46 3836 000a 0000 0000 0000     .2-QFN68........
    3bc0b2e8:	3201 422d 4147 000a 3201 752d 6b6e 6f6e     .2-BGA...2-unkno
    3bc0b2f8:	6e77 7020 676b 253d 0064 0000 cf3c ffff     wn pkg=%d...<...
    3bc0b308:	cfc2 ffff cf1a ffff cf2c ffff cf3c ffff     ........,...<...
    3bc0b318:	cfc2 ffff cfa4 ffff cfb4 ffff cfea ffff     ................
    3bc0b328:	cfea ffff cfea ffff cfb0 ffff cfea ffff     ................
    3bc0b338:	cfea ffff cfea ffff cfea ffff cfb0 ffff     ................
    3bc0b348:	cfea ffff 0000 0000 3001 4520 453a 5252     .........0 E:ERR
    3bc0b358:	524f 6220 7369 5f74 6166 6c69 000a 0000     OR bist_fail....
    3bc0b368:	3001 4520 623a 7369 5f74 6572 7573 746c     .0 E:bist_result
    3bc0b378:	3d20 2520 2c78 6520 7272 645f 7461 5f61      = %x, err_data_
    3bc0b388:	646f 2064 203d 6c25 2c78 6520 7272 645f     odd = %lx, err_d
    3bc0b398:	7461 5f61 7665 6e65 3d20 2520 786c 000a     ata_even = %lx..
    3bc0b3a8:	3201 4444 2052 4942 5453 4620 4941 0a4c     .2DDR BIST FAIL.
	...
    3bc0b3c0:	3201 4444 2052 4942 5453 5020 5341 0a53     .2DDR BIST PASS.
	...
    3bc0b3d8:	fa02 401f fa02 801f 2c02 4010 2c02 8010     ...@.....,.@.,..
    3bc0b3e8:	7a00 4000 7a00 8000 3a00 4000 3a00 8000     .z.@.z...:.@.:..
    3bc0b3f8:	e08c ffff e0f0 ffff e150 ffff e1bc ffff     ........P.......
    3bc0b408:	e280 ffff e220 ffff e1b6 ffff e1b6 ffff     .... ...........
    3bc0b418:	e342 ffff e2e0 ffff e622 ffff e69a ffff     B.......".......
    3bc0b428:	e712 ffff e78a ffff e7aa ffff               ............
