
/root/.jenkins/workspace/cv180x_v4.0.0_release_build/fsbl/build/cv1800c_wevb_0009a_spinor/bl2/bl2.elf:     file format elf64-littleriscv
/root/.jenkins/workspace/cv180x_v4.0.0_release_build/fsbl/build/cv1800c_wevb_0009a_spinor/bl2/bl2.elf
architecture: riscv:rv64, flags 0x00000112:
EXEC_P, HAS_SYMS, D_PAGED
start address 0x000000003bc00000

Program Header:
    LOAD off    0x0000000000001000 vaddr 0x000000003bc00000 paddr 0x000000003bc00000 align 2**12
         filesz 0x000000000000b700 memsz 0x0000000000013410 flags rwx
   STACK off    0x0000000000000000 vaddr 0x0000000000000000 paddr 0x0000000000000000 align 2**4
         filesz 0x0000000000000000 memsz 0x0000000000000000 flags rw-

Sections:
Idx Name          Size      VMA               LMA               File off  Algn
  0 ro            0000b434  000000003bc00000  000000003bc00000  00001000  2**3
                  CONTENTS, ALLOC, LOAD, READONLY, CODE
  1 .data         000002cc  000000003bc0b434  000000003bc0b434  0000c434  2**3
                  CONTENTS, ALLOC, LOAD, DATA
  2 stacks        00002000  000000003bc0b700  000000003bc0b700  0000c700  2**0
                  ALLOC
  3 .bss          00005c10  000000003bc0d800  000000003bc0d800  0000c700  2**9
                  ALLOC
  4 .debug_info   00068732  0000000000000000  0000000000000000  0000c700  2**0
                  CONTENTS, READONLY, DEBUGGING
  5 .debug_abbrev 00004de5  0000000000000000  0000000000000000  00074e32  2**0
                  CONTENTS, READONLY, DEBUGGING
  6 .debug_aranges 00001e80  0000000000000000  0000000000000000  00079c20  2**4
                  CONTENTS, READONLY, DEBUGGING
  7 .debug_macro  00009b13  0000000000000000  0000000000000000  0007baa0  2**0
                  CONTENTS, READONLY, DEBUGGING
  8 .debug_line   00075d63  0000000000000000  0000000000000000  000855b3  2**0
                  CONTENTS, READONLY, DEBUGGING
  9 .debug_str    0002394c  0000000000000000  0000000000000000  000fb316  2**0
                  CONTENTS, READONLY, DEBUGGING
 10 .comment      0000001d  0000000000000000  0000000000000000  0011ec62  2**0
                  CONTENTS, READONLY
 11 .debug_ranges 0002f790  0000000000000000  0000000000000000  0011ec7f  2**0
                  CONTENTS, READONLY, DEBUGGING
 12 .debug_frame  000047b8  0000000000000000  0000000000000000  0014e410  2**3
                  CONTENTS, READONLY, DEBUGGING
 13 .debug_loc    000c12a0  0000000000000000  0000000000000000  00152bc8  2**0
                  CONTENTS, READONLY, DEBUGGING
SYMBOL TABLE:
000000003bc00000 l    d  ro	0000000000000000 ro
000000003bc0b434 l    d  .data	0000000000000000 .data
000000003bc0b700 l    d  stacks	0000000000000000 stacks
000000003bc0d800 l    d  .bss	0000000000000000 .bss
0000000000000000 l    d  .debug_info	0000000000000000 .debug_info
0000000000000000 l    d  .debug_abbrev	0000000000000000 .debug_abbrev
0000000000000000 l    d  .debug_aranges	0000000000000000 .debug_aranges
0000000000000000 l    d  .debug_macro	0000000000000000 .debug_macro
0000000000000000 l    d  .debug_line	0000000000000000 .debug_line
0000000000000000 l    d  .debug_str	0000000000000000 .debug_str
0000000000000000 l    d  .comment	0000000000000000 .comment
0000000000000000 l    d  .debug_ranges	0000000000000000 .debug_ranges
0000000000000000 l    d  .debug_frame	0000000000000000 .debug_frame
0000000000000000 l    d  .debug_loc	0000000000000000 .debug_loc
0000000000000000 l    df *ABS*	0000000000000000 /root/.jenkins/workspace/cv180x_v4.0.0_release_build/fsbl/build/cv1800c_wevb_0009a_spinor/bl2/bl2_entrypoint.o
000000003bc00020 l       ro	0000000000000000 bl2_entrypoint_real
000000003bc00144 l       ro	0000000000000000 trap_vector
000000003bc0012c l       ro	0000000000000000 bss_clear
000000003bc00144 l       ro	0000000000000000 die
0000000000000000 l    df *ABS*	0000000000000000 cpu_helper.c
0000000000000000 l    df *ABS*	0000000000000000 cache.c
0000000000000000 l    df *ABS*	0000000000000000 delay_timer.c
0000000000000000 l    df *ABS*	0000000000000000 bl2_helper.c
000000003bc132c8 l     O .bss	0000000000000030 fw_dynamic_info
0000000000000000 l    df *ABS*	0000000000000000 uart_dw.c
0000000000000000 l    df *ABS*	0000000000000000 tf_printf.c
000000003bc002d6 l     F ro	0000000000000082 unsigned_num_print
0000000000000000 l    df *ABS*	0000000000000000 platform.c
0000000000000000 l    df *ABS*	0000000000000000 security.c
0000000000000000 l    df *ABS*	0000000000000000 misc.c
0000000000000000 l    df *ABS*	0000000000000000 mem.c
0000000000000000 l    df *ABS*	0000000000000000 putchar.c
0000000000000000 l    df *ABS*	0000000000000000 strcmp.c
0000000000000000 l    df *ABS*	0000000000000000 strlen.c
0000000000000000 l    df *ABS*	0000000000000000 platform_device.c
0000000000000000 l    df *ABS*	0000000000000000 bl2_main.c
000000003bc00c06 l     F ro	000000000000001a read_time_ms
000000003bc0d800 l     O .bss	0000000000001000 fip_param2
000000003bc0e800 l     O .bss	0000000000004000 sram_union_buf
0000000000000000 l    df *ABS*	0000000000000000 decompress.c
000000003bc014b6 l     F ro	0000000000000002 SzFree
000000003bc014b8 l     F ro	0000000000000042 SzAlloc
000000003bc132f8 l     O .bss	0000000000000008 comp_alloc_buf
000000003bc13300 l     O .bss	0000000000000008 comp_alloc_size
000000003bc0a788 l     O ro	0000000000000008 __func__.0
000000003bc0a790 l     O ro	0000000000000010 __func__.1
0000000000000000 l    df *ABS*	0000000000000000 cps_cvi.c
0000000000000000 l    df *ABS*	0000000000000000 usb_tty.c
000000003bc01748 l     F ro	0000000000000002 resume
000000003bc0174a l     F ro	0000000000000038 requestMemAlloc
000000003bc01782 l     F ro	0000000000000002 requestMemFree
000000003bc01784 l     F ro	000000000000001c acm_complete_set_line_coding
000000003bc017a0 l     F ro	0000000000000014 reset
000000003bc017b4 l     F ro	000000000000002e disconnect
000000003bc017e2 l     F ro	0000000000000026 unbind
000000003bc01808 l     F ro	0000000000000042 bind
000000003bc0184a l     F ro	0000000000000052 get_unicode_string
000000003bc0189c l     F ro	0000000000000234 bulkOutCmpl
000000003bc01b56 l     F ro	0000000000000050 bulkInCmpl
000000003bc01ad0 l     F ro	000000000000005c getDescAcm
000000003bc01b2c l     F ro	000000000000002a reqComplete
000000003bc01ba6 l     F ro	0000000000000442 setup
000000003bc01fe8 l     F ro	0000000000000002 suspend
000000003bc13404 l     O .bss	0000000000000001 ack_idx.6
000000003bc13310 l     O .bss	0000000000000008 bulkBuf
000000003bc13318 l     O .bss	0000000000000008 bulkInReq
000000003bc13320 l     O .bss	0000000000000008 bulkOutReq
000000003bc13328 l     O .bss	0000000000000008 cmdBuf
000000003bc13406 l     O .bss	0000000000000001 configBreak
000000003bc13407 l     O .bss	0000000000000001 configValue
000000003bc13330 l     O .bss	0000000000000008 ep0Buff
000000003bc13338 l     O .bss	0000000000000008 ep0Req
000000003bc13340 l     O .bss	0000000000000008 epIn
000000003bc13348 l     O .bss	0000000000000008 epOut
000000003bc13350 l     O .bss	0000000000000008 fip_buf
000000003bc133e0 l     O .bss	0000000000000004 fip_tx_offset
000000003bc133e4 l     O .bss	0000000000000004 fip_tx_size
000000003bc13408 l     O .bss	0000000000000001 flagEnterDL
000000003bc13409 l     O .bss	0000000000000001 flagReboot
000000003bc1340a l     O .bss	0000000000000001 is_serial_patched.3
000000003bc1340b l     O .bss	0000000000000001 mem_alloc_cnt
000000003bc13358 l     O .bss	000000000000001c productDesc
000000003bc13378 l     O .bss	0000000000000010 serial.2
000000003bc13388 l     O .bss	000000000000001c serialDesc
000000003bc133e8 l     O .bss	0000000000000004 transfer_size
000000003bc133ec l     O .bss	0000000000000004 ts
000000003bc133a8 l     O .bss	0000000000000010 vendorDesc
000000003bc0b448 l     O .data	0000000000000009 ConfDesc
000000003bc0b458 l     O .data	0000000000000008 acm_buf
000000003bc0b460 l     O .data	0000000000000005 acm_call_mgmt_descriptor
000000003bc0b468 l     O .data	0000000000000009 acm_control_interface_desc
000000003bc0b478 l     O .data	0000000000000009 acm_data_interface_desc
000000003bc0b488 l     O .data	0000000000000004 acm_descriptor
000000003bc0b490 l     O .data	0000000000000007 acm_fs_in_desc
000000003bc0b498 l     O .data	0000000000000007 acm_fs_notify_desc
000000003bc0b4a0 l     O .data	0000000000000007 acm_fs_out_desc
000000003bc0b4a8 l     O .data	0000000000000005 acm_header_desc
000000003bc0b4b0 l     O .data	0000000000000007 acm_hs_in_desc
000000003bc0b4b8 l     O .data	0000000000000007 acm_hs_notify_desc
000000003bc0b4c0 l     O .data	0000000000000007 acm_hs_out_desc
000000003bc0b4c8 l     O .data	0000000000000005 acm_union_desc
000000003bc0b4d0 l     O .data	0000000000000005 bosDesc
000000003bc0b4d8 l     O .data	0000000000000008 bulkBufAlloc
000000003bc0b4e0 l     O .data	0000000000000007 capabilityExtDesc
000000003bc0b4e8 l     O .data	0000000000000008 cb0_buf
000000003bc0b4f0 l     O .data	0000000000000008 cb1_buf
000000003bc0b4f8 l     O .data	0000000000000008 cb2_buf
000000003bc0b500 l     O .data	0000000000000008 cmdBufAlloc
000000003bc0b508 l     O .data	0000000000000050 descriptorsFs
000000003bc0b558 l     O .data	0000000000000050 descriptorsHs
000000003bc0b5a8 l     O .data	0000000000000012 devHsDesc
000000003bc0b5c0 l     O .data	0000000000000050 drv_obj
000000003bc0b610 l     O .data	0000000000000008 ep0BuffAlloc
000000003bc0b618 l     O .data	0000000000000058 g_driver
000000003bc0b670 l     O .data	0000000000000008 handler
000000003bc0b678 l     O .data	0000000000000004 languageDesc
000000003bc0b680 l     O .data	000000000000000a qualifierDesc
000000003bc0b690 l     O .data	0000000000000008 rsp_buf
000000003bc0b698 l     O .data	0000000000000008 setup_buf
000000003bc0ab80 l     O ro	0000000000000005 __func__.0
000000003bc0ab88 l     O ro	0000000000000007 __func__.1
000000003bc0ab90 l     O ro	000000000000000b __func__.4
000000003bc0aba0 l     O ro	0000000000000006 __func__.5
0000000000000000 l    df *ABS*	0000000000000000 dwc2_udc_otg.c
000000003bc0274e l     F ro	0000000000000016 dwc2_fifo_status
000000003bc02764 l     F ro	000000000000003a dwc2_free_request
000000003bc0279e l     F ro	0000000000000048 pullup
000000003bc027e6 l     F ro	0000000000000038 dwc2_alloc_request
000000003bc0281e l     F ro	00000000000000a0 dwc2_ep_enable
000000003bc028be l     F ro	0000000000000002 dwc2_fifo_flush
000000003bc02952 l     F ro	0000000000000054 dwc2_dequeue
000000003bc02ab4 l     F ro	000000000000003c wakeup
000000003bc02b36 l     F ro	0000000000000090 dwc2_hsotg_txfifo_flush.constprop.0
000000003bc02bc6 l     F ro	000000000000005e kill_all_requests.isra.0
000000003bc02c7a l     F ro	00000000000000da dwc2_hsotg_init_fifo.constprop.0
000000003bc02d54 l     F ro	00000000000001a6 _dwc2_ep_disable.isra.0
000000003bc02efa l     F ro	0000000000000020 dwc2_ep_disable
000000003bc0b6a0 l     O .data	0000000000000050 dwc2_ep_ops
000000003bc0ad90 l     O ro	0000000000000012 __func__.0
000000003bc0ada8 l     O ro	0000000000000011 __func__.1
000000003bc0adc0 l     O ro	0000000000000013 __func__.2
000000003bc0add8 l     O ro	0000000000000018 __func__.3
000000003bc0adf0 l     O ro	0000000000000015 __func__.4
000000003bc0ae08 l     O ro	0000000000000009 driver_name
000000003bc0ae18 l     O ro	0000000000000048 dwc2_udc_ops
000000003bc0ae60 l     O ro	000000000000000c ep0name
000000003bc0ae70 l     O ro	000000000000000b ep1name
000000003bc0ae80 l     O ro	000000000000000c ep2name
000000003bc0ae90 l     O ro	000000000000000a ep3name
0000000000000000 l    df *ABS*	0000000000000000 dwc2_udc_otg_xfer_dma.c
000000003bc034ac l     F ro	000000000000008e set_max_pktsize
000000003bc0353a l     F ro	000000000000005e dwc2_udc_ep_clear_stall
000000003bc03598 l     F ro	0000000000000062 dwc2_udc_ep_set_stall
000000003bc035fa l     F ro	0000000000000080 dwc2_ep0_complete_out
000000003bc0367a l     F ro	000000000000007e dwc2_udc_ep0_zlp
000000003bc036f8 l     F ro	0000000000000068 dwc2_udc_ep0_set_stall.isra.0
000000003bc03760 l     F ro	00000000000000aa setdma_rx.isra.0
000000003bc0380a l     F ro	00000000000000fc complete_rx
000000003bc03960 l     F ro	000000000000015c setdma_tx
000000003bc0b6f0 l     O .data	0000000000000004 ep0_fifo_size
000000003bc0b6f4 l     O .data	0000000000000004 ep_fifo_size
0000000000000000 l    df *ABS*	0000000000000000 cv_usb.c
0000000000000000 l    df *ABS*	0000000000000000 crc16.c
000000003bc0af18 l     O ro	0000000000000200 crc16_tab
0000000000000000 l    df *ABS*	0000000000000000 LzmaDec.c
000000003bc04738 l     F ro	0000000000000072 LzmaDec_WriteRem
000000003bc047aa l     F ro	000000000000138a LzmaDec_DecodeReal2
000000003bc05b34 l     F ro	00000000000004e8 LzmaDec_TryDummy
000000003bc062c8 l     F ro	0000000000000066 LzmaDec_AllocateProbs2.isra.0
0000000000000000 l    df *ABS*	0000000000000000 lz4_all.c
000000003bc06452 l     F ro	0000000000000024 LZ4F_readLE32
000000003bc06476 l     F ro	0000000000000276 LZ4_decompress_safe_withSmallPrefix
000000003bc066ec l     F ro	0000000000000110 LZ4F_updateDict
000000003bc0703a l     F ro	00000000000001a4 LZ4F_decodeHeader
000000003bc0b158 l     O ro	0000000000000020 blockSizes.0
000000003bc0b178 l     O ro	0000000000000020 dec64table
000000003bc0b198 l     O ro	0000000000000020 inc32table
0000000000000000 l    df *ABS*	0000000000000000 xxhash.c
000000003bc079ea l     F ro	000000000000002c XXH32_avalanche
000000003bc07a16 l     F ro	0000000000000016 XXH_read32
000000003bc07a2c l     F ro	000000000000033a XXH32_finalize.constprop.0
0000000000000000 l    df *ABS*	0000000000000000 ddr.c
0000000000000000 l    df *ABS*	0000000000000000 ddr_pkg_info.c
0000000000000000 l    df *ABS*	0000000000000000 ddr_sys_bring_up.c
0000000000000000 l    df *ABS*	0000000000000000 ddr_sys.c
0000000000000000 l    df *ABS*	0000000000000000 phy_pll_init.c
0000000000000000 l    df *ABS*	0000000000000000 cvx16_pinmux.c
0000000000000000 l    df *ABS*	0000000000000000 cvx16_dram_cap_check.c
0000000000000000 l    df *ABS*	0000000000000000 ddrc_init.c
0000000000000000 l    df *ABS*	0000000000000000 phy_init.c
0000000000000000 l    df *ABS*	0000000000000000 
000000003bc083f6 g     F ro	000000000000000a get_ddr_vendor
000000003bc001b4 g     F ro	000000000000000a mdelay
000000003bc08400 g     F ro	0000000000000050 axi_mon_start_all
000000003bc0215c g     F ro	0000000000000006 AcmIsr
000000003bc13400 g     O .bss	0000000000000004 tar_freq
000000003bc0b440 g     O .data	0000000000000008 time_records
0000000004400100 g       *ABS*	0000000000000000 p_rom_api_cryptodma_aes_decrypt
000000003bc133f8 g     O .bss	0000000000000004 freq_in
000000003bc00d30 g     F ro	00000000000000ae load_ddr_param
000000003bc0a010 g     O ro	0000000000000010 version_string
0000000004400080 g       *ABS*	0000000000000000 p_rom_api_flash_init
000000003bc00994 g     F ro	0000000000000004 dec_verify_image
000000003bc03c9e g     F ro	00000000000000b2 dwc2_udc_ep_activate
000000003bc00aec g     F ro	0000000000000052 putchar_l
000000003bc01610 g     F ro	0000000000000002 LZ4_free
000000003bc045d6 g     F ro	0000000000000018 dwc2_ep0_kick
0000000004400020 g       *ABS*	0000000000000000 p_rom_api_get_boot_src
000000003bc03906 g     F ro	0000000000000016 dwc2_udc_pre_setup
000000003bc00292 g     F ro	0000000000000002 jump_to_loader_2nd
000000003bc0021a g     F ro	0000000000000078 jump_to_monitor
000000003bc13280 g     O .bss	0000000000000010 rsp_bufArr
000000003bc133d8 g     O .bss	0000000000000008 reg_step
000000003bc133b8 g     O .bss	0000000000000008 reg
000000003bc03b4c g     F ro	0000000000000048 dwc2_set_address
000000003bc00acc g     F ro	0000000000000020 memmove
000000003bc08674 g     F ro	000000000000004e cvx16_bist_wr_prbs_init
000000003bc12880 g     O .bss	0000000000000200 bulkBufAllocArr
000000003bc067fc g     F ro	000000000000026e LZ4_decompress_safe
000000003bc13405 g     O .bss	0000000000000001 acm_configValue
000000003bc08c5a g     F ro	0000000000000044 cvx16_ddr_phy_power_on_seq1
000000003bc06030 g     F ro	000000000000027c LzmaDec_DecodeToDic
000000003bc08722 g     F ro	0000000000000046 cvx16_bist_rdglvl_init
000000003bc09ff0 g     O ro	000000000000001a build_message
000000003bc0921e g     F ro	0000000000000182 cvx16_wdqlvl_req
000000003bc0b440 g       .data	0000000000000000 __DATA_START__
000000003bc004f2 g     F ro	00000000000000c8 __system_reset
000000003bc00834 g     F ro	0000000000000044 switch_rtc_mode_2nd_stage
000000003bc01338 g     F ro	00000000000000e6 load_rest
000000003bc04706 g     F ro	0000000000000032 crc16_ccitt
000000003bc08d72 g     F ro	0000000000000028 cvx16_set_dfi_init_complete
000000003bc08d20 g     F ro	0000000000000038 cvx16_wait_for_dfi_init_complete
000000003bc03b00 g     F ro	000000000000004c dwc2_write_fifo_ep0
000000003bc12b00 g     O .bss	0000000000000080 cb1_bufArr
000000003bc08e4a g     F ro	0000000000000002 cvx16_wrlvl_req
000000003bc02af0 g     F ro	0000000000000046 dwc2_hsotg_wait_bit_set
000000003bc090ae g     F ro	0000000000000170 cvx16_rdlvl_req
000000003bc00a6c g     F ro	0000000000000060 memcpy
000000003bc08852 g     F ro	00000000000000b0 cvx16_bist_wdqlvl_init
000000003bc028c2 g     F ro	000000000000000a dwc2_get_ep0_name
000000003bc02a90 g     F ro	0000000000000024 dwc2_hsotg_clear_bit
000000003bc03bbc g     F ro	0000000000000040 dwc2_ep0_write
000000003bc028c0 g     F ro	0000000000000002 dwc2_log_write
000000003bc02a6e g     F ro	0000000000000022 dwc2_hsotg_set_bit
000000003bc132c0 g     O .bss	0000000000000008 setup_bufArr
000000003bc099c8 g     F ro	000000000000002e ctrl_init_low_patch
000000003bc0601c g     F ro	0000000000000014 LzmaDec_Init
000000003bc0100a g     F ro	0000000000000126 load_monitor
000000003bc1340f g     O .bss	0000000000000001 pkg
000000003bc0d700 g       stacks	0000000000000000 __STACKS_END__
000000003bc08b4c g     F ro	0000000000000016 cvx16_clk_div40
000000003bc005ba g     F ro	0000000000000032 panic_handler
000000003bc029a6 g     F ro	000000000000002e dwc2_nuke
000000003bc001e2 g     F ro	000000000000002a get_random_from_timer
000000003bc0979a g     F ro	0000000000000002 cvx16_dram_cap_check
000000003bc08962 g     F ro	000000000000006a cvx16_bist_start_check
000000003bc133fc g     O .bss	0000000000000004 mod_freq
000000003bc00b6c g     F ro	000000000000007c gpio_in_value
00000000044000e0 g       *ABS*	0000000000000000 p_rom_api_verify_rsa
000000003bc093a0 g     F ro	000000000000001a cvx16_en_rec_vol_mode
000000003bc0020c g     F ro	000000000000000e read_count_tick
000000003bc08f78 g     F ro	0000000000000070 cvx16_clk_gating_enable
000000003bc016c0 g     F ro	000000000000007e decompress
000000003bc086c2 g     F ro	0000000000000060 cvx16_bist_wr_sram_init
0000000000005c10 g       *ABS*	0000000000000000 __BSS_SIZE__
000000003bc001be g     F ro	0000000000000024 get_timer
000000003bc08ce6 g     F ro	000000000000003a cvx16_ddr_phy_power_on_seq3
000000003bc031a8 g     F ro	0000000000000156 usb_gadget_register_driver
000000003bc002a4 g     F ro	000000000000001e console_putc
000000003bc133f0 g     O .bss	0000000000000004 rddata
000000003bc08b62 g     F ro	00000000000000f8 cvx16_chg_pll_freq
000000003bc00294 g     F ro	0000000000000010 _uart_putc
000000003bc00156 g     F ro	0000000000000024 flush_dcache_range
000000003bc12a80 g     O .bss	0000000000000080 cb0_bufArr
000000003bc0068e g     F ro	000000000000018e sys_pll_nd
000000003bc00832 g     F ro	0000000000000002 switch_rtc_mode_1st_stage
000000003bc00878 g     F ro	00000000000000bc set_rtc_en_registers
000000003bc00c60 g     F ro	00000000000000d0 load_param2
000000003bc0720e g     F ro	00000000000007dc LZ4F_decompress
000000003bc09460 g     F ro	000000000000033a cvx16_pinmux
000000003bc08a72 g     F ro	0000000000000068 cvx16_dll_cal
000000003bc02162 g     F ro	0000000000000138 acm_app_init
000000003bc022d6 g     F ro	0000000000000478 AcmApp
000000003bc08f2e g     F ro	000000000000004a cvx16_clk_gating_disable
000000003bc071de g     F ro	0000000000000030 LZ4F_createDecompressionContext
000000003bc0173e g     F ro	0000000000000006 DWC2_UncachedRead32
000000003bc022a6 g     F ro	0000000000000030 get_usb_polling_timeout_value
000000003bc03b94 g     F ro	0000000000000028 dwc2_ep0_read
000000003bc12e00 g     O .bss	0000000000000080 ep0BuffAllocArr
000000003bc03460 g     F ro	000000000000004c usb_gadget_handle_interrupts
000000003bc13410 g       .bss	0000000000000000 __BL2_END__
000000003bc08c9e g     F ro	0000000000000048 cvx16_ddr_phy_power_on_seq2
000000003bc08d9a g     F ro	000000000000002c cvx16_INT_ISR_08
000000003bc06cd4 g     F ro	0000000000000316 LZ4_decompress_safe_forceExtDict
000000003bc01fea g     F ro	00000000000000a2 convert_buf_addr
000000003bc06378 g     F ro	0000000000000030 LzmaDec_AllocateProbs
000000003bc08e92 g     F ro	000000000000009c cvx16_pll_init
000000003bc0141e g     F ro	0000000000000098 bl2_main
000000003bc0b700 g       .data	0000000000000000 __DATA_END__
000000003bc062ac g     F ro	000000000000001c LzmaDec_FreeProbs
000000003bc014fa g     F ro	00000000000000e8 decompress_lzma
000000003bc0017a g     F ro	0000000000000010 trig_simulation_timer
000000003bc08902 g     F ro	0000000000000060 cvx16_bist_wdmlvl_init
000000003bc0018a g     F ro	000000000000002a udelay
000000003bc08d58 g     F ro	000000000000001a cvx16_polling_dfi_init_start
000000003bc02912 g     F ro	0000000000000040 dwc2_done
000000003bc08768 g     F ro	00000000000000ea cvx16_bist_rdlvl_init
000000003bc1340e g     O .bss	0000000000000001 ddr_vendor
00000000044000a0 g       *ABS*	0000000000000000 p_rom_api_image_crc
000000003bc00c20 g     F ro	0000000000000040 load_image_by_usb
000000003bc00000 g       ro	0000000000000000 bl2_entrypoint
000000003bc01130 g     F ro	0000000000000208 load_loader_2nd
000000003bc02c24 g     F ro	0000000000000056 dwc2_disconnect
000000003bc03310 g     F ro	0000000000000150 dwc2_udc_probe
000000003bc00934 g     F ro	0000000000000060 init_comm_info
000000003bc133f4 g     O .bss	0000000000000004 dev_freq
000000003bc045ee g     F ro	00000000000000d8 dwc2_queue
000000003bc00680 g     F ro	000000000000000e sys_switch_all_to_pll
000000003bc13410 g       .bss	0000000000000000 __BSS_END__
000000003bc081c8 g     F ro	000000000000022e read_ddr_pkg_info
000000003bc12800 g     O .bss	0000000000000080 acm_bufArr
0000000004400040 g       *ABS*	0000000000000000 p_rom_api_set_boot_src
000000003bc0632e g     F ro	000000000000004a LzmaProps_Decode
000000003bc08e4c g     F ro	0000000000000020 cvx16_setting_check
000000003bc00ea4 g     F ro	0000000000000166 load_blcp_2nd
000000003bc133d0 g     O .bss	0000000000000008 reg_span
000000003bc08ada g     F ro	000000000000005c cvx16_clk_normal
000000003bc0229a g     F ro	000000000000000c usb_vbus_det
000000003bc00a12 g     F ro	000000000000005a memset
000000003bc03c3c g     F ro	0000000000000062 dwc2_udc_set_halt
000000003bc07f82 g     F ro	00000000000001d2 XXH32_update
000000003bc0a170 g     O ro	0000000000000025 hex2ascii_data
000000003bc099f6 g     F ro	000000000000021c ctrl_init_update_by_dram_size
000000003bc03d50 g     F ro	0000000000000346 dwc2_handle_ep0
000000003bc00b3e g     F ro	000000000000001c strcmp
000000003bc07f2c g     F ro	0000000000000056 XXH32_reset
000000003bc07d66 g     F ro	00000000000001c6 XXH32
000000003bc089cc g     F ro	00000000000000a6 cvx16_rdvld_train
000000003bc0979c g     F ro	00000000000001fe ddrc_init
000000003bc06a6a g     F ro	000000000000026a LZ4_decompress_safe_withPrefix64k
000000003bc00358 g     F ro	000000000000019a tf_printf
000000003bc029d4 g     F ro	000000000000009a usb_gadget_unregister_driver
000000003bc015e8 g     F ro	0000000000000028 LZ4_calloc
000000003bc002c2 g     F ro	0000000000000014 console_flush
000000003bc0208c g     F ro	00000000000000d0 print_buf_addr
000000003bc0b434 g       ro	0000000000000000 __RO_END__
000000003bc12b80 g     O .bss	0000000000000080 cb2_bufArr
0000000004400060 g       *ABS*	0000000000000000 p_rom_api_load_image
000000003bc07010 g     F ro	000000000000000c LZ4F_isError
000000003bc0d800 g       .bss	0000000000000000 __BSS_START__
000000003bc03bfc g     F ro	0000000000000040 dwc2_udc_set_nak
000000003bc00000 g       ro	0000000000000000 __RO_START__
000000003bc08fe8 g     F ro	00000000000000c6 cvx16_rdglvl_req
000000003bc032fe g     F ro	0000000000000012 dwc2_phy_to_log_ep
000000003bc00998 g     F ro	000000000000007a ntostr
000000003bc046c6 g     F ro	0000000000000040 usb_polling
000000003bc08dc6 g     F ro	000000000000001c cvx16_polling_synp_normal_mode
000000003bc06fea g     F ro	0000000000000026 LZ4_decompress_safe_usingDict
000000003bc015e2 g     F ro	0000000000000006 LZ4_malloc
000000003bc093ba g     F ro	0000000000000022 ctrl_init_detect_dram_size
00000000044000c0 g       *ABS*	0000000000000000 p_rom_api_get_number_of_retries
000000003bc0014c g     F ro	000000000000000a sync_cache
000000003bc00636 g     F ro	000000000000004a setup_dl_flag
000000003bc005ec g     F ro	000000000000004a reset_c906l
000000003bc133c8 g     O .bss	0000000000000008 reg_set
000000003bc063a8 g     F ro	00000000000000aa LzmaDecode
000000003bc00be8 g     F ro	000000000000001e usb_id_det
000000003bc0b700 g       stacks	0000000000000000 __STACKS_START__
000000003bc0b6f8 g     O .data	0000000000000002 cv_usb_vid
000000003bc0081c g     F ro	0000000000000016 sys_pll_init
000000003bc03abc g     F ro	0000000000000044 dwc2_ep_fifo_read
000000003bc0b6fc g     O .data	0000000000000004 ddr_data_rate
000000003bc12e80 g     O .bss	0000000000000400 handlerArr
000000003bc08de2 g     F ro	0000000000000068 cvx16_dfi_ca_park_prbs
000000003bc04096 g     F ro	0000000000000540 dwc2_udc_irq
000000003bc12c00 g     O .bss	0000000000000200 cmdBufAllocArr
000000003bc00b5a g     F ro	0000000000000012 strlen
000000003bc1340d g     O .bss	0000000000000001 ddr_type
000000003bc08450 g     F ro	0000000000000224 ddr_sys_bring_up
000000003bc08154 g     F ro	0000000000000040 XXH32_digest
000000003bc08194 g     F ro	0000000000000034 ddr_init
000000003bc0391c g     F ro	0000000000000044 dwc2_ep_fifo_write
000000003bc01612 g     F ro	00000000000000ae decompress_lz4
000000003bc0701c g     F ro	000000000000001e LZ4F_getBlockSize
000000003bc1340c g     O .bss	0000000000000001 ddr_capacity
000000003bc13308 g     O .bss	0000000000000008 acm
000000003bc01744 g     F ro	0000000000000004 DWC2_UncachedWrite32
000000003bc133c0 g     O .bss	0000000000000008 the_controller
000000003bc08e6c g     F ro	0000000000000026 cvx16_set_dfi_init_start
000000003bc0999a g     F ro	000000000000002e ctrl_init_high_patch
000000003bc00dde g     F ro	00000000000000c6 load_ddr
000000003bc028cc g     F ro	0000000000000046 udc_reinit
000000003bc08b36 g     F ro	0000000000000016 cvx16_clk_div2
000000003bc09c12 g     F ro	00000000000003da phy_init
000000003bc093dc g     F ro	0000000000000084 pll_init
000000003bc02f1a g     F ro	000000000000028e dwc2_reconfig_usbd



Disassembly of section ro:

000000003bc00000 <__RO_START__>:
    3bc00000:	0200006f          	j	3bc00020 <bl2_entrypoint_real>
	...

000000003bc00020 <bl2_entrypoint_real>:
    3bc00020:	05900e1b          	addiw	t3,zero,89
    3bc00024:	019e1e13          	slli	t3,t3,0x19
    3bc00028:	03000eb7          	lui	t4,0x3000
    3bc0002c:	084e8e9b          	addiw	t4,t4,132
    3bc00030:	01cea023          	sw	t3,0(t4) # 3000000 <__BSS_SIZE__+0x2ffa3f0>
    3bc00034:	00000093          	li	ra,0
    3bc00038:	00000113          	li	sp,0
    3bc0003c:	00000193          	li	gp,0
    3bc00040:	00000213          	li	tp,0
    3bc00044:	00000293          	li	t0,0
    3bc00048:	00000313          	li	t1,0
    3bc0004c:	00000393          	li	t2,0
    3bc00050:	00000413          	li	s0,0
    3bc00054:	00000493          	li	s1,0
    3bc00058:	00000513          	li	a0,0
    3bc0005c:	00000593          	li	a1,0
    3bc00060:	00000613          	li	a2,0
    3bc00064:	00000693          	li	a3,0
    3bc00068:	00000713          	li	a4,0
    3bc0006c:	00000793          	li	a5,0
    3bc00070:	00000813          	li	a6,0
    3bc00074:	00000893          	li	a7,0
    3bc00078:	00000913          	li	s2,0
    3bc0007c:	00000993          	li	s3,0
    3bc00080:	00000a13          	li	s4,0
    3bc00084:	00000a93          	li	s5,0
    3bc00088:	00000b13          	li	s6,0
    3bc0008c:	00000b93          	li	s7,0
    3bc00090:	00000c13          	li	s8,0
    3bc00094:	00000c93          	li	s9,0
    3bc00098:	00000d13          	li	s10,0
    3bc0009c:	00000d93          	li	s11,0
    3bc000a0:	00000e13          	li	t3,0
    3bc000a4:	00000e93          	li	t4,0
    3bc000a8:	00000f13          	li	t5,0
    3bc000ac:	00000f93          	li	t6,0
    3bc000b0:	34001073          	csrw	mscratch,zero
    3bc000b4:	00000297          	auipc	t0,0x0
    3bc000b8:	09028293          	addi	t0,t0,144 # 3bc00144 <die>
    3bc000bc:	30529073          	csrw	mtvec,t0
    3bc000c0:	000181b7          	lui	gp,0x18
    3bc000c4:	0c71819b          	addiw	gp,gp,199
    3bc000c8:	00f19193          	slli	gp,gp,0xf
    3bc000cc:	7c019073          	csrw	mxstatus,gp
    3bc000d0:	702001b7          	lui	gp,0x70200
    3bc000d4:	ffc1819b          	addiw	gp,gp,-4
    3bc000d8:	00100213          	li	tp,1
    3bc000dc:	0041a023          	sw	tp,0(gp) # 70200000 <__BL2_END__+0x345ecbf0>
    3bc000e0:	03300193          	li	gp,51
    3bc000e4:	7c21b073          	csrc	mcor,gp
    3bc000e8:	01100193          	li	gp,17
    3bc000ec:	7c21a073          	csrs	mcor,gp
    3bc000f0:	00100193          	li	gp,1
    3bc000f4:	7c11a073          	csrs	mhcr,gp
    3bc000f8:	03300193          	li	gp,51
    3bc000fc:	7c21b073          	csrc	mcor,gp
    3bc00100:	01200193          	li	gp,18
    3bc00104:	7c21a073          	csrs	mcor,gp
    3bc00108:	00200193          	li	gp,2
    3bc0010c:	7c11a073          	csrs	mhcr,gp
    3bc00110:	0000d117          	auipc	sp,0xd
    3bc00114:	5f010113          	addi	sp,sp,1520 # 3bc0d700 <__STACKS_END__>
    3bc00118:	0000d697          	auipc	a3,0xd
    3bc0011c:	6e868693          	addi	a3,a3,1768 # 3bc0d800 <__BSS_START__>
    3bc00120:	00013717          	auipc	a4,0x13
    3bc00124:	2f070713          	addi	a4,a4,752 # 3bc13410 <__BL2_END__>
    3bc00128:	40d70733          	sub	a4,a4,a3

000000003bc0012c <bss_clear>:
    3bc0012c:	0006b023          	sd	zero,0(a3)
    3bc00130:	00868693          	addi	a3,a3,8
    3bc00134:	ff870713          	addi	a4,a4,-8
    3bc00138:	fe071ae3          	bnez	a4,3bc0012c <bss_clear>
    3bc0013c:	2e2010ef          	jal	ra,3bc0141e <bl2_main>
    3bc00140:	0040006f          	j	3bc00144 <die>

000000003bc00144 <die>:
    3bc00144:	4760006f          	j	3bc005ba <panic_handler>
    3bc00148:	ffdff06f          	j	3bc00144 <die>

000000003bc0014c <sync_cache>:
    3bc0014c:	0100000b          	icache.iall
    3bc00150:	01a0000b          	sync.i
    3bc00154:	8082                	ret

000000003bc00156 <flush_dcache_range>:
    3bc00156:	87aa                	mv	a5,a0
    3bc00158:	03f58593          	addi	a1,a1,63
    3bc0015c:	95be                	add	a1,a1,a5
    3bc0015e:	fc057513          	andi	a0,a0,-64
    3bc00162:	fc05f593          	andi	a1,a1,-64
    3bc00166:	00b56563          	bltu	a0,a1,3bc00170 <flush_dcache_range+0x1a>
    3bc0016a:	0190000b          	sync.s
    3bc0016e:	8082                	ret
    3bc00170:	02b5000b          	dcache.cipa	a0
    3bc00174:	04050513          	addi	a0,a0,64
    3bc00178:	b7fd                	j	3bc00166 <flush_dcache_range+0x10>

000000003bc0017a <trig_simulation_timer>:
    3bc0017a:	47e5                	li	a5,25
    3bc0017c:	02a787bb          	mulw	a5,a5,a0
    3bc00180:	03000737          	lui	a4,0x3000
    3bc00184:	08f72423          	sw	a5,136(a4) # 3000088 <__BSS_SIZE__+0x2ffa478>
    3bc00188:	8082                	ret

000000003bc0018a <udelay>:
    3bc0018a:	c0102773          	rdtime	a4
    3bc0018e:	47e5                	li	a5,25
    3bc00190:	02a786bb          	mulw	a3,a5,a0
    3bc00194:	fff74713          	not	a4,a4
    3bc00198:	030007b7          	lui	a5,0x3000
    3bc0019c:	2701                	sext.w	a4,a4
    3bc0019e:	08d7a423          	sw	a3,136(a5) # 3000088 <__BSS_SIZE__+0x2ffa478>
    3bc001a2:	c01027f3          	rdtime	a5
    3bc001a6:	fff7c793          	not	a5,a5
    3bc001aa:	40f707bb          	subw	a5,a4,a5
    3bc001ae:	fed7eae3          	bltu	a5,a3,3bc001a2 <udelay+0x18>
    3bc001b2:	8082                	ret

000000003bc001b4 <mdelay>:
    3bc001b4:	3e800793          	li	a5,1000
    3bc001b8:	02a7853b          	mulw	a0,a5,a0
    3bc001bc:	b7f9                	j	3bc0018a <udelay>

000000003bc001be <get_timer>:
    3bc001be:	e519                	bnez	a0,3bc001cc <get_timer+0xe>
    3bc001c0:	c0102573          	rdtime	a0
    3bc001c4:	fff54513          	not	a0,a0
    3bc001c8:	2501                	sext.w	a0,a0
    3bc001ca:	8082                	ret
    3bc001cc:	c01027f3          	rdtime	a5
    3bc001d0:	fff7c793          	not	a5,a5
    3bc001d4:	9d1d                	subw	a0,a0,a5
    3bc001d6:	6799                	lui	a5,0x6
    3bc001d8:	1a87879b          	addiw	a5,a5,424
    3bc001dc:	02f5553b          	divuw	a0,a0,a5
    3bc001e0:	8082                	ret

000000003bc001e2 <get_random_from_timer>:
    3bc001e2:	e519                	bnez	a0,3bc001f0 <get_random_from_timer+0xe>
    3bc001e4:	c0102573          	rdtime	a0
    3bc001e8:	fff54513          	not	a0,a0
    3bc001ec:	2501                	sext.w	a0,a0
    3bc001ee:	8082                	ret
    3bc001f0:	c01027f3          	rdtime	a5
    3bc001f4:	fff7c793          	not	a5,a5
    3bc001f8:	9d1d                	subw	a0,a0,a5
    3bc001fa:	47e5                	li	a5,25
    3bc001fc:	02f5553b          	divuw	a0,a0,a5
    3bc00200:	67e1                	lui	a5,0x18
    3bc00202:	6a07879b          	addiw	a5,a5,1696
    3bc00206:	02f5753b          	remuw	a0,a0,a5
    3bc0020a:	8082                	ret

000000003bc0020c <read_count_tick>:
    3bc0020c:	c0102573          	rdtime	a0
    3bc00210:	47e5                	li	a5,25
    3bc00212:	02f55533          	divu	a0,a0,a5
    3bc00216:	2501                	sext.w	a0,a0
    3bc00218:	8082                	ret

000000003bc0021a <jump_to_monitor>:
    3bc0021a:	1101                	addi	sp,sp,-32
    3bc0021c:	494257b7          	lui	a5,0x49425
    3bc00220:	e822                	sd	s0,16(sp)
    3bc00222:	34f78793          	addi	a5,a5,847 # 4942534f <__BL2_END__+0xd811f3f>
    3bc00226:	00013417          	auipc	s0,0x13
    3bc0022a:	0a240413          	addi	s0,s0,162 # 3bc132c8 <fw_dynamic_info>
    3bc0022e:	e426                	sd	s1,8(sp)
    3bc00230:	e01c                	sd	a5,0(s0)
    3bc00232:	010014b7          	lui	s1,0x1001
    3bc00236:	4785                	li	a5,1
    3bc00238:	e04a                	sd	s2,0(sp)
    3bc0023a:	00749613          	slli	a2,s1,0x7
    3bc0023e:	892a                	mv	s2,a0
    3bc00240:	ec1c                	sd	a5,24(s0)
    3bc00242:	0000a517          	auipc	a0,0xa
    3bc00246:	dde50513          	addi	a0,a0,-546 # 3bc0a020 <version_string+0x10>
    3bc0024a:	57fd                	li	a5,-1
    3bc0024c:	ec06                	sd	ra,24(sp)
    3bc0024e:	f41c                	sd	a5,40(s0)
    3bc00250:	e80c                	sd	a1,16(s0)
    3bc00252:	106000ef          	jal	ra,3bc00358 <tf_printf>
    3bc00256:	03000593          	li	a1,48
    3bc0025a:	8522                	mv	a0,s0
    3bc0025c:	efbff0ef          	jal	ra,3bc00156 <flush_dcache_range>
    3bc00260:	fadff0ef          	jal	ra,3bc0020c <read_count_tick>
    3bc00264:	3e800793          	li	a5,1000
    3bc00268:	3e75051b          	addiw	a0,a0,999
    3bc0026c:	02f5553b          	divuw	a0,a0,a5
    3bc00270:	8622                	mv	a2,s0
    3bc00272:	0000b797          	auipc	a5,0xb
    3bc00276:	1ce7b783          	ld	a5,462(a5) # 3bc0b440 <time_records>
    3bc0027a:	6442                	ld	s0,16(sp)
    3bc0027c:	60e2                	ld	ra,24(sp)
    3bc0027e:	00749593          	slli	a1,s1,0x7
    3bc00282:	64a2                	ld	s1,8(sp)
    3bc00284:	00a79723          	sh	a0,14(a5)
    3bc00288:	87ca                	mv	a5,s2
    3bc0028a:	6902                	ld	s2,0(sp)
    3bc0028c:	4501                	li	a0,0
    3bc0028e:	6105                	addi	sp,sp,32
    3bc00290:	8782                	jr	a5

000000003bc00292 <jump_to_loader_2nd>:
    3bc00292:	8082                	ret

000000003bc00294 <_uart_putc>:
    3bc00294:	04140737          	lui	a4,0x4140
    3bc00298:	4b5c                	lw	a5,20(a4)
    3bc0029a:	0207f793          	andi	a5,a5,32
    3bc0029e:	dfed                	beqz	a5,3bc00298 <_uart_putc+0x4>
    3bc002a0:	c308                	sw	a0,0(a4)
    3bc002a2:	8082                	ret

000000003bc002a4 <console_putc>:
    3bc002a4:	1141                	addi	sp,sp,-16
    3bc002a6:	e022                	sd	s0,0(sp)
    3bc002a8:	e406                	sd	ra,8(sp)
    3bc002aa:	47a9                	li	a5,10
    3bc002ac:	842a                	mv	s0,a0
    3bc002ae:	00f51563          	bne	a0,a5,3bc002b8 <console_putc+0x14>
    3bc002b2:	4535                	li	a0,13
    3bc002b4:	fe1ff0ef          	jal	ra,3bc00294 <_uart_putc>
    3bc002b8:	8522                	mv	a0,s0
    3bc002ba:	6402                	ld	s0,0(sp)
    3bc002bc:	60a2                	ld	ra,8(sp)
    3bc002be:	0141                	addi	sp,sp,16
    3bc002c0:	bfd1                	j	3bc00294 <_uart_putc>

000000003bc002c2 <console_flush>:
    3bc002c2:	041406b7          	lui	a3,0x4140
    3bc002c6:	06000713          	li	a4,96
    3bc002ca:	4adc                	lw	a5,20(a3)
    3bc002cc:	0607f793          	andi	a5,a5,96
    3bc002d0:	fee79de3          	bne	a5,a4,3bc002ca <console_flush+0x8>
    3bc002d4:	8082                	ret

000000003bc002d6 <unsigned_num_print>:
    3bc002d6:	7139                	addi	sp,sp,-64
    3bc002d8:	f04a                	sd	s2,32(sp)
    3bc002da:	7c05b70b          	extu	a4,a1,31,0
    3bc002de:	fc06                	sd	ra,56(sp)
    3bc002e0:	f822                	sd	s0,48(sp)
    3bc002e2:	f426                	sd	s1,40(sp)
    3bc002e4:	8932                	mv	s2,a2
    3bc002e6:	4801                	li	a6,0
    3bc002e8:	45a5                	li	a1,9
    3bc002ea:	02e57633          	remu	a2,a0,a4
    3bc002ee:	0018041b          	addiw	s0,a6,1
    3bc002f2:	0ff67793          	andi	a5,a2,255
    3bc002f6:	04c5e063          	bltu	a1,a2,3bc00336 <unsigned_num_print+0x60>
    3bc002fa:	0307879b          	addiw	a5,a5,48
    3bc002fe:	0ff7f793          	andi	a5,a5,255
    3bc00302:	0030                	addi	a2,sp,8
    3bc00304:	0106578b          	srb	a5,a2,a6,0
    3bc00308:	02e557b3          	divu	a5,a0,a4
    3bc0030c:	0805                	addi	a6,a6,1
    3bc0030e:	02e57263          	bgeu	a0,a4,3bc00332 <unsigned_num_print+0x5c>
    3bc00312:	408684bb          	subw	s1,a3,s0
    3bc00316:	02904363          	bgtz	s1,3bc0033c <unsigned_num_print+0x66>
    3bc0031a:	54fd                	li	s1,-1
    3bc0031c:	147d                	addi	s0,s0,-1
    3bc0031e:	0004079b          	sext.w	a5,s0
    3bc00322:	02979463          	bne	a5,s1,3bc0034a <unsigned_num_print+0x74>
    3bc00326:	70e2                	ld	ra,56(sp)
    3bc00328:	7442                	ld	s0,48(sp)
    3bc0032a:	74a2                	ld	s1,40(sp)
    3bc0032c:	7902                	ld	s2,32(sp)
    3bc0032e:	6121                	addi	sp,sp,64
    3bc00330:	8082                	ret
    3bc00332:	853e                	mv	a0,a5
    3bc00334:	bf5d                	j	3bc002ea <unsigned_num_print+0x14>
    3bc00336:	0577879b          	addiw	a5,a5,87
    3bc0033a:	b7d1                	j	3bc002fe <unsigned_num_print+0x28>
    3bc0033c:	85ca                	mv	a1,s2
    3bc0033e:	03000513          	li	a0,48
    3bc00342:	7aa000ef          	jal	ra,3bc00aec <putchar_l>
    3bc00346:	34fd                	addiw	s1,s1,-1
    3bc00348:	b7f9                	j	3bc00316 <unsigned_num_print+0x40>
    3bc0034a:	003c                	addi	a5,sp,8
    3bc0034c:	8087c50b          	lrbu	a0,a5,s0,0
    3bc00350:	85ca                	mv	a1,s2
    3bc00352:	79a000ef          	jal	ra,3bc00aec <putchar_l>
    3bc00356:	b7d9                	j	3bc0031c <unsigned_num_print+0x46>

000000003bc00358 <tf_printf>:
    3bc00358:	7135                	addi	sp,sp,-160
    3bc0035a:	e8a2                	sd	s0,80(sp)
    3bc0035c:	e4a6                	sd	s1,72(sp)
    3bc0035e:	ec86                	sd	ra,88(sp)
    3bc00360:	e0ca                	sd	s2,64(sp)
    3bc00362:	fc4e                	sd	s3,56(sp)
    3bc00364:	f852                	sd	s4,48(sp)
    3bc00366:	f456                	sd	s5,40(sp)
    3bc00368:	f05a                	sd	s6,32(sp)
    3bc0036a:	f4ae                	sd	a1,104(sp)
    3bc0036c:	f8b2                	sd	a2,112(sp)
    3bc0036e:	fcb6                	sd	a3,120(sp)
    3bc00370:	e13a                	sd	a4,128(sp)
    3bc00372:	e53e                	sd	a5,136(sp)
    3bc00374:	e942                	sd	a6,144(sp)
    3bc00376:	ed46                	sd	a7,152(sp)
    3bc00378:	842a                	mv	s0,a0
    3bc0037a:	4489                	li	s1,2
    3bc0037c:	c11d                	beqz	a0,3bc003a2 <tf_printf+0x4a>
    3bc0037e:	00054703          	lbu	a4,0(a0)
    3bc00382:	4785                	li	a5,1
    3bc00384:	00f71f63          	bne	a4,a5,3bc003a2 <tf_printf+0x4a>
    3bc00388:	00154783          	lbu	a5,1(a0)
    3bc0038c:	4711                	li	a4,4
    3bc0038e:	fd07879b          	addiw	a5,a5,-48
    3bc00392:	0ff7f693          	andi	a3,a5,255
    3bc00396:	00d76663          	bltu	a4,a3,3bc003a2 <tf_printf+0x4a>
    3bc0039a:	0007849b          	sext.w	s1,a5
    3bc0039e:	00250413          	addi	s0,a0,2
    3bc003a2:	10bc                	addi	a5,sp,104
    3bc003a4:	ec3e                	sd	a5,24(sp)
    3bc003a6:	4a25                	li	s4,9
    3bc003a8:	4ad9                	li	s5,22
    3bc003aa:	0000a997          	auipc	s3,0xa
    3bc003ae:	ca298993          	addi	s3,s3,-862 # 3bc0a04c <version_string+0x3c>
    3bc003b2:	00044503          	lbu	a0,0(s0)
    3bc003b6:	e919                	bnez	a0,3bc003cc <tf_printf+0x74>
    3bc003b8:	60e6                	ld	ra,88(sp)
    3bc003ba:	6446                	ld	s0,80(sp)
    3bc003bc:	64a6                	ld	s1,72(sp)
    3bc003be:	6906                	ld	s2,64(sp)
    3bc003c0:	79e2                	ld	s3,56(sp)
    3bc003c2:	7a42                	ld	s4,48(sp)
    3bc003c4:	7aa2                	ld	s5,40(sp)
    3bc003c6:	7b02                	ld	s6,32(sp)
    3bc003c8:	610d                	addi	sp,sp,160
    3bc003ca:	8082                	ret
    3bc003cc:	02500793          	li	a5,37
    3bc003d0:	0405                	addi	s0,s0,1
    3bc003d2:	10f51c63          	bne	a0,a5,3bc004ea <tf_printf+0x192>
    3bc003d6:	4781                	li	a5,0
    3bc003d8:	4681                	li	a3,0
    3bc003da:	03000613          	li	a2,48
    3bc003de:	00044703          	lbu	a4,0(s0)
    3bc003e2:	00c70c63          	beq	a4,a2,3bc003fa <tf_printf+0xa2>
    3bc003e6:	f9c7071b          	addiw	a4,a4,-100
    3bc003ea:	0ff77713          	andi	a4,a4,255
    3bc003ee:	fceae5e3          	bltu	s5,a4,3bc003b8 <tf_printf+0x60>
    3bc003f2:	44e9c70b          	lrw	a4,s3,a4,2
    3bc003f6:	974e                	add	a4,a4,s3
    3bc003f8:	8702                	jr	a4
    3bc003fa:	00144703          	lbu	a4,1(s0)
    3bc003fe:	fd07071b          	addiw	a4,a4,-48
    3bc00402:	0ff77593          	andi	a1,a4,255
    3bc00406:	00ba6463          	bltu	s4,a1,3bc0040e <tf_printf+0xb6>
    3bc0040a:	0007069b          	sext.w	a3,a4
    3bc0040e:	0409                	addi	s0,s0,2
    3bc00410:	b7f9                	j	3bc003de <tf_printf+0x86>
    3bc00412:	6762                	ld	a4,24(sp)
    3bc00414:	4585                	li	a1,1
    3bc00416:	00870613          	addi	a2,a4,8 # 4140008 <__BSS_SIZE__+0x413a3f8>
    3bc0041a:	ec32                	sd	a2,24(sp)
    3bc0041c:	02f5d563          	bge	a1,a5,3bc00446 <tf_printf+0xee>
    3bc00420:	00073903          	ld	s2,0(a4)
    3bc00424:	00095b63          	bgez	s2,3bc0043a <tf_printf+0xe2>
    3bc00428:	85a6                	mv	a1,s1
    3bc0042a:	02d00513          	li	a0,45
    3bc0042e:	e436                	sd	a3,8(sp)
    3bc00430:	6bc000ef          	jal	ra,3bc00aec <putchar_l>
    3bc00434:	66a2                	ld	a3,8(sp)
    3bc00436:	41200933          	neg	s2,s2
    3bc0043a:	8626                	mv	a2,s1
    3bc0043c:	45a9                	li	a1,10
    3bc0043e:	854a                	mv	a0,s2
    3bc00440:	e97ff0ef          	jal	ra,3bc002d6 <unsigned_num_print>
    3bc00444:	a831                	j	3bc00460 <tf_printf+0x108>
    3bc00446:	ffe9                	bnez	a5,3bc00420 <tf_printf+0xc8>
    3bc00448:	00072903          	lw	s2,0(a4)
    3bc0044c:	bfe1                	j	3bc00424 <tf_printf+0xcc>
    3bc0044e:	67e2                	ld	a5,24(sp)
    3bc00450:	0007b903          	ld	s2,0(a5)
    3bc00454:	00878713          	addi	a4,a5,8
    3bc00458:	ec3a                	sd	a4,24(sp)
    3bc0045a:	00094503          	lbu	a0,0(s2)
    3bc0045e:	e119                	bnez	a0,3bc00464 <tf_printf+0x10c>
    3bc00460:	0405                	addi	s0,s0,1
    3bc00462:	bf81                	j	3bc003b2 <tf_printf+0x5a>
    3bc00464:	85a6                	mv	a1,s1
    3bc00466:	0905                	addi	s2,s2,1
    3bc00468:	684000ef          	jal	ra,3bc00aec <putchar_l>
    3bc0046c:	b7fd                	j	3bc0045a <tf_printf+0x102>
    3bc0046e:	67e2                	ld	a5,24(sp)
    3bc00470:	0000a917          	auipc	s2,0xa
    3bc00474:	bd890913          	addi	s2,s2,-1064 # 3bc0a048 <version_string+0x38>
    3bc00478:	0007bb03          	ld	s6,0(a5)
    3bc0047c:	00878713          	addi	a4,a5,8
    3bc00480:	ec3a                	sd	a4,24(sp)
    3bc00482:	000b1c63          	bnez	s6,3bc0049a <tf_printf+0x142>
    3bc00486:	8626                	mv	a2,s1
    3bc00488:	45c1                	li	a1,16
    3bc0048a:	855a                	mv	a0,s6
    3bc0048c:	bf55                	j	3bc00440 <tf_printf+0xe8>
    3bc0048e:	85a6                	mv	a1,s1
    3bc00490:	e436                	sd	a3,8(sp)
    3bc00492:	65a000ef          	jal	ra,3bc00aec <putchar_l>
    3bc00496:	66a2                	ld	a3,8(sp)
    3bc00498:	0905                	addi	s2,s2,1
    3bc0049a:	00094503          	lbu	a0,0(s2)
    3bc0049e:	f965                	bnez	a0,3bc0048e <tf_printf+0x136>
    3bc004a0:	b7dd                	j	3bc00486 <tf_printf+0x12e>
    3bc004a2:	6762                	ld	a4,24(sp)
    3bc004a4:	4585                	li	a1,1
    3bc004a6:	00870613          	addi	a2,a4,8
    3bc004aa:	ec32                	sd	a2,24(sp)
    3bc004ac:	00f5d663          	bge	a1,a5,3bc004b8 <tf_printf+0x160>
    3bc004b0:	6308                	ld	a0,0(a4)
    3bc004b2:	8626                	mv	a2,s1
    3bc004b4:	45c1                	li	a1,16
    3bc004b6:	b769                	j	3bc00440 <tf_printf+0xe8>
    3bc004b8:	ffe5                	bnez	a5,3bc004b0 <tf_printf+0x158>
    3bc004ba:	00076503          	lwu	a0,0(a4)
    3bc004be:	bfd5                	j	3bc004b2 <tf_printf+0x15a>
    3bc004c0:	0405                	addi	s0,s0,1
    3bc004c2:	4789                	li	a5,2
    3bc004c4:	bf29                	j	3bc003de <tf_printf+0x86>
    3bc004c6:	2785                	addiw	a5,a5,1
    3bc004c8:	0405                	addi	s0,s0,1
    3bc004ca:	bf11                	j	3bc003de <tf_printf+0x86>
    3bc004cc:	6762                	ld	a4,24(sp)
    3bc004ce:	4585                	li	a1,1
    3bc004d0:	00870613          	addi	a2,a4,8
    3bc004d4:	ec32                	sd	a2,24(sp)
    3bc004d6:	00f5d663          	bge	a1,a5,3bc004e2 <tf_printf+0x18a>
    3bc004da:	6308                	ld	a0,0(a4)
    3bc004dc:	8626                	mv	a2,s1
    3bc004de:	45a9                	li	a1,10
    3bc004e0:	b785                	j	3bc00440 <tf_printf+0xe8>
    3bc004e2:	ffe5                	bnez	a5,3bc004da <tf_printf+0x182>
    3bc004e4:	00076503          	lwu	a0,0(a4)
    3bc004e8:	bfd5                	j	3bc004dc <tf_printf+0x184>
    3bc004ea:	85a6                	mv	a1,s1
    3bc004ec:	600000ef          	jal	ra,3bc00aec <putchar_l>
    3bc004f0:	b5c9                	j	3bc003b2 <tf_printf+0x5a>

000000003bc004f2 <__system_reset>:
    3bc004f2:	7179                	addi	sp,sp,-48
    3bc004f4:	f022                	sd	s0,32(sp)
    3bc004f6:	be00e437          	lui	s0,0xbe00e
    3bc004fa:	f406                	sd	ra,40(sp)
    3bc004fc:	00340793          	addi	a5,s0,3 # ffffffffbe00e003 <__BL2_END__+0xffffffff823fabf3>
    3bc00500:	ec26                	sd	s1,24(sp)
    3bc00502:	e84a                	sd	s2,16(sp)
    3bc00504:	e44e                	sd	s3,8(sp)
    3bc00506:	0e000937          	lui	s2,0xe000
    3bc0050a:	862e                	mv	a2,a1
    3bc0050c:	00f92823          	sw	a5,16(s2) # e000010 <p_rom_api_cryptodma_aes_decrypt+0x9bfff10>
    3bc00510:	85aa                	mv	a1,a0
    3bc00512:	0000a517          	auipc	a0,0xa
    3bc00516:	b9650513          	addi	a0,a0,-1130 # 3bc0a0a8 <version_string+0x98>
    3bc0051a:	e3fff0ef          	jal	ra,3bc00358 <tf_printf>
    3bc0051e:	da5ff0ef          	jal	ra,3bc002c2 <console_flush>
    3bc00522:	be0034b7          	lui	s1,0xbe003
    3bc00526:	00148793          	addi	a5,s1,1 # ffffffffbe003001 <__BL2_END__+0xffffffff823efbf1>
    3bc0052a:	030009b7          	lui	s3,0x3000
    3bc0052e:	6505                	lui	a0,0x1
    3bc00530:	08f9a223          	sw	a5,132(s3) # 3000084 <__BSS_SIZE__+0x2ffa474>
    3bc00534:	38850513          	addi	a0,a0,904 # 1388 <__BSS_SIZE__-0x4888>
    3bc00538:	c7dff0ef          	jal	ra,3bc001b4 <mdelay>
    3bc0053c:	050267b7          	lui	a5,0x5026
    3bc00540:	4705                	li	a4,1
    3bc00542:	0ee7a023          	sw	a4,224(a5) # 50260e0 <p_rom_api_cryptodma_aes_decrypt+0xc25fe0>
    3bc00546:	0ce7a423          	sw	a4,200(a5)
    3bc0054a:	0489                	addi	s1,s1,2
    3bc0054c:	0899a223          	sw	s1,132(s3)
    3bc00550:	06400513          	li	a0,100
    3bc00554:	c37ff0ef          	jal	ra,3bc0018a <udelay>
    3bc00558:	050257b7          	lui	a5,0x5025
    3bc0055c:	672d                	lui	a4,0xb
    3bc0055e:	0a07a623          	sw	zero,172(a5) # 50250ac <p_rom_api_cryptodma_aes_decrypt+0xc24fac>
    3bc00562:	b1870713          	addi	a4,a4,-1256 # ab18 <__BSS_SIZE__+0x4f08>
    3bc00566:	c3d8                	sw	a4,4(a5)
    3bc00568:	00400737          	lui	a4,0x400
    3bc0056c:	04070713          	addi	a4,a4,64 # 400040 <__BSS_SIZE__+0x3fa430>
    3bc00570:	c798                	sw	a4,8(a5)
    3bc00572:	030107b7          	lui	a5,0x3010
    3bc00576:	06600713          	li	a4,102
    3bc0057a:	c3d8                	sw	a4,4(a5)
    3bc0057c:	02000713          	li	a4,32
    3bc00580:	cfd8                	sw	a4,28(a5)
    3bc00582:	07600713          	li	a4,118
    3bc00586:	c7d8                	sw	a4,12(a5)
    3bc00588:	4745                	li	a4,17
    3bc0058a:	c398                	sw	a4,0(a5)
    3bc0058c:	00394783          	lbu	a5,3(s2)
    3bc00590:	0407f793          	andi	a5,a5,64
    3bc00594:	c395                	beqz	a5,3bc005b8 <__system_reset+0xc6>
    3bc00596:	0411                	addi	s0,s0,4
    3bc00598:	00892823          	sw	s0,16(s2)
    3bc0059c:	050266b7          	lui	a3,0x5026
    3bc005a0:	470d                	li	a4,3
    3bc005a2:	0d46a783          	lw	a5,212(a3) # 50260d4 <p_rom_api_cryptodma_aes_decrypt+0xc25fd4>
    3bc005a6:	2781                	sext.w	a5,a5
    3bc005a8:	fee79de3          	bne	a5,a4,3bc005a2 <__system_reset+0xb0>
    3bc005ac:	000807b7          	lui	a5,0x80
    3bc005b0:	05025737          	lui	a4,0x5025
    3bc005b4:	07a1                	addi	a5,a5,8
    3bc005b6:	c71c                	sw	a5,8(a4)
    3bc005b8:	a001                	j	3bc005b8 <__system_reset+0xc6>

000000003bc005ba <panic_handler>:
    3bc005ba:	1141                	addi	sp,sp,-16
    3bc005bc:	be00e7b7          	lui	a5,0xbe00e
    3bc005c0:	e406                	sd	ra,8(sp)
    3bc005c2:	0e000737          	lui	a4,0xe000
    3bc005c6:	0789                	addi	a5,a5,2
    3bc005c8:	cb1c                	sw	a5,16(a4)
    3bc005ca:	0000879b          	sext.w	a5,ra
    3bc005ce:	8586                	mv	a1,ra
    3bc005d0:	0000a517          	auipc	a0,0xa
    3bc005d4:	af050513          	addi	a0,a0,-1296 # 3bc0a0c0 <version_string+0xb0>
    3bc005d8:	cb5c                	sw	a5,20(a4)
    3bc005da:	d7fff0ef          	jal	ra,3bc00358 <tf_printf>
    3bc005de:	55fd                	li	a1,-1
    3bc005e0:	0000a517          	auipc	a0,0xa
    3bc005e4:	af050513          	addi	a0,a0,-1296 # 3bc0a0d0 <version_string+0xc0>
    3bc005e8:	f0bff0ef          	jal	ra,3bc004f2 <__system_reset>

000000003bc005ec <reset_c906l>:
    3bc005ec:	1141                	addi	sp,sp,-16
    3bc005ee:	e022                	sd	s0,0(sp)
    3bc005f0:	842a                	mv	s0,a0
    3bc005f2:	0000a517          	auipc	a0,0xa
    3bc005f6:	ae650513          	addi	a0,a0,-1306 # 3bc0a0d8 <version_string+0xc8>
    3bc005fa:	e406                	sd	ra,8(sp)
    3bc005fc:	d5dff0ef          	jal	ra,3bc00358 <tf_printf>
    3bc00600:	03003737          	lui	a4,0x3003
    3bc00604:	535c                	lw	a5,36(a4)
    3bc00606:	6609                	lui	a2,0x2
    3bc00608:	60a2                	ld	ra,8(sp)
    3bc0060a:	2781                	sext.w	a5,a5
    3bc0060c:	fbf7f793          	andi	a5,a5,-65
    3bc00610:	d35c                	sw	a5,36(a4)
    3bc00612:	020b07b7          	lui	a5,0x20b0
    3bc00616:	43d4                	lw	a3,4(a5)
    3bc00618:	8ed1                	or	a3,a3,a2
    3bc0061a:	c3d4                	sw	a3,4(a5)
    3bc0061c:	0004069b          	sext.w	a3,s0
    3bc00620:	d394                	sw	a3,32(a5)
    3bc00622:	9401                	srai	s0,s0,0x20
    3bc00624:	d3c0                	sw	s0,36(a5)
    3bc00626:	535c                	lw	a5,36(a4)
    3bc00628:	6402                	ld	s0,0(sp)
    3bc0062a:	2781                	sext.w	a5,a5
    3bc0062c:	0407e793          	ori	a5,a5,64
    3bc00630:	d35c                	sw	a5,36(a4)
    3bc00632:	0141                	addi	sp,sp,16
    3bc00634:	8082                	ret

000000003bc00636 <setup_dl_flag>:
    3bc00636:	1141                	addi	sp,sp,-16
    3bc00638:	e406                	sd	ra,8(sp)
    3bc0063a:	c8800097          	auipc	ra,0xc8800
    3bc0063e:	9e6080e7          	jalr	-1562(ra) # 4400020 <p_rom_api_get_boot_src>
    3bc00642:	67b5                	lui	a5,0xd
    3bc00644:	2501                	sext.w	a0,a0
    3bc00646:	ea078713          	addi	a4,a5,-352 # cea0 <__BSS_SIZE__+0x7290>
    3bc0064a:	00e50a63          	beq	a0,a4,3bc0065e <setup_dl_flag+0x28>
    3bc0064e:	ea378793          	addi	a5,a5,-349
    3bc00652:	02f50063          	beq	a0,a5,3bc00672 <setup_dl_flag+0x3c>
    3bc00656:	0e0007b7          	lui	a5,0xe000
    3bc0065a:	c3c8                	sw	a0,4(a5)
    3bc0065c:	a801                	j	3bc0066c <setup_dl_flag+0x36>
    3bc0065e:	4d4757b7          	lui	a5,0x4d475
    3bc00662:	0e000737          	lui	a4,0xe000
    3bc00666:	e3278793          	addi	a5,a5,-462 # 4d474e32 <__BL2_END__+0x11861a22>
    3bc0066a:	c35c                	sw	a5,4(a4)
    3bc0066c:	60a2                	ld	ra,8(sp)
    3bc0066e:	0141                	addi	sp,sp,16
    3bc00670:	8082                	ret
    3bc00672:	4d4757b7          	lui	a5,0x4d475
    3bc00676:	0e000737          	lui	a4,0xe000
    3bc0067a:	e3178793          	addi	a5,a5,-463 # 4d474e31 <__BL2_END__+0x11861a21>
    3bc0067e:	b7f5                	j	3bc0066a <setup_dl_flag+0x34>

000000003bc00680 <sys_switch_all_to_pll>:
    3bc00680:	030027b7          	lui	a5,0x3002
    3bc00684:	0207a823          	sw	zero,48(a5) # 3002030 <__BSS_SIZE__+0x2ffc420>
    3bc00688:	0207aa23          	sw	zero,52(a5)
    3bc0068c:	8082                	ret

000000003bc0068e <sys_pll_nd>:
    3bc0068e:	7139                	addi	sp,sp,-64
    3bc00690:	0000a797          	auipc	a5,0xa
    3bc00694:	ab87b783          	ld	a5,-1352(a5) # 3bc0a148 <version_string+0x138>
    3bc00698:	e03e                	sd	a5,0(sp)
    3bc0069a:	0000a797          	auipc	a5,0xa
    3bc0069e:	ab67b783          	ld	a5,-1354(a5) # 3bc0a150 <version_string+0x140>
    3bc006a2:	e43e                	sd	a5,8(sp)
    3bc006a4:	0000a797          	auipc	a5,0xa
    3bc006a8:	ab47b783          	ld	a5,-1356(a5) # 3bc0a158 <version_string+0x148>
    3bc006ac:	e83e                	sd	a5,16(sp)
    3bc006ae:	0000a517          	auipc	a0,0xa
    3bc006b2:	a3250513          	addi	a0,a0,-1486 # 3bc0a0e0 <version_string+0xd0>
    3bc006b6:	0000a797          	auipc	a5,0xa
    3bc006ba:	aaa7b783          	ld	a5,-1366(a5) # 3bc0a160 <version_string+0x150>
    3bc006be:	f426                	sd	s1,40(sp)
    3bc006c0:	ec3e                	sd	a5,24(sp)
    3bc006c2:	fc06                	sd	ra,56(sp)
    3bc006c4:	f822                	sd	s0,48(sp)
    3bc006c6:	f04a                	sd	s2,32(sp)
    3bc006c8:	c91ff0ef          	jal	ra,3bc00358 <tf_printf>
    3bc006cc:	030027b7          	lui	a5,0x3002
    3bc006d0:	577d                	li	a4,-1
    3bc006d2:	5b84                	lw	s1,48(a5)
    3bc006d4:	03f00693          	li	a3,63
    3bc006d8:	db98                	sw	a4,48(a5)
    3bc006da:	dbd4                	sw	a3,52(a5)
    3bc006dc:	054887b7          	lui	a5,0x5488
    3bc006e0:	03003737          	lui	a4,0x3003
    3bc006e4:	10178793          	addi	a5,a5,257 # 5488101 <p_rom_api_cryptodma_aes_decrypt+0x1088001>
    3bc006e8:	80f72423          	sw	a5,-2040(a4) # 3002808 <__BSS_SIZE__+0x2ffcbf8>
    3bc006ec:	030037b7          	lui	a5,0x3003
    3bc006f0:	84d72023          	sw	a3,-1984(a4)
    3bc006f4:	2481                	sext.w	s1,s1
    3bc006f6:	4601                	li	a2,0
    3bc006f8:	85470713          	addi	a4,a4,-1964
    3bc006fc:	01010813          	addi	a6,sp,16
    3bc00700:	80c78513          	addi	a0,a5,-2036 # 300280c <__BSS_SIZE__+0x2ffcbfc>
    3bc00704:	45c1                	li	a1,16
    3bc00706:	4026468b          	lrw	a3,a2,sp,0
    3bc0070a:	c314                	sw	a3,0(a4)
    3bc0070c:	ffc72683          	lw	a3,-4(a4)
    3bc00710:	0741                	addi	a4,a4,16
    3bc00712:	2681                	sext.w	a3,a3
    3bc00714:	9abd                	andi	a3,a3,-17
    3bc00716:	0016e693          	ori	a3,a3,1
    3bc0071a:	fed72623          	sw	a3,-20(a4)
    3bc0071e:	4106468b          	lrw	a3,a2,a6,0
    3bc00722:	40a6568b          	srw	a3,a2,a0,0
    3bc00726:	0611                	addi	a2,a2,4
    3bc00728:	fcb61fe3          	bne	a2,a1,3bc00706 <sys_pll_nd+0x78>
    3bc0072c:	80078613          	addi	a2,a5,-2048
    3bc00730:	4218                	lw	a4,0(a2)
    3bc00732:	76bd                	lui	a3,0xfffef
    3bc00734:	eee68693          	addi	a3,a3,-274 # fffffffffffeeeee <__BL2_END__+0xffffffffc43dbade>
    3bc00738:	2701                	sext.w	a4,a4
    3bc0073a:	8f75                	and	a4,a4,a3
    3bc0073c:	c218                	sw	a4,0(a2)
    3bc0073e:	00448737          	lui	a4,0x448
    3bc00742:	90078613          	addi	a2,a5,-1792
    3bc00746:	10170713          	addi	a4,a4,257 # 448101 <__BSS_SIZE__+0x4424f1>
    3bc0074a:	c618                	sw	a4,8(a2)
    3bc0074c:	03002437          	lui	s0,0x3002
    3bc00750:	018006b7          	lui	a3,0x1800
    3bc00754:	6841                	lui	a6,0x10
    3bc00756:	d014                	sw	a3,32(s0)
    3bc00758:	30980593          	addi	a1,a6,777 # 10309 <__BSS_SIZE__+0xa6f9>
    3bc0075c:	10040693          	addi	a3,s0,256 # 3002100 <__BSS_SIZE__+0x2ffc4f0>
    3bc00760:	da8c                	sw	a1,48(a3)
    3bc00762:	000205b7          	lui	a1,0x20
    3bc00766:	20958593          	addi	a1,a1,521 # 20209 <__BSS_SIZE__+0x1a5f9>
    3bc0076a:	de8c                	sw	a1,56(a3)
    3bc0076c:	c658                	sw	a4,12(a2)
    3bc0076e:	00030637          	lui	a2,0x30
    3bc00772:	00960313          	addi	t1,a2,9 # 30009 <__BSS_SIZE__+0x2a3f9>
    3bc00776:	04642423          	sw	t1,72(s0)
    3bc0077a:	30960713          	addi	a4,a2,777
    3bc0077e:	00040537          	lui	a0,0x40
    3bc00782:	c878                	sw	a4,84(s0)
    3bc00784:	00080937          	lui	s2,0x80
    3bc00788:	00950713          	addi	a4,a0,9 # 40009 <__BSS_SIZE__+0x3a3f9>
    3bc0078c:	d078                	sw	a4,100(s0)
    3bc0078e:	00990893          	addi	a7,s2,9 # 80009 <__BSS_SIZE__+0x7a3f9>
    3bc00792:	08040713          	addi	a4,s0,128
    3bc00796:	01172423          	sw	a7,8(a4)
    3bc0079a:	001208b7          	lui	a7,0x120
    3bc0079e:	08a5                	addi	a7,a7,9
    3bc007a0:	01172c23          	sw	a7,24(a4)
    3bc007a4:	000f08b7          	lui	a7,0xf0
    3bc007a8:	08a5                	addi	a7,a7,9
    3bc007aa:	0316a023          	sw	a7,32(a3) # 1800020 <__BSS_SIZE__+0x17fa410>
    3bc007ae:	0825                	addi	a6,a6,9
    3bc007b0:	03072423          	sw	a6,40(a4)
    3bc007b4:	10960813          	addi	a6,a2,265
    3bc007b8:	07072223          	sw	a6,100(a4)
    3bc007bc:	30950513          	addi	a0,a0,777
    3bc007c0:	d768                	sw	a0,108(a4)
    3bc007c2:	00060537          	lui	a0,0x60
    3bc007c6:	04672423          	sw	t1,72(a4)
    3bc007ca:	20950513          	addi	a0,a0,521 # 60209 <__BSS_SIZE__+0x5a5f9>
    3bc007ce:	cb28                	sw	a0,80(a4)
    3bc007d0:	cf28                	sw	a0,88(a4)
    3bc007d2:	ca8c                	sw	a1,16(a3)
    3bc007d4:	20960613          	addi	a2,a2,521
    3bc007d8:	c2f0                	sw	a2,68(a3)
    3bc007da:	00050637          	lui	a2,0x50
    3bc007de:	0625                	addi	a2,a2,9
    3bc007e0:	df10                	sw	a2,56(a4)
    3bc007e2:	d6d0                	sw	a2,44(a3)
    3bc007e4:	88078793          	addi	a5,a5,-1920
    3bc007e8:	5398                	lw	a4,32(a5)
    3bc007ea:	10090913          	addi	s2,s2,256
    3bc007ee:	0124f933          	and	s2,s1,s2
    3bc007f2:	2701                	sext.w	a4,a4
    3bc007f4:	9b6d                	andi	a4,a4,-5
    3bc007f6:	d398                	sw	a4,32(a5)
    3bc007f8:	57d8                	lw	a4,44(a5)
    3bc007fa:	0c800513          	li	a0,200
    3bc007fe:	2701                	sext.w	a4,a4
    3bc00800:	9b65                	andi	a4,a4,-7
    3bc00802:	d7d8                	sw	a4,44(a5)
    3bc00804:	987ff0ef          	jal	ra,3bc0018a <udelay>
    3bc00808:	03242823          	sw	s2,48(s0)
    3bc0080c:	70e2                	ld	ra,56(sp)
    3bc0080e:	02042a23          	sw	zero,52(s0)
    3bc00812:	7442                	ld	s0,48(sp)
    3bc00814:	74a2                	ld	s1,40(sp)
    3bc00816:	7902                	ld	s2,32(sp)
    3bc00818:	6121                	addi	sp,sp,64
    3bc0081a:	8082                	ret

000000003bc0081c <sys_pll_init>:
    3bc0081c:	1141                	addi	sp,sp,-16
    3bc0081e:	e406                	sd	ra,8(sp)
    3bc00820:	e6fff0ef          	jal	ra,3bc0068e <sys_pll_nd>
    3bc00824:	60a2                	ld	ra,8(sp)
    3bc00826:	0000a517          	auipc	a0,0xa
    3bc0082a:	8ca50513          	addi	a0,a0,-1846 # 3bc0a0f0 <version_string+0xe0>
    3bc0082e:	0141                	addi	sp,sp,16
    3bc00830:	b625                	j	3bc00358 <tf_printf>

000000003bc00832 <switch_rtc_mode_1st_stage>:
    3bc00832:	8082                	ret

000000003bc00834 <switch_rtc_mode_2nd_stage>:
    3bc00834:	05025737          	lui	a4,0x5025
    3bc00838:	475c                	lw	a5,12(a4)
    3bc0083a:	471c                	lw	a5,8(a4)
    3bc0083c:	f40006b7          	lui	a3,0xf4000
    3bc00840:	bff68693          	addi	a3,a3,-1025 # fffffffff3fffbff <__BL2_END__+0xffffffffb83ec7ef>
    3bc00844:	2781                	sext.w	a5,a5
    3bc00846:	8ff5                	and	a5,a5,a3
    3bc00848:	0c0006b7          	lui	a3,0xc000
    3bc0084c:	8fd5                	or	a5,a5,a3
    3bc0084e:	c71c                	sw	a5,8(a4)
    3bc00850:	4685                	li	a3,1
    3bc00852:	050267b7          	lui	a5,0x5026
    3bc00856:	48d7a623          	sw	a3,1164(a5) # 502648c <p_rom_api_cryptodma_aes_decrypt+0xc2638c>
    3bc0085a:	4807a623          	sw	zero,1164(a5)
    3bc0085e:	471c                	lw	a5,8(a4)
    3bc00860:	0c0016b7          	lui	a3,0xc001
    3bc00864:	80068693          	addi	a3,a3,-2048 # c000800 <p_rom_api_cryptodma_aes_decrypt+0x7c00700>
    3bc00868:	2781                	sext.w	a5,a5
    3bc0086a:	8fd5                	or	a5,a5,a3
    3bc0086c:	c71c                	sw	a5,8(a4)
    3bc0086e:	0000a517          	auipc	a0,0xa
    3bc00872:	89250513          	addi	a0,a0,-1902 # 3bc0a100 <version_string+0xf0>
    3bc00876:	b4cd                	j	3bc00358 <tf_printf>

000000003bc00878 <set_rtc_en_registers>:
    3bc00878:	1141                	addi	sp,sp,-16
    3bc0087a:	e022                	sd	s0,0(sp)
    3bc0087c:	05026437          	lui	s0,0x5026
    3bc00880:	0f842583          	lw	a1,248(s0) # 50260f8 <p_rom_api_cryptodma_aes_decrypt+0xc25ff8>
    3bc00884:	0000a517          	auipc	a0,0xa
    3bc00888:	89450513          	addi	a0,a0,-1900 # 3bc0a118 <version_string+0x108>
    3bc0088c:	e406                	sd	ra,8(sp)
    3bc0088e:	2581                	sext.w	a1,a1
    3bc00890:	ac9ff0ef          	jal	ra,3bc00358 <tf_printf>
    3bc00894:	0fc42583          	lw	a1,252(s0)
    3bc00898:	0000a517          	auipc	a0,0xa
    3bc0089c:	89850513          	addi	a0,a0,-1896 # 3bc0a130 <version_string+0x120>
    3bc008a0:	2581                	sext.w	a1,a1
    3bc008a2:	ab7ff0ef          	jal	ra,3bc00358 <tf_printf>
    3bc008a6:	4785                	li	a5,1
    3bc008a8:	0cf42023          	sw	a5,192(s0)
    3bc008ac:	05026737          	lui	a4,0x5026
    3bc008b0:	4685                	li	a3,1
    3bc008b2:	0c072783          	lw	a5,192(a4) # 50260c0 <p_rom_api_cryptodma_aes_decrypt+0xc25fc0>
    3bc008b6:	2781                	sext.w	a5,a5
    3bc008b8:	fed79de3          	bne	a5,a3,3bc008b2 <set_rtc_en_registers+0x3a>
    3bc008bc:	0cd72623          	sw	a3,204(a4)
    3bc008c0:	05026737          	lui	a4,0x5026
    3bc008c4:	4685                	li	a3,1
    3bc008c6:	0cc72783          	lw	a5,204(a4) # 50260cc <p_rom_api_cryptodma_aes_decrypt+0xc25fcc>
    3bc008ca:	2781                	sext.w	a5,a5
    3bc008cc:	fed79de3          	bne	a5,a3,3bc008c6 <set_rtc_en_registers+0x4e>
    3bc008d0:	0cd72423          	sw	a3,200(a4)
    3bc008d4:	05026737          	lui	a4,0x5026
    3bc008d8:	4685                	li	a3,1
    3bc008da:	0c872783          	lw	a5,200(a4) # 50260c8 <p_rom_api_cryptodma_aes_decrypt+0xc25fc8>
    3bc008de:	2781                	sext.w	a5,a5
    3bc008e0:	fed79de3          	bne	a5,a3,3bc008da <set_rtc_en_registers+0x62>
    3bc008e4:	0ed72023          	sw	a3,224(a4)
    3bc008e8:	050266b7          	lui	a3,0x5026
    3bc008ec:	4705                	li	a4,1
    3bc008ee:	0e06a783          	lw	a5,224(a3) # 50260e0 <p_rom_api_cryptodma_aes_decrypt+0xc25fe0>
    3bc008f2:	2781                	sext.w	a5,a5
    3bc008f4:	fee79de3          	bne	a5,a4,3bc008ee <set_rtc_en_registers+0x76>
    3bc008f8:	05025737          	lui	a4,0x5025
    3bc008fc:	08070613          	addi	a2,a4,128 # 5025080 <p_rom_api_cryptodma_aes_decrypt+0xc24f80>
    3bc00900:	565c                	lw	a5,44(a2)
    3bc00902:	60a2                	ld	ra,8(sp)
    3bc00904:	6402                	ld	s0,0(sp)
    3bc00906:	2781                	sext.w	a5,a5
    3bc00908:	0017e793          	ori	a5,a5,1
    3bc0090c:	d65c                	sw	a5,44(a2)
    3bc0090e:	67ad                	lui	a5,0xb
    3bc00910:	b1878793          	addi	a5,a5,-1256 # ab18 <__BSS_SIZE__+0x4f08>
    3bc00914:	c35c                	sw	a5,4(a4)
    3bc00916:	471c                	lw	a5,8(a4)
    3bc00918:	7645                	lui	a2,0xffff1
    3bc0091a:	84060613          	addi	a2,a2,-1984 # ffffffffffff0840 <__BL2_END__+0xffffffffc43dd430>
    3bc0091e:	2781                	sext.w	a5,a5
    3bc00920:	8fd1                	or	a5,a5,a2
    3bc00922:	c71c                	sw	a5,8(a4)
    3bc00924:	0d06a783          	lw	a5,208(a3)
    3bc00928:	2781                	sext.w	a5,a5
    3bc0092a:	9bed                	andi	a5,a5,-5
    3bc0092c:	0cf6a823          	sw	a5,208(a3)
    3bc00930:	0141                	addi	sp,sp,16
    3bc00932:	8082                	ret

000000003bc00934 <init_comm_info>:
    3bc00934:	7139                	addi	sp,sp,-64
    3bc00936:	0000a797          	auipc	a5,0xa
    3bc0093a:	8327b783          	ld	a5,-1998(a5) # 3bc0a168 <version_string+0x158>
    3bc0093e:	e43e                	sd	a5,8(sp)
    3bc00940:	000827b7          	lui	a5,0x82
    3bc00944:	47378793          	addi	a5,a5,1139 # 82473 <__BSS_SIZE__+0x7c863>
    3bc00948:	07b2                	slli	a5,a5,0xc
    3bc0094a:	faf1578b          	sdd	a5,a5,(sp),1,4
    3bc0094e:	f03e                	sd	a5,32(sp)
    3bc00950:	6785                	lui	a5,0x1
    3bc00952:	10178793          	addi	a5,a5,257 # 1101 <__BSS_SIZE__-0x4b0f>
    3bc00956:	d43e                	sw	a5,40(sp)
    3bc00958:	478d                	li	a5,3
    3bc0095a:	02f10723          	sb	a5,46(sp)
    3bc0095e:	fc06                	sd	ra,56(sp)
    3bc00960:	4701                	li	a4,0
    3bc00962:	4781                	li	a5,0
    3bc00964:	002c                	addi	a1,sp,8
    3bc00966:	02400693          	li	a3,36
    3bc0096a:	80b7460b          	lrbu	a2,a4,a1,0
    3bc0096e:	0705                	addi	a4,a4,1
    3bc00970:	9fb1                	addw	a5,a5,a2
    3bc00972:	3c07b78b          	extu	a5,a5,15,0
    3bc00976:	fed71ae3          	bne	a4,a3,3bc0096a <init_comm_info+0x36>
    3bc0097a:	01900537          	lui	a0,0x1900
    3bc0097e:	02800613          	li	a2,40
    3bc00982:	40050513          	addi	a0,a0,1024 # 1900400 <__BSS_SIZE__+0x18fa7f0>
    3bc00986:	02f11623          	sh	a5,44(sp)
    3bc0098a:	0e2000ef          	jal	ra,3bc00a6c <memcpy>
    3bc0098e:	70e2                	ld	ra,56(sp)
    3bc00990:	6121                	addi	sp,sp,64
    3bc00992:	8082                	ret

000000003bc00994 <dec_verify_image>:
    3bc00994:	4501                	li	a0,0
    3bc00996:	8082                	ret

000000003bc00998 <ntostr>:
    3bc00998:	00050023          	sb	zero,0(a0)
    3bc0099c:	872a                	mv	a4,a0
    3bc0099e:	00009317          	auipc	t1,0x9
    3bc009a2:	7d230313          	addi	t1,t1,2002 # 3bc0a170 <hex2ascii_data>
    3bc009a6:	4e65                	li	t3,25
    3bc009a8:	02c5f7b3          	remu	a5,a1,a2
    3bc009ac:	80f3478b          	lrbu	a5,t1,a5,0
    3bc009b0:	ce91                	beqz	a3,3bc009cc <ntostr+0x34>
    3bc009b2:	f9f7881b          	addiw	a6,a5,-97
    3bc009b6:	0ff87813          	andi	a6,a6,255
    3bc009ba:	02000893          	li	a7,32
    3bc009be:	010e7363          	bgeu	t3,a6,3bc009c4 <ntostr+0x2c>
    3bc009c2:	4881                	li	a7,0
    3bc009c4:	411787bb          	subw	a5,a5,a7
    3bc009c8:	0ff7f793          	andi	a5,a5,255
    3bc009cc:	0817578b          	sbib	a5,(a4),1,0
    3bc009d0:	02c5d7b3          	divu	a5,a1,a2
    3bc009d4:	02c5f463          	bgeu	a1,a2,3bc009fc <ntostr+0x64>
    3bc009d8:	87aa                	mv	a5,a0
    3bc009da:	86ba                	mv	a3,a4
    3bc009dc:	02d7e263          	bltu	a5,a3,3bc00a00 <ntostr+0x68>
    3bc009e0:	fff50693          	addi	a3,a0,-1
    3bc009e4:	4781                	li	a5,0
    3bc009e6:	00d76863          	bltu	a4,a3,3bc009f6 <ntostr+0x5e>
    3bc009ea:	40a707b3          	sub	a5,a4,a0
    3bc009ee:	0785                	addi	a5,a5,1
    3bc009f0:	8385                	srli	a5,a5,0x1
    3bc009f2:	40f007b3          	neg	a5,a5
    3bc009f6:	00f70533          	add	a0,a4,a5
    3bc009fa:	8082                	ret
    3bc009fc:	85be                	mv	a1,a5
    3bc009fe:	b76d                	j	3bc009a8 <ntostr+0x10>
    3bc00a00:	0006c583          	lbu	a1,0(a3)
    3bc00a04:	0007c603          	lbu	a2,0(a5)
    3bc00a08:	1817d58b          	sbia	a1,(a5),1,0
    3bc00a0c:	19f6d60b          	sbia	a2,(a3),-1,0
    3bc00a10:	b7f1                	j	3bc009dc <ntostr+0x44>

000000003bc00a12 <memset>:
    3bc00a12:	0ff5f813          	andi	a6,a1,255
    3bc00a16:	87aa                	mv	a5,a0
    3bc00a18:	0077f713          	andi	a4,a5,7
    3bc00a1c:	c719                	beqz	a4,3bc00a2a <memset+0x18>
    3bc00a1e:	e211                	bnez	a2,3bc00a22 <memset+0x10>
    3bc00a20:	8082                	ret
    3bc00a22:	1817d80b          	sbia	a6,(a5),1,0
    3bc00a26:	167d                	addi	a2,a2,-1
    3bc00a28:	bfc5                	j	3bc00a18 <memset+0x6>
    3bc00a2a:	ca05                	beqz	a2,3bc00a5a <memset+0x48>
    3bc00a2c:	00009697          	auipc	a3,0x9
    3bc00a30:	76c6b683          	ld	a3,1900(a3) # 3bc0a198 <hex2ascii_data+0x28>
    3bc00a34:	0ff5f593          	andi	a1,a1,255
    3bc00a38:	02d585b3          	mul	a1,a1,a3
    3bc00a3c:	489d                	li	a7,7
    3bc00a3e:	4681                	li	a3,0
    3bc00a40:	40d60333          	sub	t1,a2,a3
    3bc00a44:	0068ec63          	bltu	a7,t1,3bc00a5c <memset+0x4a>
    3bc00a48:	00365693          	srli	a3,a2,0x3
    3bc00a4c:	55e1                	li	a1,-8
    3bc00a4e:	06d7978b          	addsl	a5,a5,a3,3
    3bc00a52:	20b6960b          	mula	a2,a3,a1
    3bc00a56:	00e61763          	bne	a2,a4,3bc00a64 <memset+0x52>
    3bc00a5a:	8082                	ret
    3bc00a5c:	60d7d58b          	srd	a1,a5,a3,0
    3bc00a60:	06a1                	addi	a3,a3,8
    3bc00a62:	bff9                	j	3bc00a40 <memset+0x2e>
    3bc00a64:	00e7d80b          	srb	a6,a5,a4,0
    3bc00a68:	0705                	addi	a4,a4,1
    3bc00a6a:	b7f5                	j	3bc00a56 <memset+0x44>

000000003bc00a6c <memcpy>:
    3bc00a6c:	00b547b3          	xor	a5,a0,a1
    3bc00a70:	8b9d                	andi	a5,a5,7
    3bc00a72:	e7a9                	bnez	a5,3bc00abc <memcpy+0x50>
    3bc00a74:	87aa                	mv	a5,a0
    3bc00a76:	0077f713          	andi	a4,a5,7
    3bc00a7a:	cb09                	beqz	a4,3bc00a8c <memcpy+0x20>
    3bc00a7c:	e211                	bnez	a2,3bc00a80 <memcpy+0x14>
    3bc00a7e:	8082                	ret
    3bc00a80:	9815c70b          	lbuia	a4,(a1),1,0
    3bc00a84:	167d                	addi	a2,a2,-1
    3bc00a86:	1817d70b          	sbia	a4,(a5),1,0
    3bc00a8a:	b7f5                	j	3bc00a76 <memcpy+0xa>
    3bc00a8c:	469d                	li	a3,7
    3bc00a8e:	e619                	bnez	a2,3bc00a9c <memcpy+0x30>
    3bc00a90:	8082                	ret
    3bc00a92:	60e5c80b          	lrd	a6,a1,a4,0
    3bc00a96:	60e7d80b          	srd	a6,a5,a4,0
    3bc00a9a:	0721                	addi	a4,a4,8
    3bc00a9c:	40e60833          	sub	a6,a2,a4
    3bc00aa0:	ff06e9e3          	bltu	a3,a6,3bc00a92 <memcpy+0x26>
    3bc00aa4:	00365713          	srli	a4,a2,0x3
    3bc00aa8:	56e1                	li	a3,-8
    3bc00aaa:	20d7160b          	mula	a2,a4,a3
    3bc00aae:	070e                	slli	a4,a4,0x3
    3bc00ab0:	97ba                	add	a5,a5,a4
    3bc00ab2:	95ba                	add	a1,a1,a4
    3bc00ab4:	4701                	li	a4,0
    3bc00ab6:	00e61563          	bne	a2,a4,3bc00ac0 <memcpy+0x54>
    3bc00aba:	8082                	ret
    3bc00abc:	87aa                	mv	a5,a0
    3bc00abe:	bfdd                	j	3bc00ab4 <memcpy+0x48>
    3bc00ac0:	80e5c68b          	lrbu	a3,a1,a4,0
    3bc00ac4:	00e7d68b          	srb	a3,a5,a4,0
    3bc00ac8:	0705                	addi	a4,a4,1
    3bc00aca:	b7f5                	j	3bc00ab6 <memcpy+0x4a>

000000003bc00acc <memmove>:
    3bc00acc:	40b50733          	sub	a4,a0,a1
    3bc00ad0:	87aa                	mv	a5,a0
    3bc00ad2:	00c76363          	bltu	a4,a2,3bc00ad8 <memmove+0xc>
    3bc00ad6:	bf59                	j	3bc00a6c <memcpy>
    3bc00ad8:	95b2                	add	a1,a1,a2
    3bc00ada:	9532                	add	a0,a0,a2
    3bc00adc:	00f51363          	bne	a0,a5,3bc00ae2 <memmove+0x16>
    3bc00ae0:	8082                	ret
    3bc00ae2:	89f5c70b          	lbuib	a4,(a1),-1,0
    3bc00ae6:	09f5570b          	sbib	a4,(a0),-1,0
    3bc00aea:	bfcd                	j	3bc00adc <memmove+0x10>

000000003bc00aec <putchar_l>:
    3bc00aec:	0e0007b7          	lui	a5,0xe000
    3bc00af0:	4794                	lw	a3,8(a5)
    3bc00af2:	1141                	addi	sp,sp,-16
    3bc00af4:	e022                	sd	s0,0(sp)
    3bc00af6:	e406                	sd	ra,8(sp)
    3bc00af8:	6709                	lui	a4,0x2
    3bc00afa:	842a                	mv	s0,a0
    3bc00afc:	00e6e463          	bltu	a3,a4,3bc00b04 <putchar_l+0x18>
    3bc00b00:	0007a423          	sw	zero,8(a5) # e000008 <p_rom_api_cryptodma_aes_decrypt+0x9bfff08>
    3bc00b04:	0e0007b7          	lui	a5,0xe000
    3bc00b08:	4798                	lw	a4,8(a5)
    3bc00b0a:	0017069b          	addiw	a3,a4,1
    3bc00b0e:	c794                	sw	a3,8(a5)
    3bc00b10:	0c0006b7          	lui	a3,0xc000
    3bc00b14:	10e6d40b          	surb	s0,a3,a4,0
    3bc00b18:	4709                	li	a4,2
    3bc00b1a:	00b74d63          	blt	a4,a1,3bc00b34 <putchar_l+0x48>
    3bc00b1e:	0007c783          	lbu	a5,0(a5) # e000000 <p_rom_api_cryptodma_aes_decrypt+0x9bfff00>
    3bc00b22:	8b91                	andi	a5,a5,4
    3bc00b24:	eb81                	bnez	a5,3bc00b34 <putchar_l+0x48>
    3bc00b26:	0ff47513          	andi	a0,s0,255
    3bc00b2a:	f7aff0ef          	jal	ra,3bc002a4 <console_putc>
    3bc00b2e:	00055363          	bgez	a0,3bc00b34 <putchar_l+0x48>
    3bc00b32:	547d                	li	s0,-1
    3bc00b34:	60a2                	ld	ra,8(sp)
    3bc00b36:	8522                	mv	a0,s0
    3bc00b38:	6402                	ld	s0,0(sp)
    3bc00b3a:	0141                	addi	sp,sp,16
    3bc00b3c:	8082                	ret

000000003bc00b3e <strcmp>:
    3bc00b3e:	4701                	li	a4,0
    3bc00b40:	80e5478b          	lrbu	a5,a0,a4,0
    3bc00b44:	80e5c68b          	lrbu	a3,a1,a4,0
    3bc00b48:	00d78563          	beq	a5,a3,3bc00b52 <strcmp+0x14>
    3bc00b4c:	40d7853b          	subw	a0,a5,a3
    3bc00b50:	8082                	ret
    3bc00b52:	0705                	addi	a4,a4,1
    3bc00b54:	f7f5                	bnez	a5,3bc00b40 <strcmp+0x2>
    3bc00b56:	4501                	li	a0,0
    3bc00b58:	8082                	ret

000000003bc00b5a <strlen>:
    3bc00b5a:	87aa                	mv	a5,a0
    3bc00b5c:	0007c703          	lbu	a4,0(a5)
    3bc00b60:	e701                	bnez	a4,3bc00b68 <strlen+0xe>
    3bc00b62:	40a78533          	sub	a0,a5,a0
    3bc00b66:	8082                	ret
    3bc00b68:	0785                	addi	a5,a5,1
    3bc00b6a:	bfcd                	j	3bc00b5c <strlen+0x2>

000000003bc00b6c <gpio_in_value>:
    3bc00b6c:	1101                	addi	sp,sp,-32
    3bc00b6e:	00c007b7          	lui	a5,0xc00
    3bc00b72:	e822                	sd	s0,16(sp)
    3bc00b74:	e426                	sd	s1,8(sp)
    3bc00b76:	e04a                	sd	s2,0(sp)
    3bc00b78:	1c55370b          	extu	a4,a0,7,5
    3bc00b7c:	4007879b          	addiw	a5,a5,1024
    3bc00b80:	0155541b          	srliw	s0,a0,0x15
    3bc00b84:	5105390b          	extu	s2,a0,20,16
    3bc00b88:	1045348b          	extu	s1,a0,4,4
    3bc00b8c:	3c85350b          	extu	a0,a0,15,8
    3bc00b90:	9d3d                	addw	a0,a0,a5
    3bc00b92:	0025151b          	slliw	a0,a0,0x2
    3bc00b96:	ec06                	sd	ra,24(sp)
    3bc00b98:	7c05350b          	extu	a0,a0,31,0
    3bc00b9c:	c118                	sw	a4,0(a0)
    3bc00b9e:	4529                	li	a0,10
    3bc00ba0:	deaff0ef          	jal	ra,3bc0018a <udelay>
    3bc00ba4:	00447793          	andi	a5,s0,4
    3bc00ba8:	eb9d                	bnez	a5,3bc00bde <gpio_in_value+0x72>
    3bc00baa:	678d                	lui	a5,0x3
    3bc00bac:	881d                	andi	s0,s0,7
    3bc00bae:	0207879b          	addiw	a5,a5,32
    3bc00bb2:	9c3d                	addw	s0,s0,a5
    3bc00bb4:	00c4141b          	slliw	s0,s0,0xc
    3bc00bb8:	0504041b          	addiw	s0,s0,80
    3bc00bbc:	7c04340b          	extu	s0,s0,31,0
    3bc00bc0:	4008                	lw	a0,0(s0)
    3bc00bc2:	0125553b          	srlw	a0,a0,s2
    3bc00bc6:	00157793          	andi	a5,a0,1
    3bc00bca:	853e                	mv	a0,a5
    3bc00bcc:	c099                	beqz	s1,3bc00bd2 <gpio_in_value+0x66>
    3bc00bce:	0017c513          	xori	a0,a5,1
    3bc00bd2:	60e2                	ld	ra,24(sp)
    3bc00bd4:	6442                	ld	s0,16(sp)
    3bc00bd6:	64a2                	ld	s1,8(sp)
    3bc00bd8:	6902                	ld	s2,0(sp)
    3bc00bda:	6105                	addi	sp,sp,32
    3bc00bdc:	8082                	ret
    3bc00bde:	05021437          	lui	s0,0x5021
    3bc00be2:	05040413          	addi	s0,s0,80 # 5021050 <p_rom_api_cryptodma_aes_decrypt+0xc20f50>
    3bc00be6:	bfd9                	j	3bc00bbc <gpio_in_value+0x50>

000000003bc00be8 <usb_id_det>:
    3bc00be8:	030507b7          	lui	a5,0x3050
    3bc00bec:	1047a783          	lw	a5,260(a5) # 3050104 <__BSS_SIZE__+0x304a4f4>
    3bc00bf0:	0007851b          	sext.w	a0,a5
    3bc00bf4:	8b91                	andi	a5,a5,4
    3bc00bf6:	c391                	beqz	a5,3bc00bfa <usb_id_det+0x12>
    3bc00bf8:	bf95                	j	3bc00b6c <gpio_in_value>
    3bc00bfa:	030007b7          	lui	a5,0x3000
    3bc00bfe:	43c8                	lw	a0,4(a5)
    3bc00c00:	2085350b          	extu	a0,a0,8,8
    3bc00c04:	8082                	ret

000000003bc00c06 <read_time_ms>:
    3bc00c06:	1141                	addi	sp,sp,-16
    3bc00c08:	e406                	sd	ra,8(sp)
    3bc00c0a:	e02ff0ef          	jal	ra,3bc0020c <read_count_tick>
    3bc00c0e:	60a2                	ld	ra,8(sp)
    3bc00c10:	3e75051b          	addiw	a0,a0,999
    3bc00c14:	3e800793          	li	a5,1000
    3bc00c18:	02f5553b          	divuw	a0,a0,a5
    3bc00c1c:	0141                	addi	sp,sp,16
    3bc00c1e:	8082                	ret

000000003bc00c20 <load_image_by_usb>:
    3bc00c20:	7179                	addi	sp,sp,-48
    3bc00c22:	8732                	mv	a4,a2
    3bc00c24:	2601                	sext.w	a2,a2
    3bc00c26:	f022                	sd	s0,32(sp)
    3bc00c28:	ec26                	sd	s1,24(sp)
    3bc00c2a:	e03a                	sd	a4,0(sp)
    3bc00c2c:	f406                	sd	ra,40(sp)
    3bc00c2e:	84aa                	mv	s1,a0
    3bc00c30:	e42e                	sd	a1,8(sp)
    3bc00c32:	295030ef          	jal	ra,3bc046c6 <usb_polling>
    3bc00c36:	4785                	li	a5,1
    3bc00c38:	f8d1470b          	ldd	a4,a3,(sp),0,4
    3bc00c3c:	5479                	li	s0,-2
    3bc00c3e:	00f51363          	bne	a0,a5,3bc00c44 <load_image_by_usb+0x24>
    3bc00c42:	4401                	li	s0,0
    3bc00c44:	8626                	mv	a2,s1
    3bc00c46:	85a2                	mv	a1,s0
    3bc00c48:	00009517          	auipc	a0,0x9
    3bc00c4c:	55850513          	addi	a0,a0,1368 # 3bc0a1a0 <hex2ascii_data+0x30>
    3bc00c50:	f08ff0ef          	jal	ra,3bc00358 <tf_printf>
    3bc00c54:	70a2                	ld	ra,40(sp)
    3bc00c56:	8522                	mv	a0,s0
    3bc00c58:	7402                	ld	s0,32(sp)
    3bc00c5a:	64e2                	ld	s1,24(sp)
    3bc00c5c:	6145                	addi	sp,sp,48
    3bc00c5e:	8082                	ret

000000003bc00c60 <load_param2>:
    3bc00c60:	1101                	addi	sp,sp,-32
    3bc00c62:	0000d617          	auipc	a2,0xd
    3bc00c66:	b9e60613          	addi	a2,a2,-1122 # 3bc0d800 <__BSS_START__>
    3bc00c6a:	e42a                	sd	a0,8(sp)
    3bc00c6c:	6585                	lui	a1,0x1
    3bc00c6e:	00009517          	auipc	a0,0x9
    3bc00c72:	55250513          	addi	a0,a0,1362 # 3bc0a1c0 <hex2ascii_data+0x50>
    3bc00c76:	ec06                	sd	ra,24(sp)
    3bc00c78:	e822                	sd	s0,16(sp)
    3bc00c7a:	edeff0ef          	jal	ra,3bc00358 <tf_printf>
    3bc00c7e:	c87ff097          	auipc	ra,0xc87ff
    3bc00c82:	3a2080e7          	jalr	930(ra) # 4400020 <p_rom_api_get_boot_src>
    3bc00c86:	67b5                	lui	a5,0xd
    3bc00c88:	2501                	sext.w	a0,a0
    3bc00c8a:	ea378793          	addi	a5,a5,-349 # cea3 <__BSS_SIZE__+0x7293>
    3bc00c8e:	66a2                	ld	a3,8(sp)
    3bc00c90:	6605                	lui	a2,0x1
    3bc00c92:	04f51463          	bne	a0,a5,3bc00cda <load_param2+0x7a>
    3bc00c96:	3c0027b7          	lui	a5,0x3c002
    3bc00c9a:	0e07a583          	lw	a1,224(a5) # 3c0020e0 <__BL2_END__+0x3eecd0>
    3bc00c9e:	0000d517          	auipc	a0,0xd
    3bc00ca2:	b6250513          	addi	a0,a0,-1182 # 3bc0d800 <__BSS_START__>
    3bc00ca6:	f7bff0ef          	jal	ra,3bc00c20 <load_image_by_usb>
    3bc00caa:	02054463          	bltz	a0,3bc00cd2 <load_param2+0x72>
    3bc00cae:	0000d417          	auipc	s0,0xd
    3bc00cb2:	b5240413          	addi	s0,s0,-1198 # 3bc0d800 <__BSS_START__>
    3bc00cb6:	6018                	ld	a4,0(s0)
    3bc00cb8:	0000a797          	auipc	a5,0xa
    3bc00cbc:	9607b783          	ld	a5,-1696(a5) # 3bc0a618 <hex2ascii_data+0x4a8>
    3bc00cc0:	02f70a63          	beq	a4,a5,3bc00cf4 <load_param2+0x94>
    3bc00cc4:	00009517          	auipc	a0,0x9
    3bc00cc8:	51450513          	addi	a0,a0,1300 # 3bc0a1d8 <hex2ascii_data+0x68>
    3bc00ccc:	e8cff0ef          	jal	ra,3bc00358 <tf_printf>
    3bc00cd0:	557d                	li	a0,-1
    3bc00cd2:	60e2                	ld	ra,24(sp)
    3bc00cd4:	6442                	ld	s0,16(sp)
    3bc00cd6:	6105                	addi	sp,sp,32
    3bc00cd8:	8082                	ret
    3bc00cda:	3c0027b7          	lui	a5,0x3c002
    3bc00cde:	0e07a583          	lw	a1,224(a5) # 3c0020e0 <__BL2_END__+0x3eecd0>
    3bc00ce2:	0000d517          	auipc	a0,0xd
    3bc00ce6:	b1e50513          	addi	a0,a0,-1250 # 3bc0d800 <__BSS_START__>
    3bc00cea:	c87ff097          	auipc	ra,0xc87ff
    3bc00cee:	376080e7          	jalr	886(ra) # 4400060 <p_rom_api_load_image>
    3bc00cf2:	bf65                	j	3bc00caa <load_param2+0x4a>
    3bc00cf4:	6585                	lui	a1,0x1
    3bc00cf6:	15d1                	addi	a1,a1,-12
    3bc00cf8:	0000d517          	auipc	a0,0xd
    3bc00cfc:	b1450513          	addi	a0,a0,-1260 # 3bc0d80c <__BSS_START__+0xc>
    3bc00d00:	c87ff097          	auipc	ra,0xc87ff
    3bc00d04:	3a0080e7          	jalr	928(ra) # 44000a0 <p_rom_api_image_crc>
    3bc00d08:	4410                	lw	a2,8(s0)
    3bc00d0a:	0005059b          	sext.w	a1,a0
    3bc00d0e:	00b60963          	beq	a2,a1,3bc00d20 <load_param2+0xc0>
    3bc00d12:	00009517          	auipc	a0,0x9
    3bc00d16:	4de50513          	addi	a0,a0,1246 # 3bc0a1f0 <hex2ascii_data+0x80>
    3bc00d1a:	e3eff0ef          	jal	ra,3bc00358 <tf_printf>
    3bc00d1e:	bf4d                	j	3bc00cd0 <load_param2+0x70>
    3bc00d20:	00009517          	auipc	a0,0x9
    3bc00d24:	4f050513          	addi	a0,a0,1264 # 3bc0a210 <hex2ascii_data+0xa0>
    3bc00d28:	e30ff0ef          	jal	ra,3bc00358 <tf_printf>
    3bc00d2c:	4501                	li	a0,0
    3bc00d2e:	b755                	j	3bc00cd2 <load_param2+0x72>

000000003bc00d30 <load_ddr_param>:
    3bc00d30:	1101                	addi	sp,sp,-32
    3bc00d32:	e822                	sd	s0,16(sp)
    3bc00d34:	0000d417          	auipc	s0,0xd
    3bc00d38:	acc40413          	addi	s0,s0,-1332 # 3bc0d800 <__BSS_START__>
    3bc00d3c:	4c10                	lw	a2,24(s0)
    3bc00d3e:	484c                	lw	a1,20(s0)
    3bc00d40:	e42a                	sd	a0,8(sp)
    3bc00d42:	00009517          	auipc	a0,0x9
    3bc00d46:	4d650513          	addi	a0,a0,1238 # 3bc0a218 <hex2ascii_data+0xa8>
    3bc00d4a:	ec06                	sd	ra,24(sp)
    3bc00d4c:	e0cff0ef          	jal	ra,3bc00358 <tf_printf>
    3bc00d50:	4c18                	lw	a4,24(s0)
    3bc00d52:	6791                	lui	a5,0x4
    3bc00d54:	66a2                	ld	a3,8(sp)
    3bc00d56:	00f76363          	bltu	a4,a5,3bc00d5c <load_ddr_param+0x2c>
    3bc00d5a:	cc1c                	sw	a5,24(s0)
    3bc00d5c:	e436                	sd	a3,8(sp)
    3bc00d5e:	c87ff097          	auipc	ra,0xc87ff
    3bc00d62:	2c2080e7          	jalr	706(ra) # 4400020 <p_rom_api_get_boot_src>
    3bc00d66:	67b5                	lui	a5,0xd
    3bc00d68:	2501                	sext.w	a0,a0
    3bc00d6a:	ea378793          	addi	a5,a5,-349 # cea3 <__BSS_SIZE__+0x7293>
    3bc00d6e:	66a2                	ld	a3,8(sp)
    3bc00d70:	01846603          	lwu	a2,24(s0)
    3bc00d74:	484c                	lw	a1,20(s0)
    3bc00d76:	04f51363          	bne	a0,a5,3bc00dbc <load_ddr_param+0x8c>
    3bc00d7a:	0000e517          	auipc	a0,0xe
    3bc00d7e:	a8650513          	addi	a0,a0,-1402 # 3bc0e800 <sram_union_buf>
    3bc00d82:	e9fff0ef          	jal	ra,3bc00c20 <load_image_by_usb>
    3bc00d86:	02054763          	bltz	a0,3bc00db4 <load_ddr_param+0x84>
    3bc00d8a:	4c0c                	lw	a1,24(s0)
    3bc00d8c:	0000e517          	auipc	a0,0xe
    3bc00d90:	a7450513          	addi	a0,a0,-1420 # 3bc0e800 <sram_union_buf>
    3bc00d94:	c87ff097          	auipc	ra,0xc87ff
    3bc00d98:	30c080e7          	jalr	780(ra) # 44000a0 <p_rom_api_image_crc>
    3bc00d9c:	4810                	lw	a2,16(s0)
    3bc00d9e:	0005059b          	sext.w	a1,a0
    3bc00da2:	02b60663          	beq	a2,a1,3bc00dce <load_ddr_param+0x9e>
    3bc00da6:	00009517          	auipc	a0,0x9
    3bc00daa:	48a50513          	addi	a0,a0,1162 # 3bc0a230 <hex2ascii_data+0xc0>
    3bc00dae:	daaff0ef          	jal	ra,3bc00358 <tf_printf>
    3bc00db2:	557d                	li	a0,-1
    3bc00db4:	60e2                	ld	ra,24(sp)
    3bc00db6:	6442                	ld	s0,16(sp)
    3bc00db8:	6105                	addi	sp,sp,32
    3bc00dba:	8082                	ret
    3bc00dbc:	0000e517          	auipc	a0,0xe
    3bc00dc0:	a4450513          	addi	a0,a0,-1468 # 3bc0e800 <sram_union_buf>
    3bc00dc4:	c87ff097          	auipc	ra,0xc87ff
    3bc00dc8:	29c080e7          	jalr	668(ra) # 4400060 <p_rom_api_load_image>
    3bc00dcc:	bf6d                	j	3bc00d86 <load_ddr_param+0x56>
    3bc00dce:	00009517          	auipc	a0,0x9
    3bc00dd2:	48a50513          	addi	a0,a0,1162 # 3bc0a258 <hex2ascii_data+0xe8>
    3bc00dd6:	d82ff0ef          	jal	ra,3bc00358 <tf_printf>
    3bc00dda:	4501                	li	a0,0
    3bc00ddc:	bfe1                	j	3bc00db4 <load_ddr_param+0x84>

000000003bc00dde <load_ddr>:
    3bc00dde:	7179                	addi	sp,sp,-48
    3bc00de0:	ec26                	sd	s1,24(sp)
    3bc00de2:	74cd                	lui	s1,0xffff3
    3bc00de4:	e84a                	sd	s2,16(sp)
    3bc00de6:	e44e                	sd	s3,8(sp)
    3bc00de8:	e052                	sd	s4,0(sp)
    3bc00dea:	f406                	sd	ra,40(sp)
    3bc00dec:	f022                	sd	s0,32(sp)
    3bc00dee:	1604849b          	addiw	s1,s1,352
    3bc00df2:	4995                	li	s3,5
    3bc00df4:	4a05                	li	s4,1
    3bc00df6:	00009917          	auipc	s2,0x9
    3bc00dfa:	46a90913          	addi	s2,s2,1130 # 3bc0a260 <hex2ascii_data+0xf0>
    3bc00dfe:	4401                	li	s0,0
    3bc00e00:	c87ff097          	auipc	ra,0xc87ff
    3bc00e04:	2c0080e7          	jalr	704(ra) # 44000c0 <p_rom_api_get_number_of_retries>
    3bc00e08:	00a45e63          	bge	s0,a0,3bc00e24 <load_ddr+0x46>
    3bc00e0c:	8522                	mv	a0,s0
    3bc00e0e:	e53ff0ef          	jal	ra,3bc00c60 <load_param2>
    3bc00e12:	00055463          	bgez	a0,3bc00e1a <load_ddr+0x3c>
    3bc00e16:	2405                	addiw	s0,s0,1
    3bc00e18:	b7e5                	j	3bc00e00 <load_ddr+0x22>
    3bc00e1a:	8522                	mv	a0,s0
    3bc00e1c:	f15ff0ef          	jal	ra,3bc00d30 <load_ddr_param>
    3bc00e20:	fe054be3          	bltz	a0,3bc00e16 <load_ddr+0x38>
    3bc00e24:	c87ff097          	auipc	ra,0xc87ff
    3bc00e28:	29c080e7          	jalr	668(ra) # 44000c0 <p_rom_api_get_number_of_retries>
    3bc00e2c:	02a45f63          	bge	s0,a0,3bc00e6a <load_ddr+0x8c>
    3bc00e30:	dd7ff0ef          	jal	ra,3bc00c06 <read_time_ms>
    3bc00e34:	0000a417          	auipc	s0,0xa
    3bc00e38:	60c40413          	addi	s0,s0,1548 # 3bc0b440 <time_records>
    3bc00e3c:	601c                	ld	a5,0(s0)
    3bc00e3e:	00a79123          	sh	a0,2(a5)
    3bc00e42:	0000e517          	auipc	a0,0xe
    3bc00e46:	9be50513          	addi	a0,a0,-1602 # 3bc0e800 <sram_union_buf>
    3bc00e4a:	34a070ef          	jal	ra,3bc08194 <ddr_init>
    3bc00e4e:	db9ff0ef          	jal	ra,3bc00c06 <read_time_ms>
    3bc00e52:	601c                	ld	a5,0(s0)
    3bc00e54:	70a2                	ld	ra,40(sp)
    3bc00e56:	7402                	ld	s0,32(sp)
    3bc00e58:	00a79223          	sh	a0,4(a5)
    3bc00e5c:	64e2                	ld	s1,24(sp)
    3bc00e5e:	6942                	ld	s2,16(sp)
    3bc00e60:	69a2                	ld	s3,8(sp)
    3bc00e62:	6a02                	ld	s4,0(sp)
    3bc00e64:	4501                	li	a0,0
    3bc00e66:	6145                	addi	sp,sp,48
    3bc00e68:	8082                	ret
    3bc00e6a:	c87ff097          	auipc	ra,0xc87ff
    3bc00e6e:	1b6080e7          	jalr	438(ra) # 4400020 <p_rom_api_get_boot_src>
    3bc00e72:	9d25                	addw	a0,a0,s1
    3bc00e74:	85a2                	mv	a1,s0
    3bc00e76:	00a9ef63          	bltu	s3,a0,3bc00e94 <load_ddr+0xb6>
    3bc00e7a:	00aa1533          	sll	a0,s4,a0
    3bc00e7e:	02957513          	andi	a0,a0,41
    3bc00e82:	c909                	beqz	a0,3bc00e94 <load_ddr+0xb6>
    3bc00e84:	854a                	mv	a0,s2
    3bc00e86:	cd2ff0ef          	jal	ra,3bc00358 <tf_printf>
    3bc00e8a:	c87ff097          	auipc	ra,0xc87ff
    3bc00e8e:	1f6080e7          	jalr	502(ra) # 4400080 <p_rom_api_flash_init>
    3bc00e92:	b7b5                	j	3bc00dfe <load_ddr+0x20>
    3bc00e94:	00009517          	auipc	a0,0x9
    3bc00e98:	3f450513          	addi	a0,a0,1012 # 3bc0a288 <hex2ascii_data+0x118>
    3bc00e9c:	cbcff0ef          	jal	ra,3bc00358 <tf_printf>
    3bc00ea0:	f1aff0ef          	jal	ra,3bc005ba <panic_handler>

000000003bc00ea4 <load_blcp_2nd>:
    3bc00ea4:	7179                	addi	sp,sp,-48
    3bc00ea6:	e84a                	sd	s2,16(sp)
    3bc00ea8:	0000a917          	auipc	s2,0xa
    3bc00eac:	59890913          	addi	s2,s2,1432 # 3bc0b440 <time_records>
    3bc00eb0:	00093783          	ld	a5,0(s2)
    3bc00eb4:	f022                	sd	s0,32(sp)
    3bc00eb6:	0000d417          	auipc	s0,0xd
    3bc00eba:	94a40413          	addi	s0,s0,-1718 # 3bc0d800 <__BSS_START__>
    3bc00ebe:	0047d703          	lhu	a4,4(a5)
    3bc00ec2:	5414                	lw	a3,40(s0)
    3bc00ec4:	5450                	lw	a2,44(s0)
    3bc00ec6:	504c                	lw	a1,36(s0)
    3bc00ec8:	ec26                	sd	s1,24(sp)
    3bc00eca:	f406                	sd	ra,40(sp)
    3bc00ecc:	e44e                	sd	s3,8(sp)
    3bc00ece:	00e79323          	sh	a4,6(a5)
    3bc00ed2:	84aa                	mv	s1,a0
    3bc00ed4:	00009517          	auipc	a0,0x9
    3bc00ed8:	3dc50513          	addi	a0,a0,988 # 3bc0a2b0 <hex2ascii_data+0x140>
    3bc00edc:	c7cff0ef          	jal	ra,3bc00358 <tf_printf>
    3bc00ee0:	545c                	lw	a5,44(s0)
    3bc00ee2:	00009517          	auipc	a0,0x9
    3bc00ee6:	3e650513          	addi	a0,a0,998 # 3bc0a2c8 <hex2ascii_data+0x158>
    3bc00eea:	10078763          	beqz	a5,3bc00ff8 <load_blcp_2nd+0x154>
    3bc00eee:	800006b7          	lui	a3,0x80000
    3bc00ef2:	00f6863b          	addw	a2,a3,a5
    3bc00ef6:	04000737          	lui	a4,0x4000
    3bc00efa:	00e66b63          	bltu	a2,a4,3bc00f10 <load_blcp_2nd+0x6c>
    3bc00efe:	85be                	mv	a1,a5
    3bc00f00:	00009517          	auipc	a0,0x9
    3bc00f04:	3e050513          	addi	a0,a0,992 # 3bc0a2e0 <hex2ascii_data+0x170>
    3bc00f08:	c50ff0ef          	jal	ra,3bc00358 <tf_printf>
    3bc00f0c:	eaeff0ef          	jal	ra,3bc005ba <panic_handler>
    3bc00f10:	540c                	lw	a1,40(s0)
    3bc00f12:	9fad                	addw	a5,a5,a1
    3bc00f14:	9fb5                	addw	a5,a5,a3
    3bc00f16:	00e7e763          	bltu	a5,a4,3bc00f24 <load_blcp_2nd+0x80>
    3bc00f1a:	00009517          	auipc	a0,0x9
    3bc00f1e:	3f650513          	addi	a0,a0,1014 # 3bc0a310 <hex2ascii_data+0x1a0>
    3bc00f22:	b7dd                	j	3bc00f08 <load_blcp_2nd+0x64>
    3bc00f24:	c87ff097          	auipc	ra,0xc87ff
    3bc00f28:	0fc080e7          	jalr	252(ra) # 4400020 <p_rom_api_get_boot_src>
    3bc00f2c:	67b5                	lui	a5,0xd
    3bc00f2e:	0005071b          	sext.w	a4,a0
    3bc00f32:	ea378793          	addi	a5,a5,-349 # cea3 <__BSS_SIZE__+0x7293>
    3bc00f36:	504c                	lw	a1,36(s0)
    3bc00f38:	02846603          	lwu	a2,40(s0)
    3bc00f3c:	02c46503          	lwu	a0,44(s0)
    3bc00f40:	86a6                	mv	a3,s1
    3bc00f42:	04f71263          	bne	a4,a5,3bc00f86 <load_blcp_2nd+0xe2>
    3bc00f46:	cdbff0ef          	jal	ra,3bc00c20 <load_image_by_usb>
    3bc00f4a:	84aa                	mv	s1,a0
    3bc00f4c:	02054563          	bltz	a0,3bc00f76 <load_blcp_2nd+0xd2>
    3bc00f50:	540c                	lw	a1,40(s0)
    3bc00f52:	02c46503          	lwu	a0,44(s0)
    3bc00f56:	c87ff097          	auipc	ra,0xc87ff
    3bc00f5a:	14a080e7          	jalr	330(ra) # 44000a0 <p_rom_api_image_crc>
    3bc00f5e:	5010                	lw	a2,32(s0)
    3bc00f60:	0005059b          	sext.w	a1,a0
    3bc00f64:	02b60663          	beq	a2,a1,3bc00f90 <load_blcp_2nd+0xec>
    3bc00f68:	00009517          	auipc	a0,0x9
    3bc00f6c:	3d850513          	addi	a0,a0,984 # 3bc0a340 <hex2ascii_data+0x1d0>
    3bc00f70:	be8ff0ef          	jal	ra,3bc00358 <tf_printf>
    3bc00f74:	54fd                	li	s1,-1
    3bc00f76:	70a2                	ld	ra,40(sp)
    3bc00f78:	7402                	ld	s0,32(sp)
    3bc00f7a:	6942                	ld	s2,16(sp)
    3bc00f7c:	69a2                	ld	s3,8(sp)
    3bc00f7e:	8526                	mv	a0,s1
    3bc00f80:	64e2                	ld	s1,24(sp)
    3bc00f82:	6145                	addi	sp,sp,48
    3bc00f84:	8082                	ret
    3bc00f86:	c87ff097          	auipc	ra,0xc87ff
    3bc00f8a:	0da080e7          	jalr	218(ra) # 4400060 <p_rom_api_load_image>
    3bc00f8e:	bf75                	j	3bc00f4a <load_blcp_2nd+0xa6>
    3bc00f90:	02846583          	lwu	a1,40(s0)
    3bc00f94:	02c46503          	lwu	a0,44(s0)
    3bc00f98:	3c0026b7          	lui	a3,0x3c002
    3bc00f9c:	4601                	li	a2,0
    3bc00f9e:	9f7ff0ef          	jal	ra,3bc00994 <dec_verify_image>
    3bc00fa2:	84aa                	mv	s1,a0
    3bc00fa4:	00055a63          	bgez	a0,3bc00fb8 <load_blcp_2nd+0x114>
    3bc00fa8:	85aa                	mv	a1,a0
    3bc00faa:	00009517          	auipc	a0,0x9
    3bc00fae:	3be50513          	addi	a0,a0,958 # 3bc0a368 <hex2ascii_data+0x1f8>
    3bc00fb2:	ba6ff0ef          	jal	ra,3bc00358 <tf_printf>
    3bc00fb6:	b7c1                	j	3bc00f76 <load_blcp_2nd+0xd2>
    3bc00fb8:	02846583          	lwu	a1,40(s0)
    3bc00fbc:	02c46503          	lwu	a0,44(s0)
    3bc00fc0:	0e0009b7          	lui	s3,0xe000
    3bc00fc4:	992ff0ef          	jal	ra,3bc00156 <flush_dcache_range>
    3bc00fc8:	07c9a483          	lw	s1,124(s3) # e00007c <p_rom_api_cryptodma_aes_decrypt+0x9bfff7c>
    3bc00fcc:	969ff0ef          	jal	ra,3bc00934 <init_comm_info>
    3bc00fd0:	c37ff0ef          	jal	ra,3bc00c06 <read_time_ms>
    3bc00fd4:	00093783          	ld	a5,0(s2)
    3bc00fd8:	2481                	sext.w	s1,s1
    3bc00fda:	00a79323          	sh	a0,6(a5)
    3bc00fde:	0abc17b7          	lui	a5,0xabc1
    3bc00fe2:	def78793          	addi	a5,a5,-529 # abc0def <p_rom_api_cryptodma_aes_decrypt+0x67c0cef>
    3bc00fe6:	00f49d63          	bne	s1,a5,3bc01000 <load_blcp_2nd+0x15c>
    3bc00fea:	545c                	lw	a5,44(s0)
    3bc00fec:	06f9ae23          	sw	a5,124(s3)
    3bc00ff0:	00009517          	auipc	a0,0x9
    3bc00ff4:	39850513          	addi	a0,a0,920 # 3bc0a388 <hex2ascii_data+0x218>
    3bc00ff8:	b60ff0ef          	jal	ra,3bc00358 <tf_printf>
    3bc00ffc:	4481                	li	s1,0
    3bc00ffe:	bfa5                	j	3bc00f76 <load_blcp_2nd+0xd2>
    3bc01000:	02c46503          	lwu	a0,44(s0)
    3bc01004:	de8ff0ef          	jal	ra,3bc005ec <reset_c906l>
    3bc01008:	b7e5                	j	3bc00ff0 <load_blcp_2nd+0x14c>

000000003bc0100a <load_monitor>:
    3bc0100a:	1101                	addi	sp,sp,-32
    3bc0100c:	e822                	sd	s0,16(sp)
    3bc0100e:	0000c417          	auipc	s0,0xc
    3bc01012:	7f240413          	addi	s0,s0,2034 # 3bc0d800 <__BSS_START__>
    3bc01016:	e04a                	sd	s2,0(sp)
    3bc01018:	5c14                	lw	a3,56(s0)
    3bc0101a:	5c50                	lw	a2,60(s0)
    3bc0101c:	892e                	mv	s2,a1
    3bc0101e:	584c                	lw	a1,52(s0)
    3bc01020:	e426                	sd	s1,8(sp)
    3bc01022:	84aa                	mv	s1,a0
    3bc01024:	00009517          	auipc	a0,0x9
    3bc01028:	36c50513          	addi	a0,a0,876 # 3bc0a390 <hex2ascii_data+0x220>
    3bc0102c:	ec06                	sd	ra,24(sp)
    3bc0102e:	b2aff0ef          	jal	ra,3bc00358 <tf_printf>
    3bc01032:	5c5c                	lw	a5,60(s0)
    3bc01034:	eb89                	bnez	a5,3bc01046 <load_monitor+0x3c>
    3bc01036:	00009517          	auipc	a0,0x9
    3bc0103a:	37250513          	addi	a0,a0,882 # 3bc0a3a8 <hex2ascii_data+0x238>
    3bc0103e:	b1aff0ef          	jal	ra,3bc00358 <tf_printf>
    3bc01042:	4481                	li	s1,0
    3bc01044:	a069                	j	3bc010ce <load_monitor+0xc4>
    3bc01046:	800006b7          	lui	a3,0x80000
    3bc0104a:	00f6863b          	addw	a2,a3,a5
    3bc0104e:	04000737          	lui	a4,0x4000
    3bc01052:	00e66b63          	bltu	a2,a4,3bc01068 <load_monitor+0x5e>
    3bc01056:	85be                	mv	a1,a5
    3bc01058:	00009517          	auipc	a0,0x9
    3bc0105c:	36050513          	addi	a0,a0,864 # 3bc0a3b8 <hex2ascii_data+0x248>
    3bc01060:	af8ff0ef          	jal	ra,3bc00358 <tf_printf>
    3bc01064:	d56ff0ef          	jal	ra,3bc005ba <panic_handler>
    3bc01068:	5c0c                	lw	a1,56(s0)
    3bc0106a:	9fad                	addw	a5,a5,a1
    3bc0106c:	9fb5                	addw	a5,a5,a3
    3bc0106e:	00e7e763          	bltu	a5,a4,3bc0107c <load_monitor+0x72>
    3bc01072:	00009517          	auipc	a0,0x9
    3bc01076:	37650513          	addi	a0,a0,886 # 3bc0a3e8 <hex2ascii_data+0x278>
    3bc0107a:	b7dd                	j	3bc01060 <load_monitor+0x56>
    3bc0107c:	c87ff097          	auipc	ra,0xc87ff
    3bc01080:	fa4080e7          	jalr	-92(ra) # 4400020 <p_rom_api_get_boot_src>
    3bc01084:	67b5                	lui	a5,0xd
    3bc01086:	0005071b          	sext.w	a4,a0
    3bc0108a:	ea378793          	addi	a5,a5,-349 # cea3 <__BSS_SIZE__+0x7293>
    3bc0108e:	584c                	lw	a1,52(s0)
    3bc01090:	03846603          	lwu	a2,56(s0)
    3bc01094:	03c46503          	lwu	a0,60(s0)
    3bc01098:	86a6                	mv	a3,s1
    3bc0109a:	04f71163          	bne	a4,a5,3bc010dc <load_monitor+0xd2>
    3bc0109e:	b83ff0ef          	jal	ra,3bc00c20 <load_image_by_usb>
    3bc010a2:	84aa                	mv	s1,a0
    3bc010a4:	02054563          	bltz	a0,3bc010ce <load_monitor+0xc4>
    3bc010a8:	5c0c                	lw	a1,56(s0)
    3bc010aa:	03c46503          	lwu	a0,60(s0)
    3bc010ae:	c87ff097          	auipc	ra,0xc87ff
    3bc010b2:	ff2080e7          	jalr	-14(ra) # 44000a0 <p_rom_api_image_crc>
    3bc010b6:	5810                	lw	a2,48(s0)
    3bc010b8:	0005059b          	sext.w	a1,a0
    3bc010bc:	02b60563          	beq	a2,a1,3bc010e6 <load_monitor+0xdc>
    3bc010c0:	00009517          	auipc	a0,0x9
    3bc010c4:	35850513          	addi	a0,a0,856 # 3bc0a418 <hex2ascii_data+0x2a8>
    3bc010c8:	a90ff0ef          	jal	ra,3bc00358 <tf_printf>
    3bc010cc:	54fd                	li	s1,-1
    3bc010ce:	60e2                	ld	ra,24(sp)
    3bc010d0:	6442                	ld	s0,16(sp)
    3bc010d2:	6902                	ld	s2,0(sp)
    3bc010d4:	8526                	mv	a0,s1
    3bc010d6:	64a2                	ld	s1,8(sp)
    3bc010d8:	6105                	addi	sp,sp,32
    3bc010da:	8082                	ret
    3bc010dc:	c87ff097          	auipc	ra,0xc87ff
    3bc010e0:	f84080e7          	jalr	-124(ra) # 4400060 <p_rom_api_load_image>
    3bc010e4:	bf7d                	j	3bc010a2 <load_monitor+0x98>
    3bc010e6:	03846583          	lwu	a1,56(s0)
    3bc010ea:	03c46503          	lwu	a0,60(s0)
    3bc010ee:	3c0026b7          	lui	a3,0x3c002
    3bc010f2:	4601                	li	a2,0
    3bc010f4:	8a1ff0ef          	jal	ra,3bc00994 <dec_verify_image>
    3bc010f8:	84aa                	mv	s1,a0
    3bc010fa:	00055a63          	bgez	a0,3bc0110e <load_monitor+0x104>
    3bc010fe:	85aa                	mv	a1,a0
    3bc01100:	00009517          	auipc	a0,0x9
    3bc01104:	33850513          	addi	a0,a0,824 # 3bc0a438 <hex2ascii_data+0x2c8>
    3bc01108:	a50ff0ef          	jal	ra,3bc00358 <tf_printf>
    3bc0110c:	b7c9                	j	3bc010ce <load_monitor+0xc4>
    3bc0110e:	03846583          	lwu	a1,56(s0)
    3bc01112:	03c46503          	lwu	a0,60(s0)
    3bc01116:	840ff0ef          	jal	ra,3bc00156 <flush_dcache_range>
    3bc0111a:	00009517          	auipc	a0,0x9
    3bc0111e:	33e50513          	addi	a0,a0,830 # 3bc0a458 <hex2ascii_data+0x2e8>
    3bc01122:	a36ff0ef          	jal	ra,3bc00358 <tf_printf>
    3bc01126:	03c46783          	lwu	a5,60(s0)
    3bc0112a:	00f93023          	sd	a5,0(s2)
    3bc0112e:	bf11                	j	3bc01042 <load_monitor+0x38>

000000003bc01130 <load_loader_2nd>:
    3bc01130:	715d                	addi	sp,sp,-80
    3bc01132:	f44e                	sd	s3,40(sp)
    3bc01134:	0000c997          	auipc	s3,0xc
    3bc01138:	6cc98993          	addi	s3,s3,1740 # 3bc0d800 <__BSS_START__>
    3bc0113c:	e85a                	sd	s6,16(sp)
    3bc0113e:	8b2e                	mv	s6,a1
    3bc01140:	0449a583          	lw	a1,68(s3)
    3bc01144:	ec56                	sd	s5,24(sp)
    3bc01146:	8aaa                	mv	s5,a0
    3bc01148:	00009517          	auipc	a0,0x9
    3bc0114c:	31850513          	addi	a0,a0,792 # 3bc0a460 <hex2ascii_data+0x2f0>
    3bc01150:	e486                	sd	ra,72(sp)
    3bc01152:	e0a2                	sd	s0,64(sp)
    3bc01154:	fc26                	sd	s1,56(sp)
    3bc01156:	f84a                	sd	s2,48(sp)
    3bc01158:	f052                	sd	s4,32(sp)
    3bc0115a:	9feff0ef          	jal	ra,3bc00358 <tf_printf>
    3bc0115e:	c87ff097          	auipc	ra,0xc87ff
    3bc01162:	ec2080e7          	jalr	-318(ra) # 4400020 <p_rom_api_get_boot_src>
    3bc01166:	67b5                	lui	a5,0xd
    3bc01168:	2501                	sext.w	a0,a0
    3bc0116a:	ea378793          	addi	a5,a5,-349 # cea3 <__BSS_SIZE__+0x7293>
    3bc0116e:	0449a583          	lw	a1,68(s3)
    3bc01172:	86d6                	mv	a3,s5
    3bc01174:	20000613          	li	a2,512
    3bc01178:	02f51663          	bne	a0,a5,3bc011a4 <load_loader_2nd+0x74>
    3bc0117c:	0000d517          	auipc	a0,0xd
    3bc01180:	68450513          	addi	a0,a0,1668 # 3bc0e800 <sram_union_buf>
    3bc01184:	a9dff0ef          	jal	ra,3bc00c20 <load_image_by_usb>
    3bc01188:	02055763          	bgez	a0,3bc011b6 <load_loader_2nd+0x86>
    3bc0118c:	59fd                	li	s3,-1
    3bc0118e:	60a6                	ld	ra,72(sp)
    3bc01190:	6406                	ld	s0,64(sp)
    3bc01192:	74e2                	ld	s1,56(sp)
    3bc01194:	7942                	ld	s2,48(sp)
    3bc01196:	7a02                	ld	s4,32(sp)
    3bc01198:	6ae2                	ld	s5,24(sp)
    3bc0119a:	6b42                	ld	s6,16(sp)
    3bc0119c:	854e                	mv	a0,s3
    3bc0119e:	79a2                	ld	s3,40(sp)
    3bc011a0:	6161                	addi	sp,sp,80
    3bc011a2:	8082                	ret
    3bc011a4:	0000d517          	auipc	a0,0xd
    3bc011a8:	65c50513          	addi	a0,a0,1628 # 3bc0e800 <sram_union_buf>
    3bc011ac:	c87ff097          	auipc	ra,0xc87ff
    3bc011b0:	eb4080e7          	jalr	-332(ra) # 4400060 <p_rom_api_load_image>
    3bc011b4:	bfd1                	j	3bc01188 <load_loader_2nd+0x58>
    3bc011b6:	0000d417          	auipc	s0,0xd
    3bc011ba:	64a40413          	addi	s0,s0,1610 # 3bc0e800 <sram_union_buf>
    3bc011be:	4458                	lw	a4,12(s0)
    3bc011c0:	6814                	ld	a3,16(s0)
    3bc011c2:	4410                	lw	a2,8(s0)
    3bc011c4:	1ff7049b          	addiw	s1,a4,511
    3bc011c8:	404c                	lw	a1,4(s0)
    3bc011ca:	e004f493          	andi	s1,s1,-512
    3bc011ce:	2481                	sext.w	s1,s1
    3bc011d0:	87a6                	mv	a5,s1
    3bc011d2:	00009517          	auipc	a0,0x9
    3bc011d6:	29e50513          	addi	a0,a0,670 # 3bc0a470 <hex2ascii_data+0x300>
    3bc011da:	97eff0ef          	jal	ra,3bc00358 <tf_printf>
    3bc011de:	4058                	lw	a4,4(s0)
    3bc011e0:	345a37b7          	lui	a5,0x345a3
    3bc011e4:	34278793          	addi	a5,a5,834 # 345a3342 <p_rom_api_cryptodma_aes_decrypt+0x301a3242>
    3bc011e8:	06f70363          	beq	a4,a5,3bc0124e <load_loader_2nd+0x11e>
    3bc011ec:	414d37b7          	lui	a5,0x414d3
    3bc011f0:	34278793          	addi	a5,a5,834 # 414d3342 <__BL2_END__+0x58bff32>
    3bc011f4:	06f70963          	beq	a4,a5,3bc01266 <load_loader_2nd+0x136>
    3bc011f8:	01043903          	ld	s2,16(s0)
    3bc011fc:	4a01                	li	s4,0
    3bc011fe:	c87ff097          	auipc	ra,0xc87ff
    3bc01202:	e22080e7          	jalr	-478(ra) # 4400020 <p_rom_api_get_boot_src>
    3bc01206:	67b5                	lui	a5,0xd
    3bc01208:	2501                	sext.w	a0,a0
    3bc0120a:	ea378793          	addi	a5,a5,-349 # cea3 <__BSS_SIZE__+0x7293>
    3bc0120e:	0449a583          	lw	a1,68(s3)
    3bc01212:	86d6                	mv	a3,s5
    3bc01214:	8626                	mv	a2,s1
    3bc01216:	04f51a63          	bne	a0,a5,3bc0126a <load_loader_2nd+0x13a>
    3bc0121a:	854a                	mv	a0,s2
    3bc0121c:	a05ff0ef          	jal	ra,3bc00c20 <load_image_by_usb>
    3bc01220:	f60546e3          	bltz	a0,3bc0118c <load_loader_2nd+0x5c>
    3bc01224:	444c                	lw	a1,12(s0)
    3bc01226:	00c90993          	addi	s3,s2,12
    3bc0122a:	854e                	mv	a0,s3
    3bc0122c:	35d1                	addiw	a1,a1,-12
    3bc0122e:	c87ff097          	auipc	ra,0xc87ff
    3bc01232:	e72080e7          	jalr	-398(ra) # 44000a0 <p_rom_api_image_crc>
    3bc01236:	4410                	lw	a2,8(s0)
    3bc01238:	0005059b          	sext.w	a1,a0
    3bc0123c:	02b60d63          	beq	a2,a1,3bc01276 <load_loader_2nd+0x146>
    3bc01240:	00009517          	auipc	a0,0x9
    3bc01244:	26050513          	addi	a0,a0,608 # 3bc0a4a0 <hex2ascii_data+0x330>
    3bc01248:	910ff0ef          	jal	ra,3bc00358 <tf_printf>
    3bc0124c:	b781                	j	3bc0118c <load_loader_2nd+0x5c>
    3bc0124e:	4a09                	li	s4,2
    3bc01250:	85d2                	mv	a1,s4
    3bc01252:	00009517          	auipc	a0,0x9
    3bc01256:	23e50513          	addi	a0,a0,574 # 3bc0a490 <hex2ascii_data+0x320>
    3bc0125a:	00815937          	lui	s2,0x815
    3bc0125e:	8faff0ef          	jal	ra,3bc00358 <tf_printf>
    3bc01262:	0922                	slli	s2,s2,0x8
    3bc01264:	bf69                	j	3bc011fe <load_loader_2nd+0xce>
    3bc01266:	4a05                	li	s4,1
    3bc01268:	b7e5                	j	3bc01250 <load_loader_2nd+0x120>
    3bc0126a:	854a                	mv	a0,s2
    3bc0126c:	c87ff097          	auipc	ra,0xc87ff
    3bc01270:	df4080e7          	jalr	-524(ra) # 4400060 <p_rom_api_load_image>
    3bc01274:	b775                	j	3bc01220 <load_loader_2nd+0xf0>
    3bc01276:	444c                	lw	a1,12(s0)
    3bc01278:	854e                	mv	a0,s3
    3bc0127a:	3c0026b7          	lui	a3,0x3c002
    3bc0127e:	35d1                	addiw	a1,a1,-12
    3bc01280:	4651                	li	a2,20
    3bc01282:	7c05b58b          	extu	a1,a1,31,0
    3bc01286:	f0eff0ef          	jal	ra,3bc00994 <dec_verify_image>
    3bc0128a:	89aa                	mv	s3,a0
    3bc0128c:	00055a63          	bgez	a0,3bc012a0 <load_loader_2nd+0x170>
    3bc01290:	85aa                	mv	a1,a0
    3bc01292:	00009517          	auipc	a0,0x9
    3bc01296:	23650513          	addi	a0,a0,566 # 3bc0a4c8 <hex2ascii_data+0x358>
    3bc0129a:	8beff0ef          	jal	ra,3bc00358 <tf_printf>
    3bc0129e:	bdc5                	j	3bc0118e <load_loader_2nd+0x5e>
    3bc012a0:	967ff0ef          	jal	ra,3bc00c06 <read_time_ms>
    3bc012a4:	0000a997          	auipc	s3,0xa
    3bc012a8:	19c98993          	addi	s3,s3,412 # 3bc0b440 <time_records>
    3bc012ac:	0009b783          	ld	a5,0(s3)
    3bc012b0:	00a79423          	sh	a0,8(a5)
    3bc012b4:	bccff0ef          	jal	ra,3bc00680 <sys_switch_all_to_pll>
    3bc012b8:	94fff0ef          	jal	ra,3bc00c06 <read_time_ms>
    3bc012bc:	0009b783          	ld	a5,0(s3)
    3bc012c0:	00a79523          	sh	a0,10(a5)
    3bc012c4:	040a0363          	beqz	s4,3bc0130a <load_loader_2nd+0x1da>
    3bc012c8:	6804                	ld	s1,16(s0)
    3bc012ca:	010007b7          	lui	a5,0x1000
    3bc012ce:	02000613          	li	a2,32
    3bc012d2:	85ca                	mv	a1,s2
    3bc012d4:	8526                	mv	a0,s1
    3bc012d6:	e43e                	sd	a5,8(sp)
    3bc012d8:	f94ff0ef          	jal	ra,3bc00a6c <memcpy>
    3bc012dc:	00c46683          	lwu	a3,12(s0)
    3bc012e0:	02090613          	addi	a2,s2,32 # 815020 <__BSS_SIZE__+0x80f410>
    3bc012e4:	002c                	addi	a1,sp,8
    3bc012e6:	02048513          	addi	a0,s1,32 # ffffffffffff3020 <__BL2_END__+0xffffffffc43dfc10>
    3bc012ea:	8752                	mv	a4,s4
    3bc012ec:	3d4000ef          	jal	ra,3bc016c0 <decompress>
    3bc012f0:	6622                	ld	a2,8(sp)
    3bc012f2:	85aa                	mv	a1,a0
    3bc012f4:	0006049b          	sext.w	s1,a2
    3bc012f8:	00055963          	bgez	a0,3bc0130a <load_loader_2nd+0x1da>
    3bc012fc:	00009517          	auipc	a0,0x9
    3bc01300:	1ec50513          	addi	a0,a0,492 # 3bc0a4e8 <hex2ascii_data+0x378>
    3bc01304:	854ff0ef          	jal	ra,3bc00358 <tf_printf>
    3bc01308:	b551                	j	3bc0118c <load_loader_2nd+0x5c>
    3bc0130a:	6808                	ld	a0,16(s0)
    3bc0130c:	85a6                	mv	a1,s1
    3bc0130e:	e49fe0ef          	jal	ra,3bc00156 <flush_dcache_range>
    3bc01312:	8f5ff0ef          	jal	ra,3bc00c06 <read_time_ms>
    3bc01316:	0009b783          	ld	a5,0(s3)
    3bc0131a:	4981                	li	s3,0
    3bc0131c:	00a79623          	sh	a0,12(a5) # 100000c <__BSS_SIZE__+0xffa3fc>
    3bc01320:	00009517          	auipc	a0,0x9
    3bc01324:	1f850513          	addi	a0,a0,504 # 3bc0a518 <hex2ascii_data+0x3a8>
    3bc01328:	830ff0ef          	jal	ra,3bc00358 <tf_printf>
    3bc0132c:	681c                	ld	a5,16(s0)
    3bc0132e:	02078793          	addi	a5,a5,32
    3bc01332:	00fb3023          	sd	a5,0(s6)
    3bc01336:	bda1                	j	3bc0118e <load_loader_2nd+0x5e>

000000003bc01338 <load_rest>:
    3bc01338:	7179                	addi	sp,sp,-48
    3bc0133a:	ec26                	sd	s1,24(sp)
    3bc0133c:	74cd                	lui	s1,0xffff3
    3bc0133e:	e84a                	sd	s2,16(sp)
    3bc01340:	f406                	sd	ra,40(sp)
    3bc01342:	f022                	sd	s0,32(sp)
    3bc01344:	e002                	sd	zero,0(sp)
    3bc01346:	e402                	sd	zero,8(sp)
    3bc01348:	1604849b          	addiw	s1,s1,352
    3bc0134c:	cd0ff0ef          	jal	ra,3bc0081c <sys_pll_init>
    3bc01350:	4915                	li	s2,5
    3bc01352:	4401                	li	s0,0
    3bc01354:	c87ff097          	auipc	ra,0xc87ff
    3bc01358:	d6c080e7          	jalr	-660(ra) # 44000c0 <p_rom_api_get_number_of_retries>
    3bc0135c:	02a45563          	bge	s0,a0,3bc01386 <load_rest+0x4e>
    3bc01360:	8522                	mv	a0,s0
    3bc01362:	b43ff0ef          	jal	ra,3bc00ea4 <load_blcp_2nd>
    3bc01366:	00055463          	bgez	a0,3bc0136e <load_rest+0x36>
    3bc0136a:	2405                	addiw	s0,s0,1
    3bc0136c:	b7e5                	j	3bc01354 <load_rest+0x1c>
    3bc0136e:	858a                	mv	a1,sp
    3bc01370:	8522                	mv	a0,s0
    3bc01372:	c99ff0ef          	jal	ra,3bc0100a <load_monitor>
    3bc01376:	fe054ae3          	bltz	a0,3bc0136a <load_rest+0x32>
    3bc0137a:	002c                	addi	a1,sp,8
    3bc0137c:	8522                	mv	a0,s0
    3bc0137e:	db3ff0ef          	jal	ra,3bc01130 <load_loader_2nd>
    3bc01382:	fe0544e3          	bltz	a0,3bc0136a <load_rest+0x32>
    3bc01386:	c87ff097          	auipc	ra,0xc87ff
    3bc0138a:	d3a080e7          	jalr	-710(ra) # 44000c0 <p_rom_api_get_number_of_retries>
    3bc0138e:	02a45b63          	bge	s0,a0,3bc013c4 <load_rest+0x8c>
    3bc01392:	dbbfe0ef          	jal	ra,3bc0014c <sync_cache>
    3bc01396:	f2dfe0ef          	jal	ra,3bc002c2 <console_flush>
    3bc0139a:	c9aff0ef          	jal	ra,3bc00834 <switch_rtc_mode_2nd_stage>
    3bc0139e:	6582                	ld	a1,0(sp)
    3bc013a0:	c5a5                	beqz	a1,3bc01408 <load_rest+0xd0>
    3bc013a2:	00009517          	auipc	a0,0x9
    3bc013a6:	1ae50513          	addi	a0,a0,430 # 3bc0a550 <hex2ascii_data+0x3e0>
    3bc013aa:	faffe0ef          	jal	ra,3bc00358 <tf_printf>
    3bc013ae:	65a2                	ld	a1,8(sp)
    3bc013b0:	6502                	ld	a0,0(sp)
    3bc013b2:	e69fe0ef          	jal	ra,3bc0021a <jump_to_monitor>
    3bc013b6:	70a2                	ld	ra,40(sp)
    3bc013b8:	7402                	ld	s0,32(sp)
    3bc013ba:	64e2                	ld	s1,24(sp)
    3bc013bc:	6942                	ld	s2,16(sp)
    3bc013be:	4501                	li	a0,0
    3bc013c0:	6145                	addi	sp,sp,48
    3bc013c2:	8082                	ret
    3bc013c4:	c87ff097          	auipc	ra,0xc87ff
    3bc013c8:	c5c080e7          	jalr	-932(ra) # 4400020 <p_rom_api_get_boot_src>
    3bc013cc:	00a487bb          	addw	a5,s1,a0
    3bc013d0:	85a2                	mv	a1,s0
    3bc013d2:	02f96363          	bltu	s2,a5,3bc013f8 <load_rest+0xc0>
    3bc013d6:	4505                	li	a0,1
    3bc013d8:	00f51533          	sll	a0,a0,a5
    3bc013dc:	02957513          	andi	a0,a0,41
    3bc013e0:	cd01                	beqz	a0,3bc013f8 <load_rest+0xc0>
    3bc013e2:	00009517          	auipc	a0,0x9
    3bc013e6:	e7e50513          	addi	a0,a0,-386 # 3bc0a260 <hex2ascii_data+0xf0>
    3bc013ea:	f6ffe0ef          	jal	ra,3bc00358 <tf_printf>
    3bc013ee:	c87ff097          	auipc	ra,0xc87ff
    3bc013f2:	c92080e7          	jalr	-878(ra) # 4400080 <p_rom_api_flash_init>
    3bc013f6:	bfb1                	j	3bc01352 <load_rest+0x1a>
    3bc013f8:	00009517          	auipc	a0,0x9
    3bc013fc:	13850513          	addi	a0,a0,312 # 3bc0a530 <hex2ascii_data+0x3c0>
    3bc01400:	f59fe0ef          	jal	ra,3bc00358 <tf_printf>
    3bc01404:	9b6ff0ef          	jal	ra,3bc005ba <panic_handler>
    3bc01408:	65a2                	ld	a1,8(sp)
    3bc0140a:	00009517          	auipc	a0,0x9
    3bc0140e:	16650513          	addi	a0,a0,358 # 3bc0a570 <hex2ascii_data+0x400>
    3bc01412:	f47fe0ef          	jal	ra,3bc00358 <tf_printf>
    3bc01416:	6522                	ld	a0,8(sp)
    3bc01418:	e7bfe0ef          	jal	ra,3bc00292 <jump_to_loader_2nd>
    3bc0141c:	bf69                	j	3bc013b6 <load_rest+0x7e>

000000003bc0141e <bl2_main>:
    3bc0141e:	1141                	addi	sp,sp,-16
    3bc01420:	e406                	sd	ra,8(sp)
    3bc01422:	b200f737          	lui	a4,0xb200f
    3bc01426:	e022                	sd	s0,0(sp)
    3bc01428:	030007b7          	lui	a5,0x3000
    3bc0142c:	08e7a223          	sw	a4,132(a5) # 3000084 <__BSS_SIZE__+0x2ffa474>
    3bc01430:	fd6ff0ef          	jal	ra,3bc00c06 <read_time_ms>
    3bc01434:	0000a797          	auipc	a5,0xa
    3bc01438:	00c7b783          	ld	a5,12(a5) # 3bc0b440 <time_records>
    3bc0143c:	00a79023          	sh	a0,0(a5)
    3bc01440:	00009617          	auipc	a2,0x9
    3bc01444:	bb060613          	addi	a2,a2,-1104 # 3bc09ff0 <build_message>
    3bc01448:	00009597          	auipc	a1,0x9
    3bc0144c:	bc858593          	addi	a1,a1,-1080 # 3bc0a010 <version_string>
    3bc01450:	00009517          	auipc	a0,0x9
    3bc01454:	14050513          	addi	a0,a0,320 # 3bc0a590 <hex2ascii_data+0x420>
    3bc01458:	f01fe0ef          	jal	ra,3bc00358 <tf_printf>
    3bc0145c:	0e000437          	lui	s0,0xe000
    3bc01460:	400c                	lw	a1,0(s0)
    3bc01462:	00009517          	auipc	a0,0x9
    3bc01466:	13e50513          	addi	a0,a0,318 # 3bc0a5a0 <hex2ascii_data+0x430>
    3bc0146a:	eeffe0ef          	jal	ra,3bc00358 <tf_printf>
    3bc0146e:	3c0027b7          	lui	a5,0x3c002
    3bc01472:	47cc                	lw	a1,12(a5)
    3bc01474:	0e07a603          	lw	a2,224(a5) # 3c0020e0 <__BL2_END__+0x3eecd0>
    3bc01478:	00009517          	auipc	a0,0x9
    3bc0147c:	14050513          	addi	a0,a0,320 # 3bc0a5b8 <hex2ascii_data+0x448>
    3bc01480:	ed9fe0ef          	jal	ra,3bc00358 <tf_printf>
    3bc01484:	4c0c                	lw	a1,24(s0)
    3bc01486:	00009517          	auipc	a0,0x9
    3bc0148a:	16a50513          	addi	a0,a0,362 # 3bc0a5f0 <hex2ascii_data+0x480>
    3bc0148e:	2581                	sext.w	a1,a1
    3bc01490:	ec9fe0ef          	jal	ra,3bc00358 <tf_printf>
    3bc01494:	9a2ff0ef          	jal	ra,3bc00636 <setup_dl_flag>
    3bc01498:	b9aff0ef          	jal	ra,3bc00832 <switch_rtc_mode_1st_stage>
    3bc0149c:	bdcff0ef          	jal	ra,3bc00878 <set_rtc_en_registers>
    3bc014a0:	93fff0ef          	jal	ra,3bc00dde <load_ddr>
    3bc014a4:	e95ff0ef          	jal	ra,3bc01338 <load_rest>
    3bc014a8:	00009517          	auipc	a0,0x9
    3bc014ac:	16050513          	addi	a0,a0,352 # 3bc0a608 <hex2ascii_data+0x498>
    3bc014b0:	ea9fe0ef          	jal	ra,3bc00358 <tf_printf>
    3bc014b4:	a001                	j	3bc014b4 <bl2_main+0x96>

000000003bc014b6 <SzFree>:
    3bc014b6:	8082                	ret

000000003bc014b8 <SzAlloc>:
    3bc014b8:	00012797          	auipc	a5,0x12
    3bc014bc:	e4078793          	addi	a5,a5,-448 # 3bc132f8 <comp_alloc_buf>
    3bc014c0:	6388                	ld	a0,0(a5)
    3bc014c2:	00b50733          	add	a4,a0,a1
    3bc014c6:	e398                	sd	a4,0(a5)
    3bc014c8:	00012797          	auipc	a5,0x12
    3bc014cc:	e387b783          	ld	a5,-456(a5) # 3bc13300 <comp_alloc_size>
    3bc014d0:	97ba                	add	a5,a5,a4
    3bc014d2:	02f76363          	bltu	a4,a5,3bc014f8 <SzAlloc+0x40>
    3bc014d6:	1141                	addi	sp,sp,-16
    3bc014d8:	862e                	mv	a2,a1
    3bc014da:	00009517          	auipc	a0,0x9
    3bc014de:	14650513          	addi	a0,a0,326 # 3bc0a620 <hex2ascii_data+0x4b0>
    3bc014e2:	00009597          	auipc	a1,0x9
    3bc014e6:	2a658593          	addi	a1,a1,678 # 3bc0a788 <__func__.0>
    3bc014ea:	e406                	sd	ra,8(sp)
    3bc014ec:	e6dfe0ef          	jal	ra,3bc00358 <tf_printf>
    3bc014f0:	60a2                	ld	ra,8(sp)
    3bc014f2:	4501                	li	a0,0
    3bc014f4:	0141                	addi	sp,sp,16
    3bc014f6:	8082                	ret
    3bc014f8:	8082                	ret

000000003bc014fa <decompress_lzma>:
    3bc014fa:	711d                	addi	sp,sp,-96
    3bc014fc:	00000797          	auipc	a5,0x0
    3bc01500:	fbc78793          	addi	a5,a5,-68 # 3bc014b8 <SzAlloc>
    3bc01504:	f83e                	sd	a5,48(sp)
    3bc01506:	00000797          	auipc	a5,0x0
    3bc0150a:	fb078793          	addi	a5,a5,-80 # 3bc014b6 <SzFree>
    3bc0150e:	ec86                	sd	ra,88(sp)
    3bc01510:	e8a2                	sd	s0,80(sp)
    3bc01512:	e4a6                	sd	s1,72(sp)
    3bc01514:	e0ca                	sd	s2,64(sp)
    3bc01516:	ec36                	sd	a3,24(sp)
    3bc01518:	f402                	sd	zero,40(sp)
    3bc0151a:	fc3e                	sd	a5,56(sp)
    3bc0151c:	d202                	sw	zero,36(sp)
    3bc0151e:	e19d                	bnez	a1,3bc01544 <decompress_lzma+0x4a>
    3bc01520:	00009597          	auipc	a1,0x9
    3bc01524:	27058593          	addi	a1,a1,624 # 3bc0a790 <__func__.1>
    3bc01528:	00009517          	auipc	a0,0x9
    3bc0152c:	11850513          	addi	a0,a0,280 # 3bc0a640 <hex2ascii_data+0x4d0>
    3bc01530:	e29fe0ef          	jal	ra,3bc00358 <tf_printf>
    3bc01534:	5429                	li	s0,-22
    3bc01536:	60e6                	ld	ra,88(sp)
    3bc01538:	8522                	mv	a0,s0
    3bc0153a:	6446                	ld	s0,80(sp)
    3bc0153c:	64a6                	ld	s1,72(sp)
    3bc0153e:	6906                	ld	s2,64(sp)
    3bc01540:	6125                	addi	sp,sp,96
    3bc01542:	8082                	ret
    3bc01544:	20500793          	li	a5,517
    3bc01548:	07da                	slli	a5,a5,0x16
    3bc0154a:	842a                	mv	s0,a0
    3bc0154c:	00012717          	auipc	a4,0x12
    3bc01550:	daf73623          	sd	a5,-596(a4) # 3bc132f8 <comp_alloc_buf>
    3bc01554:	84ae                	mv	s1,a1
    3bc01556:	001007b7          	lui	a5,0x100
    3bc0155a:	85aa                	mv	a1,a0
    3bc0155c:	00009517          	auipc	a0,0x9
    3bc01560:	10450513          	addi	a0,a0,260 # 3bc0a660 <hex2ascii_data+0x4f0>
    3bc01564:	8932                	mv	s2,a2
    3bc01566:	00012717          	auipc	a4,0x12
    3bc0156a:	d8f73d23          	sd	a5,-614(a4) # 3bc13300 <comp_alloc_size>
    3bc0156e:	debfe0ef          	jal	ra,3bc00358 <tf_printf>
    3bc01572:	67e2                	ld	a5,24(sp)
    3bc01574:	4611                	li	a2,4
    3bc01576:	00590593          	addi	a1,s2,5
    3bc0157a:	17ed                	addi	a5,a5,-5
    3bc0157c:	1008                	addi	a0,sp,32
    3bc0157e:	ec3e                	sd	a5,24(sp)
    3bc01580:	cecff0ef          	jal	ra,3bc00a6c <memcpy>
    3bc01584:	67e2                	ld	a5,24(sp)
    3bc01586:	02016583          	lwu	a1,32(sp)
    3bc0158a:	00009517          	auipc	a0,0x9
    3bc0158e:	0ee50513          	addi	a0,a0,238 # 3bc0a678 <hex2ascii_data+0x508>
    3bc01592:	17e1                	addi	a5,a5,-8
    3bc01594:	f42e                	sd	a1,40(sp)
    3bc01596:	ec3e                	sd	a5,24(sp)
    3bc01598:	dc1fe0ef          	jal	ra,3bc00358 <tf_printf>
    3bc0159c:	181c                	addi	a5,sp,48
    3bc0159e:	e03e                	sd	a5,0(sp)
    3bc015a0:	8522                	mv	a0,s0
    3bc015a2:	02410893          	addi	a7,sp,36
    3bc015a6:	4805                	li	a6,1
    3bc015a8:	4795                	li	a5,5
    3bc015aa:	874a                	mv	a4,s2
    3bc015ac:	0834                	addi	a3,sp,24
    3bc015ae:	00d90613          	addi	a2,s2,13
    3bc015b2:	102c                	addi	a1,sp,40
    3bc015b4:	5f5040ef          	jal	ra,3bc063a8 <LzmaDecode>
    3bc015b8:	842a                	mv	s0,a0
    3bc015ba:	c919                	beqz	a0,3bc015d0 <decompress_lzma+0xd6>
    3bc015bc:	5612                	lw	a2,36(sp)
    3bc015be:	85aa                	mv	a1,a0
    3bc015c0:	00009517          	auipc	a0,0x9
    3bc015c4:	0d850513          	addi	a0,a0,216 # 3bc0a698 <hex2ascii_data+0x528>
    3bc015c8:	d91fe0ef          	jal	ra,3bc00358 <tf_printf>
    3bc015cc:	5449                	li	s0,-14
    3bc015ce:	b7a5                	j	3bc01536 <decompress_lzma+0x3c>
    3bc015d0:	75a2                	ld	a1,40(sp)
    3bc015d2:	00009517          	auipc	a0,0x9
    3bc015d6:	0ee50513          	addi	a0,a0,238 # 3bc0a6c0 <hex2ascii_data+0x550>
    3bc015da:	e08c                	sd	a1,0(s1)
    3bc015dc:	d7dfe0ef          	jal	ra,3bc00358 <tf_printf>
    3bc015e0:	bf99                	j	3bc01536 <decompress_lzma+0x3c>

000000003bc015e2 <LZ4_malloc>:
    3bc015e2:	85aa                	mv	a1,a0
    3bc015e4:	4501                	li	a0,0
    3bc015e6:	bdc9                	j	3bc014b8 <SzAlloc>

000000003bc015e8 <LZ4_calloc>:
    3bc015e8:	02b50633          	mul	a2,a0,a1
    3bc015ec:	1101                	addi	sp,sp,-32
    3bc015ee:	e822                	sd	s0,16(sp)
    3bc015f0:	ec06                	sd	ra,24(sp)
    3bc015f2:	8532                	mv	a0,a2
    3bc015f4:	e432                	sd	a2,8(sp)
    3bc015f6:	fedff0ef          	jal	ra,3bc015e2 <LZ4_malloc>
    3bc015fa:	842a                	mv	s0,a0
    3bc015fc:	c509                	beqz	a0,3bc01606 <LZ4_calloc+0x1e>
    3bc015fe:	6622                	ld	a2,8(sp)
    3bc01600:	4581                	li	a1,0
    3bc01602:	c10ff0ef          	jal	ra,3bc00a12 <memset>
    3bc01606:	60e2                	ld	ra,24(sp)
    3bc01608:	8522                	mv	a0,s0
    3bc0160a:	6442                	ld	s0,16(sp)
    3bc0160c:	6105                	addi	sp,sp,32
    3bc0160e:	8082                	ret

000000003bc01610 <LZ4_free>:
    3bc01610:	8082                	ret

000000003bc01612 <decompress_lz4>:
    3bc01612:	20500793          	li	a5,517
    3bc01616:	715d                	addi	sp,sp,-80
    3bc01618:	07da                	slli	a5,a5,0x16
    3bc0161a:	e0a2                	sd	s0,64(sp)
    3bc0161c:	f84a                	sd	s2,48(sp)
    3bc0161e:	00012717          	auipc	a4,0x12
    3bc01622:	ccf73d23          	sd	a5,-806(a4) # 3bc132f8 <comp_alloc_buf>
    3bc01626:	842a                	mv	s0,a0
    3bc01628:	001007b7          	lui	a5,0x100
    3bc0162c:	892e                	mv	s2,a1
    3bc0162e:	85aa                	mv	a1,a0
    3bc01630:	00009517          	auipc	a0,0x9
    3bc01634:	0a850513          	addi	a0,a0,168 # 3bc0a6d8 <hex2ascii_data+0x568>
    3bc01638:	e486                	sd	ra,72(sp)
    3bc0163a:	e436                	sd	a3,8(sp)
    3bc0163c:	00012717          	auipc	a4,0x12
    3bc01640:	ccf73223          	sd	a5,-828(a4) # 3bc13300 <comp_alloc_size>
    3bc01644:	fc26                	sd	s1,56(sp)
    3bc01646:	f44e                	sd	s3,40(sp)
    3bc01648:	89b2                	mv	s3,a2
    3bc0164a:	d0ffe0ef          	jal	ra,3bc00358 <tf_printf>
    3bc0164e:	06400593          	li	a1,100
    3bc01652:	0828                	addi	a0,sp,24
    3bc01654:	38b050ef          	jal	ra,3bc071de <LZ4F_createDecompressionContext>
    3bc01658:	84aa                	mv	s1,a0
    3bc0165a:	1b7050ef          	jal	ra,3bc07010 <LZ4F_isError>
    3bc0165e:	2501                	sext.w	a0,a0
    3bc01660:	c105                	beqz	a0,3bc01680 <decompress_lz4+0x6e>
    3bc01662:	85a6                	mv	a1,s1
    3bc01664:	00009517          	auipc	a0,0x9
    3bc01668:	08c50513          	addi	a0,a0,140 # 3bc0a6f0 <hex2ascii_data+0x580>
    3bc0166c:	cedfe0ef          	jal	ra,3bc00358 <tf_printf>
    3bc01670:	557d                	li	a0,-1
    3bc01672:	60a6                	ld	ra,72(sp)
    3bc01674:	6406                	ld	s0,64(sp)
    3bc01676:	74e2                	ld	s1,56(sp)
    3bc01678:	7942                	ld	s2,48(sp)
    3bc0167a:	79a2                	ld	s3,40(sp)
    3bc0167c:	6161                	addi	sp,sp,80
    3bc0167e:	8082                	ret
    3bc01680:	6562                	ld	a0,24(sp)
    3bc01682:	4781                	li	a5,0
    3bc01684:	0038                	addi	a4,sp,8
    3bc01686:	85a2                	mv	a1,s0
    3bc01688:	86ce                	mv	a3,s3
    3bc0168a:	864a                	mv	a2,s2
    3bc0168c:	383050ef          	jal	ra,3bc0720e <LZ4F_decompress>
    3bc01690:	6622                	ld	a2,8(sp)
    3bc01692:	00093583          	ld	a1,0(s2)
    3bc01696:	86aa                	mv	a3,a0
    3bc01698:	842a                	mv	s0,a0
    3bc0169a:	00009517          	auipc	a0,0x9
    3bc0169e:	06e50513          	addi	a0,a0,110 # 3bc0a708 <hex2ascii_data+0x598>
    3bc016a2:	cb7fe0ef          	jal	ra,3bc00358 <tf_printf>
    3bc016a6:	8526                	mv	a0,s1
    3bc016a8:	169050ef          	jal	ra,3bc07010 <LZ4F_isError>
    3bc016ac:	0005079b          	sext.w	a5,a0
    3bc016b0:	4501                	li	a0,0
    3bc016b2:	d3e1                	beqz	a5,3bc01672 <decompress_lz4+0x60>
    3bc016b4:	85a2                	mv	a1,s0
    3bc016b6:	00009517          	auipc	a0,0x9
    3bc016ba:	07a50513          	addi	a0,a0,122 # 3bc0a730 <hex2ascii_data+0x5c0>
    3bc016be:	b77d                	j	3bc0166c <decompress_lz4+0x5a>

000000003bc016c0 <decompress>:
    3bc016c0:	7139                	addi	sp,sp,-64
    3bc016c2:	87ba                	mv	a5,a4
    3bc016c4:	ec4e                	sd	s3,24(sp)
    3bc016c6:	e852                	sd	s4,16(sp)
    3bc016c8:	e456                	sd	s5,8(sp)
    3bc016ca:	89b2                	mv	s3,a2
    3bc016cc:	8a36                	mv	s4,a3
    3bc016ce:	8aba                	mv	s5,a4
    3bc016d0:	8736                	mv	a4,a3
    3bc016d2:	86b2                	mv	a3,a2
    3bc016d4:	6190                	ld	a2,0(a1)
    3bc016d6:	f426                	sd	s1,40(sp)
    3bc016d8:	f04a                	sd	s2,32(sp)
    3bc016da:	84ae                	mv	s1,a1
    3bc016dc:	892a                	mv	s2,a0
    3bc016de:	85aa                	mv	a1,a0
    3bc016e0:	00009517          	auipc	a0,0x9
    3bc016e4:	07050513          	addi	a0,a0,112 # 3bc0a750 <hex2ascii_data+0x5e0>
    3bc016e8:	fc06                	sd	ra,56(sp)
    3bc016ea:	f822                	sd	s0,48(sp)
    3bc016ec:	c6dfe0ef          	jal	ra,3bc00358 <tf_printf>
    3bc016f0:	4785                	li	a5,1
    3bc016f2:	02fa8f63          	beq	s5,a5,3bc01730 <decompress+0x70>
    3bc016f6:	4789                	li	a5,2
    3bc016f8:	5429                	li	s0,-22
    3bc016fa:	00fa9963          	bne	s5,a5,3bc0170c <decompress+0x4c>
    3bc016fe:	86d2                	mv	a3,s4
    3bc01700:	864e                	mv	a2,s3
    3bc01702:	85a6                	mv	a1,s1
    3bc01704:	854a                	mv	a0,s2
    3bc01706:	f0dff0ef          	jal	ra,3bc01612 <decompress_lz4>
    3bc0170a:	842a                	mv	s0,a0
    3bc0170c:	608c                	ld	a1,0(s1)
    3bc0170e:	8622                	mv	a2,s0
    3bc01710:	00009517          	auipc	a0,0x9
    3bc01714:	06050513          	addi	a0,a0,96 # 3bc0a770 <hex2ascii_data+0x600>
    3bc01718:	c41fe0ef          	jal	ra,3bc00358 <tf_printf>
    3bc0171c:	70e2                	ld	ra,56(sp)
    3bc0171e:	8522                	mv	a0,s0
    3bc01720:	7442                	ld	s0,48(sp)
    3bc01722:	74a2                	ld	s1,40(sp)
    3bc01724:	7902                	ld	s2,32(sp)
    3bc01726:	69e2                	ld	s3,24(sp)
    3bc01728:	6a42                	ld	s4,16(sp)
    3bc0172a:	6aa2                	ld	s5,8(sp)
    3bc0172c:	6121                	addi	sp,sp,64
    3bc0172e:	8082                	ret
    3bc01730:	86d2                	mv	a3,s4
    3bc01732:	864e                	mv	a2,s3
    3bc01734:	85a6                	mv	a1,s1
    3bc01736:	854a                	mv	a0,s2
    3bc01738:	dc3ff0ef          	jal	ra,3bc014fa <decompress_lzma>
    3bc0173c:	b7f9                	j	3bc0170a <decompress+0x4a>

000000003bc0173e <DWC2_UncachedRead32>:
    3bc0173e:	4108                	lw	a0,0(a0)
    3bc01740:	2501                	sext.w	a0,a0
    3bc01742:	8082                	ret

000000003bc01744 <DWC2_UncachedWrite32>:
    3bc01744:	c188                	sw	a0,0(a1)
    3bc01746:	8082                	ret

000000003bc01748 <resume>:
    3bc01748:	8082                	ret

000000003bc0174a <requestMemAlloc>:
    3bc0174a:	00012717          	auipc	a4,0x12
    3bc0174e:	cc170713          	addi	a4,a4,-831 # 3bc1340b <mem_alloc_cnt>
    3bc01752:	00074783          	lbu	a5,0(a4)
    3bc01756:	eb89                	bnez	a5,3bc01768 <requestMemAlloc+0x1e>
    3bc01758:	0000a517          	auipc	a0,0xa
    3bc0175c:	d9053503          	ld	a0,-624(a0) # 3bc0b4e8 <cb0_buf>
    3bc01760:	2785                	addiw	a5,a5,1
    3bc01762:	00f70023          	sb	a5,0(a4)
    3bc01766:	8082                	ret
    3bc01768:	4685                	li	a3,1
    3bc0176a:	00d79763          	bne	a5,a3,3bc01778 <requestMemAlloc+0x2e>
    3bc0176e:	0000a517          	auipc	a0,0xa
    3bc01772:	d8253503          	ld	a0,-638(a0) # 3bc0b4f0 <cb1_buf>
    3bc01776:	b7ed                	j	3bc01760 <requestMemAlloc+0x16>
    3bc01778:	0000a517          	auipc	a0,0xa
    3bc0177c:	d8053503          	ld	a0,-640(a0) # 3bc0b4f8 <cb2_buf>
    3bc01780:	b7c5                	j	3bc01760 <requestMemAlloc+0x16>

000000003bc01782 <requestMemFree>:
    3bc01782:	8082                	ret

000000003bc01784 <acm_complete_set_line_coding>:
    3bc01784:	698c                	ld	a1,16(a1)
    3bc01786:	00012517          	auipc	a0,0x12
    3bc0178a:	b8253503          	ld	a0,-1150(a0) # 3bc13308 <acm>
    3bc0178e:	1141                	addi	sp,sp,-16
    3bc01790:	461d                	li	a2,7
    3bc01792:	0511                	addi	a0,a0,4
    3bc01794:	e406                	sd	ra,8(sp)
    3bc01796:	ad6ff0ef          	jal	ra,3bc00a6c <memcpy>
    3bc0179a:	60a2                	ld	ra,8(sp)
    3bc0179c:	0141                	addi	sp,sp,16
    3bc0179e:	8082                	ret

000000003bc017a0 <reset>:
    3bc017a0:	00009597          	auipc	a1,0x9
    3bc017a4:	40058593          	addi	a1,a1,1024 # 3bc0aba0 <__func__.5>
    3bc017a8:	00009517          	auipc	a0,0x9
    3bc017ac:	ff850513          	addi	a0,a0,-8 # 3bc0a7a0 <__func__.1+0x10>
    3bc017b0:	ba9fe06f          	j	3bc00358 <tf_printf>

000000003bc017b4 <disconnect>:
    3bc017b4:	00012797          	auipc	a5,0x12
    3bc017b8:	c40788a3          	sb	zero,-943(a5) # 3bc13405 <acm_configValue>
    3bc017bc:	4785                	li	a5,1
    3bc017be:	00012717          	auipc	a4,0x12
    3bc017c2:	c4f706a3          	sb	a5,-947(a4) # 3bc1340b <mem_alloc_cnt>
    3bc017c6:	00009597          	auipc	a1,0x9
    3bc017ca:	3ca58593          	addi	a1,a1,970 # 3bc0ab90 <__func__.4>
    3bc017ce:	00012797          	auipc	a5,0x12
    3bc017d2:	c2078ca3          	sb	zero,-967(a5) # 3bc13407 <configValue>
    3bc017d6:	00009517          	auipc	a0,0x9
    3bc017da:	fca50513          	addi	a0,a0,-54 # 3bc0a7a0 <__func__.1+0x10>
    3bc017de:	b7bfe06f          	j	3bc00358 <tf_printf>

000000003bc017e2 <unbind>:
    3bc017e2:	1141                	addi	sp,sp,-16
    3bc017e4:	00009597          	auipc	a1,0x9
    3bc017e8:	3a458593          	addi	a1,a1,932 # 3bc0ab88 <__func__.1>
    3bc017ec:	00009517          	auipc	a0,0x9
    3bc017f0:	fcc50513          	addi	a0,a0,-52 # 3bc0a7b8 <__func__.1+0x28>
    3bc017f4:	e406                	sd	ra,8(sp)
    3bc017f6:	b63fe0ef          	jal	ra,3bc00358 <tf_printf>
    3bc017fa:	60a2                	ld	ra,8(sp)
    3bc017fc:	0000a797          	auipc	a5,0xa
    3bc01800:	dc07b223          	sd	zero,-572(a5) # 3bc0b5c0 <drv_obj>
    3bc01804:	0141                	addi	sp,sp,16
    3bc01806:	8082                	ret

000000003bc01808 <bind>:
    3bc01808:	1141                	addi	sp,sp,-16
    3bc0180a:	e022                	sd	s0,0(sp)
    3bc0180c:	00009597          	auipc	a1,0x9
    3bc01810:	37458593          	addi	a1,a1,884 # 3bc0ab80 <__func__.0>
    3bc01814:	842a                	mv	s0,a0
    3bc01816:	00009517          	auipc	a0,0x9
    3bc0181a:	fa250513          	addi	a0,a0,-94 # 3bc0a7b8 <__func__.1+0x28>
    3bc0181e:	e406                	sd	ra,8(sp)
    3bc01820:	b39fe0ef          	jal	ra,3bc00358 <tf_printf>
    3bc01824:	0000a797          	auipc	a5,0xa
    3bc01828:	d9c78793          	addi	a5,a5,-612 # 3bc0b5c0 <drv_obj>
    3bc0182c:	6398                	ld	a4,0(a5)
    3bc0182e:	cf01                	beqz	a4,3bc01846 <bind+0x3e>
    3bc01830:	00009517          	auipc	a0,0x9
    3bc01834:	f9850513          	addi	a0,a0,-104 # 3bc0a7c8 <__func__.1+0x38>
    3bc01838:	b21fe0ef          	jal	ra,3bc00358 <tf_printf>
    3bc0183c:	60a2                	ld	ra,8(sp)
    3bc0183e:	6402                	ld	s0,0(sp)
    3bc01840:	4501                	li	a0,0
    3bc01842:	0141                	addi	sp,sp,16
    3bc01844:	8082                	ret
    3bc01846:	e380                	sd	s0,0(a5)
    3bc01848:	bfd5                	j	3bc0183c <bind+0x34>

000000003bc0184a <get_unicode_string>:
    3bc0184a:	1101                	addi	sp,sp,-32
    3bc0184c:	e822                	sd	s0,16(sp)
    3bc0184e:	842a                	mv	s0,a0
    3bc01850:	852e                	mv	a0,a1
    3bc01852:	e42e                	sd	a1,8(sp)
    3bc01854:	ec06                	sd	ra,24(sp)
    3bc01856:	b04ff0ef          	jal	ra,3bc00b5a <strlen>
    3bc0185a:	0506                	slli	a0,a0,0x1
    3bc0185c:	0025071b          	addiw	a4,a0,2
    3bc01860:	87a2                	mv	a5,s0
    3bc01862:	1827d70b          	sbia	a4,(a5),2,0
    3bc01866:	470d                	li	a4,3
    3bc01868:	00e400a3          	sb	a4,1(s0) # e000001 <p_rom_api_cryptodma_aes_decrypt+0x9bfff01>
    3bc0186c:	06400713          	li	a4,100
    3bc01870:	65a2                	ld	a1,8(sp)
    3bc01872:	00a77463          	bgeu	a4,a0,3bc0187a <get_unicode_string+0x30>
    3bc01876:	06400513          	li	a0,100
    3bc0187a:	4701                	li	a4,0
    3bc0187c:	00171693          	slli	a3,a4,0x1
    3bc01880:	00a6e663          	bltu	a3,a0,3bc0188c <get_unicode_string+0x42>
    3bc01884:	60e2                	ld	ra,24(sp)
    3bc01886:	6442                	ld	s0,16(sp)
    3bc01888:	6105                	addi	sp,sp,32
    3bc0188a:	8082                	ret
    3bc0188c:	80e5c68b          	lrbu	a3,a1,a4,0
    3bc01890:	0705                	addi	a4,a4,1
    3bc01892:	1827d68b          	sbia	a3,(a5),2,0
    3bc01896:	fe078fa3          	sb	zero,-1(a5)
    3bc0189a:	b7cd                	j	3bc0187c <get_unicode_string+0x32>

000000003bc0189c <bulkOutCmpl>:
    3bc0189c:	5d98                	lw	a4,56(a1)
    3bc0189e:	fc600793          	li	a5,-58
    3bc018a2:	22f70663          	beq	a4,a5,3bc01ace <bulkOutCmpl+0x232>
    3bc018a6:	699c                	ld	a5,16(a1)
    3bc018a8:	7179                	addi	sp,sp,-48
    3bc018aa:	e052                	sd	s4,0(sp)
    3bc018ac:	f406                	sd	ra,40(sp)
    3bc018ae:	f022                	sd	s0,32(sp)
    3bc018b0:	ec26                	sd	s1,24(sp)
    3bc018b2:	e84a                	sd	s2,16(sp)
    3bc018b4:	e44e                	sd	s3,8(sp)
    3bc018b6:	0037c403          	lbu	s0,3(a5)
    3bc018ba:	0047c703          	lbu	a4,4(a5)
    3bc018be:	0017c483          	lbu	s1,1(a5)
    3bc018c2:	1402                	slli	s0,s0,0x20
    3bc018c4:	0762                	slli	a4,a4,0x18
    3bc018c6:	943a                	add	s0,s0,a4
    3bc018c8:	0077c703          	lbu	a4,7(a5)
    3bc018cc:	0027c603          	lbu	a2,2(a5)
    3bc018d0:	0084949b          	slliw	s1,s1,0x8
    3bc018d4:	943a                	add	s0,s0,a4
    3bc018d6:	0057c703          	lbu	a4,5(a5)
    3bc018da:	9e25                	addw	a2,a2,s1
    3bc018dc:	00012a17          	auipc	s4,0x12
    3bc018e0:	a4ca0a13          	addi	s4,s4,-1460 # 3bc13328 <cmdBuf>
    3bc018e4:	0742                	slli	a4,a4,0x10
    3bc018e6:	943a                	add	s0,s0,a4
    3bc018e8:	0067c703          	lbu	a4,6(a5)
    3bc018ec:	000a3583          	ld	a1,0(s4)
    3bc018f0:	84b2                	mv	s1,a2
    3bc018f2:	0722                	slli	a4,a4,0x8
    3bc018f4:	943a                	add	s0,s0,a4
    3bc018f6:	ee05                	bnez	a2,3bc0192e <bulkOutCmpl+0x92>
    3bc018f8:	e81d                	bnez	s0,3bc0192e <bulkOutCmpl+0x92>
    3bc018fa:	00012797          	auipc	a5,0x12
    3bc018fe:	a267b783          	ld	a5,-1498(a5) # 3bc13320 <bulkOutReq>
    3bc01902:	00012717          	auipc	a4,0x12
    3bc01906:	ae672703          	lw	a4,-1306(a4) # 3bc133e8 <transfer_size>
    3bc0190a:	00012517          	auipc	a0,0x12
    3bc0190e:	a3e53503          	ld	a0,-1474(a0) # 3bc13348 <epOut>
    3bc01912:	cf98                	sw	a4,24(a5)
    3bc01914:	7118                	ld	a4,32(a0)
    3bc01916:	7402                	ld	s0,32(sp)
    3bc01918:	70a2                	ld	ra,40(sp)
    3bc0191a:	64e2                	ld	s1,24(sp)
    3bc0191c:	6942                	ld	s2,16(sp)
    3bc0191e:	69a2                	ld	s3,8(sp)
    3bc01920:	6a02                	ld	s4,0(sp)
    3bc01922:	7318                	ld	a4,32(a4)
    3bc01924:	eb8c                	sd	a1,16(a5)
    3bc01926:	cfcc                	sw	a1,28(a5)
    3bc01928:	85be                	mv	a1,a5
    3bc0192a:	6145                	addi	sp,sp,48
    3bc0192c:	8702                	jr	a4
    3bc0192e:	0007c903          	lbu	s2,0(a5)
    3bc01932:	4501                	li	a0,0
    3bc01934:	5d3020ef          	jal	ra,3bc04706 <crc16_ccitt>
    3bc01938:	4789                	li	a5,2
    3bc0193a:	89aa                	mv	s3,a0
    3bc0193c:	0ef90763          	beq	s2,a5,3bc01a2a <bulkOutCmpl+0x18e>
    3bc01940:	0327e363          	bltu	a5,s2,3bc01966 <bulkOutCmpl+0xca>
    3bc01944:	0c091863          	bnez	s2,3bc01a14 <bulkOutCmpl+0x178>
    3bc01948:	000a3583          	ld	a1,0(s4)
    3bc0194c:	ff84861b          	addiw	a2,s1,-8
    3bc01950:	00012517          	auipc	a0,0x12
    3bc01954:	a0053503          	ld	a0,-1536(a0) # 3bc13350 <fip_buf>
    3bc01958:	7c06360b          	extu	a2,a2,31,0
    3bc0195c:	05a1                	addi	a1,a1,8
    3bc0195e:	9522                	add	a0,a0,s0
    3bc01960:	90cff0ef          	jal	ra,3bc00a6c <memcpy>
    3bc01964:	a021                	j	3bc0196c <bulkOutCmpl+0xd0>
    3bc01966:	478d                	li	a5,3
    3bc01968:	0ef90163          	beq	s2,a5,3bc01a4a <bulkOutCmpl+0x1ae>
    3bc0196c:	0000a417          	auipc	s0,0xa
    3bc01970:	d2440413          	addi	s0,s0,-732 # 3bc0b690 <rsp_buf>
    3bc01974:	6008                	ld	a0,0(s0)
    3bc01976:	4641                	li	a2,16
    3bc01978:	4581                	li	a1,0
    3bc0197a:	898ff0ef          	jal	ra,3bc00a12 <memset>
    3bc0197e:	601c                	ld	a5,0(s0)
    3bc01980:	00012617          	auipc	a2,0x12
    3bc01984:	a8460613          	addi	a2,a2,-1404 # 3bc13404 <ack_idx.6>
    3bc01988:	00064703          	lbu	a4,0(a2)
    3bc0198c:	0089951b          	slliw	a0,s3,0x8
    3bc01990:	00012697          	auipc	a3,0x12
    3bc01994:	a506a683          	lw	a3,-1456(a3) # 3bc133e0 <fip_tx_offset>
    3bc01998:	0089d99b          	srliw	s3,s3,0x8
    3bc0199c:	01356533          	or	a0,a0,s3
    3bc019a0:	00012497          	auipc	s1,0x12
    3bc019a4:	97848493          	addi	s1,s1,-1672 # 3bc13318 <bulkInReq>
    3bc019a8:	9006968b          	revw	a3,a3
    3bc019ac:	00a79023          	sh	a0,0(a5)
    3bc019b0:	00a79123          	sh	a0,2(a5)
    3bc019b4:	c794                	sw	a3,8(a5)
    3bc019b6:	6088                	ld	a0,0(s1)
    3bc019b8:	00012697          	auipc	a3,0x12
    3bc019bc:	a2c6a683          	lw	a3,-1492(a3) # 3bc133e4 <fip_tx_size>
    3bc019c0:	00e783a3          	sb	a4,7(a5)
    3bc019c4:	9006968b          	revw	a3,a3
    3bc019c8:	2705                	addiw	a4,a4,1
    3bc019ca:	01278323          	sb	s2,6(a5)
    3bc019ce:	00079223          	sh	zero,4(a5)
    3bc019d2:	c7d4                	sw	a3,12(a5)
    3bc019d4:	00e60023          	sb	a4,0(a2)
    3bc019d8:	4581                	li	a1,0
    3bc019da:	04000613          	li	a2,64
    3bc019de:	834ff0ef          	jal	ra,3bc00a12 <memset>
    3bc019e2:	608c                	ld	a1,0(s1)
    3bc019e4:	47c1                	li	a5,16
    3bc019e6:	00012517          	auipc	a0,0x12
    3bc019ea:	95a53503          	ld	a0,-1702(a0) # 3bc13340 <epIn>
    3bc019ee:	cd9c                	sw	a5,24(a1)
    3bc019f0:	601c                	ld	a5,0(s0)
    3bc019f2:	7402                	ld	s0,32(sp)
    3bc019f4:	70a2                	ld	ra,40(sp)
    3bc019f6:	e99c                	sd	a5,16(a1)
    3bc019f8:	cddc                	sw	a5,28(a1)
    3bc019fa:	00000797          	auipc	a5,0x0
    3bc019fe:	15c78793          	addi	a5,a5,348 # 3bc01b56 <bulkInCmpl>
    3bc01a02:	f59c                	sd	a5,40(a1)
    3bc01a04:	711c                	ld	a5,32(a0)
    3bc01a06:	64e2                	ld	s1,24(sp)
    3bc01a08:	6942                	ld	s2,16(sp)
    3bc01a0a:	69a2                	ld	s3,8(sp)
    3bc01a0c:	6a02                	ld	s4,0(sp)
    3bc01a0e:	739c                	ld	a5,32(a5)
    3bc01a10:	6145                	addi	sp,sp,48
    3bc01a12:	8782                	jr	a5
    3bc01a14:	0e0007b7          	lui	a5,0xe000
    3bc01a18:	0791                	addi	a5,a5,4
    3bc01a1a:	f4f419e3          	bne	s0,a5,3bc0196c <bulkOutCmpl+0xd0>
    3bc01a1e:	000a3583          	ld	a1,0(s4)
    3bc01a22:	4611                	li	a2,4
    3bc01a24:	8522                	mv	a0,s0
    3bc01a26:	05a1                	addi	a1,a1,8
    3bc01a28:	bf25                	j	3bc01960 <bulkOutCmpl+0xc4>
    3bc01a2a:	00009517          	auipc	a0,0x9
    3bc01a2e:	da650513          	addi	a0,a0,-602 # 3bc0a7d0 <__func__.1+0x40>
    3bc01a32:	927fe0ef          	jal	ra,3bc00358 <tf_printf>
    3bc01a36:	00012797          	auipc	a5,0x12
    3bc01a3a:	9c078723          	sb	zero,-1586(a5) # 3bc13404 <ack_idx.6>
    3bc01a3e:	4785                	li	a5,1
    3bc01a40:	00012717          	auipc	a4,0x12
    3bc01a44:	9cf70323          	sb	a5,-1594(a4) # 3bc13406 <configBreak>
    3bc01a48:	b715                	j	3bc0196c <bulkOutCmpl+0xd0>
    3bc01a4a:	000a3583          	ld	a1,0(s4)
    3bc01a4e:	ff84861b          	addiw	a2,s1,-8
    3bc01a52:	4501                	li	a0,0
    3bc01a54:	05a1                	addi	a1,a1,8
    3bc01a56:	4b1020ef          	jal	ra,3bc04706 <crc16_ccitt>
    3bc01a5a:	842a                	mv	s0,a0
    3bc01a5c:	00009517          	auipc	a0,0x9
    3bc01a60:	d8c50513          	addi	a0,a0,-628 # 3bc0a7e8 <__func__.1+0x58>
    3bc01a64:	8f5fe0ef          	jal	ra,3bc00358 <tf_printf>
    3bc01a68:	67b1                	lui	a5,0xc
    3bc01a6a:	2401                	sext.w	s0,s0
    3bc01a6c:	28378793          	addi	a5,a5,643 # c283 <__BSS_SIZE__+0x6673>
    3bc01a70:	02f41a63          	bne	s0,a5,3bc01aa4 <bulkOutCmpl+0x208>
    3bc01a74:	00012797          	auipc	a5,0x12
    3bc01a78:	98078823          	sb	zero,-1648(a5) # 3bc13404 <ack_idx.6>
    3bc01a7c:	00012797          	auipc	a5,0x12
    3bc01a80:	98c78793          	addi	a5,a5,-1652 # 3bc13408 <flagEnterDL>
    3bc01a84:	4705                	li	a4,1
    3bc01a86:	00e78023          	sb	a4,0(a5)
    3bc01a8a:	0e000737          	lui	a4,0xe000
    3bc01a8e:	00072223          	sw	zero,4(a4) # e000004 <p_rom_api_cryptodma_aes_decrypt+0x9bfff04>
    3bc01a92:	0007c583          	lbu	a1,0(a5)
    3bc01a96:	00009517          	auipc	a0,0x9
    3bc01a9a:	d5a50513          	addi	a0,a0,-678 # 3bc0a7f0 <__func__.1+0x60>
    3bc01a9e:	8bbfe0ef          	jal	ra,3bc00358 <tf_printf>
    3bc01aa2:	b5e9                	j	3bc0196c <bulkOutCmpl+0xd0>
    3bc01aa4:	00012797          	auipc	a5,0x12
    3bc01aa8:	96078223          	sb	zero,-1692(a5) # 3bc13408 <flagEnterDL>
    3bc01aac:	0e0007b7          	lui	a5,0xe000
    3bc01ab0:	0007a223          	sw	zero,4(a5) # e000004 <p_rom_api_cryptodma_aes_decrypt+0x9bfff04>
    3bc01ab4:	00009517          	auipc	a0,0x9
    3bc01ab8:	d5450513          	addi	a0,a0,-684 # 3bc0a808 <__func__.1+0x78>
    3bc01abc:	89dfe0ef          	jal	ra,3bc00358 <tf_printf>
    3bc01ac0:	00009517          	auipc	a0,0x9
    3bc01ac4:	d6850513          	addi	a0,a0,-664 # 3bc0a828 <__func__.1+0x98>
    3bc01ac8:	891fe0ef          	jal	ra,3bc00358 <tf_printf>
    3bc01acc:	b545                	j	3bc0196c <bulkOutCmpl+0xd0>
    3bc01ace:	8082                	ret

000000003bc01ad0 <getDescAcm>:
    3bc01ad0:	7179                	addi	sp,sp,-48
    3bc01ad2:	f406                	sd	ra,40(sp)
    3bc01ad4:	f022                	sd	s0,32(sp)
    3bc01ad6:	ec26                	sd	s1,24(sp)
    3bc01ad8:	e84a                	sd	s2,16(sp)
    3bc01ada:	e44e                	sd	s3,8(sp)
    3bc01adc:	4789                	li	a5,2
    3bc01ade:	02f50263          	beq	a0,a5,3bc01b02 <getDescAcm+0x32>
    3bc01ae2:	478d                	li	a5,3
    3bc01ae4:	54fd                	li	s1,-1
    3bc01ae6:	0000a417          	auipc	s0,0xa
    3bc01aea:	a7240413          	addi	s0,s0,-1422 # 3bc0b558 <descriptorsHs>
    3bc01aee:	00f50e63          	beq	a0,a5,3bc01b0a <getDescAcm+0x3a>
    3bc01af2:	70a2                	ld	ra,40(sp)
    3bc01af4:	7402                	ld	s0,32(sp)
    3bc01af6:	6942                	ld	s2,16(sp)
    3bc01af8:	69a2                	ld	s3,8(sp)
    3bc01afa:	8526                	mv	a0,s1
    3bc01afc:	64e2                	ld	s1,24(sp)
    3bc01afe:	6145                	addi	sp,sp,48
    3bc01b00:	8082                	ret
    3bc01b02:	0000a417          	auipc	s0,0xa
    3bc01b06:	a0640413          	addi	s0,s0,-1530 # 3bc0b508 <descriptorsFs>
    3bc01b0a:	892e                	mv	s2,a1
    3bc01b0c:	7884458b          	ldia	a1,(s0),8,0
    3bc01b10:	4481                	li	s1,0
    3bc01b12:	d1e5                	beqz	a1,3bc01af2 <getDescAcm+0x22>
    3bc01b14:	0005c983          	lbu	s3,0(a1)
    3bc01b18:	00990533          	add	a0,s2,s1
    3bc01b1c:	864e                	mv	a2,s3
    3bc01b1e:	f4ffe0ef          	jal	ra,3bc00a6c <memcpy>
    3bc01b22:	7884458b          	ldia	a1,(s0),8,0
    3bc01b26:	009984bb          	addw	s1,s3,s1
    3bc01b2a:	b7e5                	j	3bc01b12 <getDescAcm+0x42>

000000003bc01b2c <reqComplete>:
    3bc01b2c:	5d98                	lw	a4,56(a1)
    3bc01b2e:	57ed                	li	a5,-5
    3bc01b30:	02f71263          	bne	a4,a5,3bc01b54 <reqComplete+0x28>
    3bc01b34:	1141                	addi	sp,sp,-16
    3bc01b36:	00009517          	auipc	a0,0x9
    3bc01b3a:	d0250513          	addi	a0,a0,-766 # 3bc0a838 <__func__.1+0xa8>
    3bc01b3e:	e406                	sd	ra,8(sp)
    3bc01b40:	819fe0ef          	jal	ra,3bc00358 <tf_printf>
    3bc01b44:	60a2                	ld	ra,8(sp)
    3bc01b46:	4785                	li	a5,1
    3bc01b48:	00012717          	auipc	a4,0x12
    3bc01b4c:	8cf700a3          	sb	a5,-1855(a4) # 3bc13409 <flagReboot>
    3bc01b50:	0141                	addi	sp,sp,16
    3bc01b52:	8082                	ret
    3bc01b54:	8082                	ret

000000003bc01b56 <bulkInCmpl>:
    3bc01b56:	5d98                	lw	a4,56(a1)
    3bc01b58:	fc600793          	li	a5,-58
    3bc01b5c:	04f70463          	beq	a4,a5,3bc01ba4 <bulkInCmpl+0x4e>
    3bc01b60:	1141                	addi	sp,sp,-16
    3bc01b62:	e022                	sd	s0,0(sp)
    3bc01b64:	00011417          	auipc	s0,0x11
    3bc01b68:	7c440413          	addi	s0,s0,1988 # 3bc13328 <cmdBuf>
    3bc01b6c:	6008                	ld	a0,0(s0)
    3bc01b6e:	4581                	li	a1,0
    3bc01b70:	4621                	li	a2,8
    3bc01b72:	e406                	sd	ra,8(sp)
    3bc01b74:	e9ffe0ef          	jal	ra,3bc00a12 <memset>
    3bc01b78:	00011597          	auipc	a1,0x11
    3bc01b7c:	7a85b583          	ld	a1,1960(a1) # 3bc13320 <bulkOutReq>
    3bc01b80:	00012797          	auipc	a5,0x12
    3bc01b84:	8687a783          	lw	a5,-1944(a5) # 3bc133e8 <transfer_size>
    3bc01b88:	cd9c                	sw	a5,24(a1)
    3bc01b8a:	601c                	ld	a5,0(s0)
    3bc01b8c:	00011517          	auipc	a0,0x11
    3bc01b90:	7bc53503          	ld	a0,1980(a0) # 3bc13348 <epOut>
    3bc01b94:	6402                	ld	s0,0(sp)
    3bc01b96:	e99c                	sd	a5,16(a1)
    3bc01b98:	cddc                	sw	a5,28(a1)
    3bc01b9a:	711c                	ld	a5,32(a0)
    3bc01b9c:	60a2                	ld	ra,8(sp)
    3bc01b9e:	739c                	ld	a5,32(a5)
    3bc01ba0:	0141                	addi	sp,sp,16
    3bc01ba2:	8782                	jr	a5
    3bc01ba4:	8082                	ret

000000003bc01ba6 <setup>:
    3bc01ba6:	7159                	addi	sp,sp,-112
    3bc01ba8:	e4ce                	sd	s3,72(sp)
    3bc01baa:	fc56                	sd	s5,56(sp)
    3bc01bac:	00011997          	auipc	s3,0x11
    3bc01bb0:	78498993          	addi	s3,s3,1924 # 3bc13330 <ep0Buff>
    3bc01bb4:	00011a97          	auipc	s5,0x11
    3bc01bb8:	784a8a93          	addi	s5,s5,1924 # 3bc13338 <ep0Req>
    3bc01bbc:	eca6                	sd	s1,88(sp)
    3bc01bbe:	000ab603          	ld	a2,0(s5)
    3bc01bc2:	84aa                	mv	s1,a0
    3bc01bc4:	0009b503          	ld	a0,0(s3)
    3bc01bc8:	e0d2                	sd	s4,64(sp)
    3bc01bca:	f486                	sd	ra,104(sp)
    3bc01bcc:	f0a2                	sd	s0,96(sp)
    3bc01bce:	e8ca                	sd	s2,80(sp)
    3bc01bd0:	f85a                	sd	s6,48(sp)
    3bc01bd2:	f45e                	sd	s7,40(sp)
    3bc01bd4:	f062                	sd	s8,32(sp)
    3bc01bd6:	ec66                	sd	s9,24(sp)
    3bc01bd8:	0204a803          	lw	a6,32(s1)
    3bc01bdc:	0015c703          	lbu	a4,1(a1)
    3bc01be0:	0005c683          	lbu	a3,0(a1)
    3bc01be4:	0065da03          	lhu	s4,6(a1)
    3bc01be8:	0025d783          	lhu	a5,2(a1)
    3bc01bec:	00000597          	auipc	a1,0x0
    3bc01bf0:	f4058593          	addi	a1,a1,-192 # 3bc01b2c <reqComplete>
    3bc01bf4:	f60c                	sd	a1,40(a2)
    3bc01bf6:	ea08                	sd	a0,16(a2)
    3bc01bf8:	ce48                	sw	a0,28(a2)
    3bc01bfa:	4589                	li	a1,2
    3bc01bfc:	02b80763          	beq	a6,a1,3bc01c2a <setup+0x84>
    3bc01c00:	458d                	li	a1,3
    3bc01c02:	4905                	li	s2,1
    3bc01c04:	06b81063          	bne	a6,a1,3bc01c64 <setup+0xbe>
    3bc01c08:	0000ab17          	auipc	s6,0xa
    3bc01c0c:	8b8b0b13          	addi	s6,s6,-1864 # 3bc0b4c0 <acm_hs_out_desc>
    3bc01c10:	0000ab97          	auipc	s7,0xa
    3bc01c14:	8a0b8b93          	addi	s7,s7,-1888 # 3bc0b4b0 <acm_hs_in_desc>
    3bc01c18:	0606f593          	andi	a1,a3,96
    3bc01c1c:	c185                	beqz	a1,3bc01c3c <setup+0x96>
    3bc01c1e:	02000693          	li	a3,32
    3bc01c22:	36d58463          	beq	a1,a3,3bc01f8a <setup+0x3e4>
    3bc01c26:	4901                	li	s2,0
    3bc01c28:	a835                	j	3bc01c64 <setup+0xbe>
    3bc01c2a:	0000ab17          	auipc	s6,0xa
    3bc01c2e:	876b0b13          	addi	s6,s6,-1930 # 3bc0b4a0 <acm_fs_out_desc>
    3bc01c32:	0000ab97          	auipc	s7,0xa
    3bc01c36:	85eb8b93          	addi	s7,s7,-1954 # 3bc0b490 <acm_fs_in_desc>
    3bc01c3a:	bff9                	j	3bc01c18 <setup+0x72>
    3bc01c3c:	4621                	li	a2,8
    3bc01c3e:	32c70d63          	beq	a4,a2,3bc01f78 <setup+0x3d2>
    3bc01c42:	4625                	li	a2,9
    3bc01c44:	24c70a63          	beq	a4,a2,3bc01e98 <setup+0x2f2>
    3bc01c48:	4619                	li	a2,6
    3bc01c4a:	597d                	li	s2,-1
    3bc01c4c:	00c71c63          	bne	a4,a2,3bc01c64 <setup+0xbe>
    3bc01c50:	8abd                	andi	a3,a3,15
    3bc01c52:	4705                	li	a4,1
    3bc01c54:	02e69663          	bne	a3,a4,3bc01c80 <setup+0xda>
    3bc01c58:	00009517          	auipc	a0,0x9
    3bc01c5c:	bf850513          	addi	a0,a0,-1032 # 3bc0a850 <__func__.1+0xc0>
    3bc01c60:	ef8fe0ef          	jal	ra,3bc00358 <tf_printf>
    3bc01c64:	70a6                	ld	ra,104(sp)
    3bc01c66:	7406                	ld	s0,96(sp)
    3bc01c68:	64e6                	ld	s1,88(sp)
    3bc01c6a:	69a6                	ld	s3,72(sp)
    3bc01c6c:	6a06                	ld	s4,64(sp)
    3bc01c6e:	7ae2                	ld	s5,56(sp)
    3bc01c70:	7b42                	ld	s6,48(sp)
    3bc01c72:	7ba2                	ld	s7,40(sp)
    3bc01c74:	7c02                	ld	s8,32(sp)
    3bc01c76:	6ce2                	ld	s9,24(sp)
    3bc01c78:	854a                	mv	a0,s2
    3bc01c7a:	6946                	ld	s2,80(sp)
    3bc01c7c:	6165                	addi	sp,sp,112
    3bc01c7e:	8082                	ret
    3bc01c80:	f2dd                	bnez	a3,3bc01c26 <setup+0x80>
    3bc01c82:	0087d71b          	srliw	a4,a5,0x8
    3bc01c86:	377d                	addiw	a4,a4,-1
    3bc01c88:	3c07360b          	extu	a2,a4,15,0
    3bc01c8c:	46b9                	li	a3,14
    3bc01c8e:	0ac6e663          	bltu	a3,a2,3bc01d3a <setup+0x194>
    3bc01c92:	00009697          	auipc	a3,0x9
    3bc01c96:	c9268693          	addi	a3,a3,-878 # 3bc0a924 <__func__.1+0x194>
    3bc01c9a:	44c6c70b          	lrw	a4,a3,a2,2
    3bc01c9e:	9736                	add	a4,a4,a3
    3bc01ca0:	8702                	jr	a4
    3bc01ca2:	0000a417          	auipc	s0,0xa
    3bc01ca6:	a5640413          	addi	s0,s0,-1450 # 3bc0b6f8 <cv_usb_vid>
    3bc01caa:	00045583          	lhu	a1,0(s0)
    3bc01cae:	cd89                	beqz	a1,3bc01cc8 <setup+0x122>
    3bc01cb0:	00009517          	auipc	a0,0x9
    3bc01cb4:	bd050513          	addi	a0,a0,-1072 # 3bc0a880 <__func__.1+0xf0>
    3bc01cb8:	ea0fe0ef          	jal	ra,3bc00358 <tf_printf>
    3bc01cbc:	00045783          	lhu	a5,0(s0)
    3bc01cc0:	0000a717          	auipc	a4,0xa
    3bc01cc4:	8ef71823          	sh	a5,-1808(a4) # 3bc0b5b0 <devHsDesc+0x8>
    3bc01cc8:	0009b503          	ld	a0,0(s3)
    3bc01ccc:	4649                	li	a2,18
    3bc01cce:	0000a597          	auipc	a1,0xa
    3bc01cd2:	8da58593          	addi	a1,a1,-1830 # 3bc0b5a8 <devHsDesc>
    3bc01cd6:	df7fe0ef          	jal	ra,3bc00acc <memmove>
    3bc01cda:	4449                	li	s0,18
    3bc01cdc:	4905                	li	s2,1
    3bc01cde:	6c88                	ld	a0,24(s1)
    3bc01ce0:	014427b3          	slt	a5,s0,s4
    3bc01ce4:	40fa140b          	mveqz	s0,s4,a5
    3bc01ce8:	711c                	ld	a5,32(a0)
    3bc01cea:	000ab583          	ld	a1,0(s5)
    3bc01cee:	739c                	ld	a5,32(a5)
    3bc01cf0:	cd80                	sw	s0,24(a1)
    3bc01cf2:	9782                	jalr	a5
    3bc01cf4:	f20909e3          	beqz	s2,3bc01c26 <setup+0x80>
    3bc01cf8:	c00017b7          	lui	a5,0xc0001
    3bc01cfc:	03000737          	lui	a4,0x3000
    3bc01d00:	0795                	addi	a5,a5,5
    3bc01d02:	08f72223          	sw	a5,132(a4) # 3000084 <__BSS_SIZE__+0x2ffa474>
    3bc01d06:	b705                	j	3bc01c26 <setup+0x80>
    3bc01d08:	0ff7f793          	andi	a5,a5,255
    3bc01d0c:	4709                	li	a4,2
    3bc01d0e:	02e78863          	beq	a5,a4,3bc01d3e <setup+0x198>
    3bc01d12:	02f76163          	bltu	a4,a5,3bc01d34 <setup+0x18e>
    3bc01d16:	00011597          	auipc	a1,0x11
    3bc01d1a:	69258593          	addi	a1,a1,1682 # 3bc133a8 <vendorDesc>
    3bc01d1e:	e789                	bnez	a5,3bc01d28 <setup+0x182>
    3bc01d20:	0000a597          	auipc	a1,0xa
    3bc01d24:	95858593          	addi	a1,a1,-1704 # 3bc0b678 <languageDesc>
    3bc01d28:	0005c403          	lbu	s0,0(a1)
    3bc01d2c:	8622                	mv	a2,s0
    3bc01d2e:	0009b503          	ld	a0,0(s3)
    3bc01d32:	a215                	j	3bc01e56 <setup+0x2b0>
    3bc01d34:	470d                	li	a4,3
    3bc01d36:	00e78963          	beq	a5,a4,3bc01d48 <setup+0x1a2>
    3bc01d3a:	597d                	li	s2,-1
    3bc01d3c:	b725                	j	3bc01c64 <setup+0xbe>
    3bc01d3e:	00011597          	auipc	a1,0x11
    3bc01d42:	61a58593          	addi	a1,a1,1562 # 3bc13358 <productDesc>
    3bc01d46:	b7cd                	j	3bc01d28 <setup+0x182>
    3bc01d48:	ea1fe0ef          	jal	ra,3bc00be8 <usb_id_det>
    3bc01d4c:	00009597          	auipc	a1,0x9
    3bc01d50:	b9c58593          	addi	a1,a1,-1124 # 3bc0a8e8 <__func__.1+0x158>
    3bc01d54:	e55d                	bnez	a0,3bc01e02 <setup+0x25c>
    3bc01d56:	00011b17          	auipc	s6,0x11
    3bc01d5a:	6b4b0b13          	addi	s6,s6,1716 # 3bc1340a <is_serial_patched.3>
    3bc01d5e:	000b4903          	lbu	s2,0(s6)
    3bc01d62:	08091263          	bnez	s2,3bc01de6 <setup+0x240>
    3bc01d66:	4641                	li	a2,16
    3bc01d68:	4581                	li	a1,0
    3bc01d6a:	00011517          	auipc	a0,0x11
    3bc01d6e:	60e50513          	addi	a0,a0,1550 # 3bc13378 <serial.2>
    3bc01d72:	03050bb7          	lui	s7,0x3050
    3bc01d76:	c9dfe0ef          	jal	ra,3bc00a12 <memset>
    3bc01d7a:	4401                	li	s0,0
    3bc01d7c:	104b8b93          	addi	s7,s7,260 # 3050104 <__BSS_SIZE__+0x304a4f4>
    3bc01d80:	00009c97          	auipc	s9,0x9
    3bc01d84:	b10c8c93          	addi	s9,s9,-1264 # 3bc0a890 <__func__.1+0x100>
    3bc01d88:	4c11                	li	s8,4
    3bc01d8a:	448bc60b          	lrw	a2,s7,s0,2
    3bc01d8e:	0004059b          	sext.w	a1,s0
    3bc01d92:	8566                	mv	a0,s9
    3bc01d94:	2601                	sext.w	a2,a2
    3bc01d96:	4481560b          	srw	a2,sp,s0,2
    3bc01d9a:	dbefe0ef          	jal	ra,3bc00358 <tf_printf>
    3bc01d9e:	4481478b          	lrw	a5,sp,s0,2
    3bc01da2:	c391                	beqz	a5,3bc01da6 <setup+0x200>
    3bc01da4:	4905                	li	s2,1
    3bc01da6:	0405                	addi	s0,s0,1
    3bc01da8:	ff8411e3          	bne	s0,s8,3bc01d8a <setup+0x1e4>
    3bc01dac:	06090663          	beqz	s2,3bc01e18 <setup+0x272>
    3bc01db0:	858a                	mv	a1,sp
    3bc01db2:	4641                	li	a2,16
    3bc01db4:	4501                	li	a0,0
    3bc01db6:	151020ef          	jal	ra,3bc04706 <crc16_ccitt>
    3bc01dba:	0005041b          	sext.w	s0,a0
    3bc01dbe:	85a2                	mv	a1,s0
    3bc01dc0:	00009517          	auipc	a0,0x9
    3bc01dc4:	ae850513          	addi	a0,a0,-1304 # 3bc0a8a8 <__func__.1+0x118>
    3bc01dc8:	d90fe0ef          	jal	ra,3bc00358 <tf_printf>
    3bc01dcc:	4681                	li	a3,0
    3bc01dce:	4641                	li	a2,16
    3bc01dd0:	7c04358b          	extu	a1,s0,31,0
    3bc01dd4:	00011517          	auipc	a0,0x11
    3bc01dd8:	5a450513          	addi	a0,a0,1444 # 3bc13378 <serial.2>
    3bc01ddc:	bbdfe0ef          	jal	ra,3bc00998 <ntostr>
    3bc01de0:	4785                	li	a5,1
    3bc01de2:	00fb0023          	sb	a5,0(s6)
    3bc01de6:	00011597          	auipc	a1,0x11
    3bc01dea:	59258593          	addi	a1,a1,1426 # 3bc13378 <serial.2>
    3bc01dee:	00009517          	auipc	a0,0x9
    3bc01df2:	aea50513          	addi	a0,a0,-1302 # 3bc0a8d8 <__func__.1+0x148>
    3bc01df6:	d62fe0ef          	jal	ra,3bc00358 <tf_printf>
    3bc01dfa:	00011597          	auipc	a1,0x11
    3bc01dfe:	57e58593          	addi	a1,a1,1406 # 3bc13378 <serial.2>
    3bc01e02:	00011517          	auipc	a0,0x11
    3bc01e06:	58650513          	addi	a0,a0,1414 # 3bc13388 <serialDesc>
    3bc01e0a:	a41ff0ef          	jal	ra,3bc0184a <get_unicode_string>
    3bc01e0e:	00011597          	auipc	a1,0x11
    3bc01e12:	57a58593          	addi	a1,a1,1402 # 3bc13388 <serialDesc>
    3bc01e16:	bf09                	j	3bc01d28 <setup+0x182>
    3bc01e18:	00011517          	auipc	a0,0x11
    3bc01e1c:	5d452503          	lw	a0,1492(a0) # 3bc133ec <ts>
    3bc01e20:	bc2fe0ef          	jal	ra,3bc001e2 <get_random_from_timer>
    3bc01e24:	0005041b          	sext.w	s0,a0
    3bc01e28:	85a2                	mv	a1,s0
    3bc01e2a:	00009517          	auipc	a0,0x9
    3bc01e2e:	a9650513          	addi	a0,a0,-1386 # 3bc0a8c0 <__func__.1+0x130>
    3bc01e32:	bf59                	j	3bc01dc8 <setup+0x222>
    3bc01e34:	00009597          	auipc	a1,0x9
    3bc01e38:	69c58593          	addi	a1,a1,1692 # 3bc0b4d0 <bosDesc>
    3bc01e3c:	4615                	li	a2,5
    3bc01e3e:	0025d403          	lhu	s0,2(a1)
    3bc01e42:	c8bfe0ef          	jal	ra,3bc00acc <memmove>
    3bc01e46:	0009b503          	ld	a0,0(s3)
    3bc01e4a:	461d                	li	a2,7
    3bc01e4c:	00009597          	auipc	a1,0x9
    3bc01e50:	69458593          	addi	a1,a1,1684 # 3bc0b4e0 <capabilityExtDesc>
    3bc01e54:	0515                	addi	a0,a0,5
    3bc01e56:	c77fe0ef          	jal	ra,3bc00acc <memmove>
    3bc01e5a:	dc0406e3          	beqz	s0,3bc01c26 <setup+0x80>
    3bc01e5e:	a809                	j	3bc01e70 <setup+0x2ca>
    3bc01e60:	4629                	li	a2,10
    3bc01e62:	0000a597          	auipc	a1,0xa
    3bc01e66:	81e58593          	addi	a1,a1,-2018 # 3bc0b680 <qualifierDesc>
    3bc01e6a:	c63fe0ef          	jal	ra,3bc00acc <memmove>
    3bc01e6e:	4429                	li	s0,10
    3bc01e70:	4901                	li	s2,0
    3bc01e72:	b5b5                	j	3bc01cde <setup+0x138>
    3bc01e74:	00950593          	addi	a1,a0,9
    3bc01e78:	8542                	mv	a0,a6
    3bc01e7a:	c57ff0ef          	jal	ra,3bc01ad0 <getDescAcm>
    3bc01e7e:	2525                	addiw	a0,a0,9
    3bc01e80:	3c05350b          	extu	a0,a0,15,0
    3bc01e84:	00009597          	auipc	a1,0x9
    3bc01e88:	5c458593          	addi	a1,a1,1476 # 3bc0b448 <ConfDesc>
    3bc01e8c:	0005041b          	sext.w	s0,a0
    3bc01e90:	00a59123          	sh	a0,2(a1)
    3bc01e94:	4625                	li	a2,9
    3bc01e96:	bd61                	j	3bc01d2e <setup+0x188>
    3bc01e98:	4705                	li	a4,1
    3bc01e9a:	597d                	li	s2,-1
    3bc01e9c:	dcf764e3          	bltu	a4,a5,3bc01c64 <setup+0xbe>
    3bc01ea0:	e385                	bnez	a5,3bc01ec0 <setup+0x31a>
    3bc01ea2:	00011797          	auipc	a5,0x11
    3bc01ea6:	560782a3          	sb	zero,1381(a5) # 3bc13407 <configValue>
    3bc01eaa:	6080                	ld	s0,0(s1)
    3bc01eac:	d6848de3          	beq	s1,s0,3bc01c26 <setup+0x80>
    3bc01eb0:	6c1c                	ld	a5,24(s0)
    3bc01eb2:	c789                	beqz	a5,3bc01ebc <setup+0x316>
    3bc01eb4:	701c                	ld	a5,32(s0)
    3bc01eb6:	8522                	mv	a0,s0
    3bc01eb8:	679c                	ld	a5,8(a5)
    3bc01eba:	9782                	jalr	a5
    3bc01ebc:	6000                	ld	s0,0(s0)
    3bc01ebe:	b7fd                	j	3bc01eac <setup+0x306>
    3bc01ec0:	00011797          	auipc	a5,0x11
    3bc01ec4:	54778793          	addi	a5,a5,1351 # 3bc13407 <configValue>
    3bc01ec8:	0007c683          	lbu	a3,0(a5)
    3bc01ecc:	d4e68de3          	beq	a3,a4,3bc01c26 <setup+0x80>
    3bc01ed0:	00e78023          	sb	a4,0(a5)
    3bc01ed4:	6080                	ld	s0,0(s1)
    3bc01ed6:	00009917          	auipc	s2,0x9
    3bc01eda:	a2290913          	addi	s2,s2,-1502 # 3bc0a8f8 <__func__.1+0x168>
    3bc01ede:	00848d63          	beq	s1,s0,3bc01ef8 <setup+0x352>
    3bc01ee2:	6c08                	ld	a0,24(s0)
    3bc01ee4:	c141                	beqz	a0,3bc01f64 <setup+0x3be>
    3bc01ee6:	85ca                	mv	a1,s2
    3bc01ee8:	c57fe0ef          	jal	ra,3bc00b3e <strcmp>
    3bc01eec:	ed25                	bnez	a0,3bc01f64 <setup+0x3be>
    3bc01eee:	701c                	ld	a5,32(s0)
    3bc01ef0:	85de                	mv	a1,s7
    3bc01ef2:	8522                	mv	a0,s0
    3bc01ef4:	639c                	ld	a5,0(a5)
    3bc01ef6:	9782                	jalr	a5
    3bc01ef8:	6080                	ld	s0,0(s1)
    3bc01efa:	00009917          	auipc	s2,0x9
    3bc01efe:	a0e90913          	addi	s2,s2,-1522 # 3bc0a908 <__func__.1+0x178>
    3bc01f02:	00848d63          	beq	s1,s0,3bc01f1c <setup+0x376>
    3bc01f06:	6c08                	ld	a0,24(s0)
    3bc01f08:	c125                	beqz	a0,3bc01f68 <setup+0x3c2>
    3bc01f0a:	85ca                	mv	a1,s2
    3bc01f0c:	c33fe0ef          	jal	ra,3bc00b3e <strcmp>
    3bc01f10:	ed21                	bnez	a0,3bc01f68 <setup+0x3c2>
    3bc01f12:	701c                	ld	a5,32(s0)
    3bc01f14:	85da                	mv	a1,s6
    3bc01f16:	8522                	mv	a0,s0
    3bc01f18:	639c                	ld	a5,0(a5)
    3bc01f1a:	9782                	jalr	a5
    3bc01f1c:	6080                	ld	s0,0(s1)
    3bc01f1e:	00009917          	auipc	s2,0x9
    3bc01f22:	9fa90913          	addi	s2,s2,-1542 # 3bc0a918 <__func__.1+0x188>
    3bc01f26:	02848063          	beq	s1,s0,3bc01f46 <setup+0x3a0>
    3bc01f2a:	6c08                	ld	a0,24(s0)
    3bc01f2c:	c121                	beqz	a0,3bc01f6c <setup+0x3c6>
    3bc01f2e:	85ca                	mv	a1,s2
    3bc01f30:	c0ffe0ef          	jal	ra,3bc00b3e <strcmp>
    3bc01f34:	ed05                	bnez	a0,3bc01f6c <setup+0x3c6>
    3bc01f36:	701c                	ld	a5,32(s0)
    3bc01f38:	00009597          	auipc	a1,0x9
    3bc01f3c:	56058593          	addi	a1,a1,1376 # 3bc0b498 <acm_fs_notify_desc>
    3bc01f40:	8522                	mv	a0,s0
    3bc01f42:	639c                	ld	a5,0(a5)
    3bc01f44:	9782                	jalr	a5
    3bc01f46:	689c                	ld	a5,16(s1)
    3bc01f48:	00009717          	auipc	a4,0x9
    3bc01f4c:	50774703          	lbu	a4,1287(a4) # 3bc0b44f <ConfDesc+0x7>
    3bc01f50:	04077713          	andi	a4,a4,64
    3bc01f54:	6b9c                	ld	a5,16(a5)
    3bc01f56:	cf09                	beqz	a4,3bc01f70 <setup+0x3ca>
    3bc01f58:	4585                	li	a1,1
    3bc01f5a:	cc0786e3          	beqz	a5,3bc01c26 <setup+0x80>
    3bc01f5e:	8526                	mv	a0,s1
    3bc01f60:	9782                	jalr	a5
    3bc01f62:	b1d1                	j	3bc01c26 <setup+0x80>
    3bc01f64:	6000                	ld	s0,0(s0)
    3bc01f66:	bfa5                	j	3bc01ede <setup+0x338>
    3bc01f68:	6000                	ld	s0,0(s0)
    3bc01f6a:	bf61                	j	3bc01f02 <setup+0x35c>
    3bc01f6c:	6000                	ld	s0,0(s0)
    3bc01f6e:	bf65                	j	3bc01f26 <setup+0x380>
    3bc01f70:	ca078be3          	beqz	a5,3bc01c26 <setup+0x80>
    3bc01f74:	4581                	li	a1,0
    3bc01f76:	b7e5                	j	3bc01f5e <setup+0x3b8>
    3bc01f78:	4605                	li	a2,1
    3bc01f7a:	00011597          	auipc	a1,0x11
    3bc01f7e:	48d58593          	addi	a1,a1,1165 # 3bc13407 <configValue>
    3bc01f82:	b4bfe0ef          	jal	ra,3bc00acc <memmove>
    3bc01f86:	4405                	li	s0,1
    3bc01f88:	b5e5                	j	3bc01e70 <setup+0x2ca>
    3bc01f8a:	02100693          	li	a3,33
    3bc01f8e:	04d70263          	beq	a4,a3,3bc01fd2 <setup+0x42c>
    3bc01f92:	02200693          	li	a3,34
    3bc01f96:	02d70263          	beq	a4,a3,3bc01fba <setup+0x414>
    3bc01f9a:	4901                	li	s2,0
    3bc01f9c:	ccb714e3          	bne	a4,a1,3bc01c64 <setup+0xbe>
    3bc01fa0:	fffff797          	auipc	a5,0xfffff
    3bc01fa4:	7e478793          	addi	a5,a5,2020 # 3bc01784 <acm_complete_set_line_coding>
    3bc01fa8:	000a041b          	sext.w	s0,s4
    3bc01fac:	f61c                	sd	a5,40(a2)
    3bc01fae:	4785                	li	a5,1
    3bc01fb0:	00011717          	auipc	a4,0x11
    3bc01fb4:	44f70aa3          	sb	a5,1109(a4) # 3bc13405 <acm_configValue>
    3bc01fb8:	b54d                	j	3bc01e5a <setup+0x2b4>
    3bc01fba:	00011717          	auipc	a4,0x11
    3bc01fbe:	34e73703          	ld	a4,846(a4) # 3bc13308 <acm>
    3bc01fc2:	00f71623          	sh	a5,12(a4)
    3bc01fc6:	4785                	li	a5,1
    3bc01fc8:	00011717          	auipc	a4,0x11
    3bc01fcc:	42f70ea3          	sb	a5,1085(a4) # 3bc13405 <acm_configValue>
    3bc01fd0:	b999                	j	3bc01c26 <setup+0x80>
    3bc01fd2:	00011597          	auipc	a1,0x11
    3bc01fd6:	3365b583          	ld	a1,822(a1) # 3bc13308 <acm>
    3bc01fda:	8652                	mv	a2,s4
    3bc01fdc:	0591                	addi	a1,a1,4
    3bc01fde:	000a041b          	sext.w	s0,s4
    3bc01fe2:	aebfe0ef          	jal	ra,3bc00acc <memmove>
    3bc01fe6:	b7e1                	j	3bc01fae <setup+0x408>

000000003bc01fe8 <suspend>:
    3bc01fe8:	8082                	ret

000000003bc01fea <convert_buf_addr>:
    3bc01fea:	00011797          	auipc	a5,0x11
    3bc01fee:	89678793          	addi	a5,a5,-1898 # 3bc12880 <bulkBufAllocArr>
    3bc01ff2:	00009717          	auipc	a4,0x9
    3bc01ff6:	4ef73323          	sd	a5,1254(a4) # 3bc0b4d8 <bulkBufAlloc>
    3bc01ffa:	00011797          	auipc	a5,0x11
    3bc01ffe:	c0678793          	addi	a5,a5,-1018 # 3bc12c00 <cmdBufAllocArr>
    3bc02002:	00009717          	auipc	a4,0x9
    3bc02006:	4ef73f23          	sd	a5,1278(a4) # 3bc0b500 <cmdBufAlloc>
    3bc0200a:	00011797          	auipc	a5,0x11
    3bc0200e:	a7678793          	addi	a5,a5,-1418 # 3bc12a80 <cb0_bufArr>
    3bc02012:	00009717          	auipc	a4,0x9
    3bc02016:	4cf73b23          	sd	a5,1238(a4) # 3bc0b4e8 <cb0_buf>
    3bc0201a:	00011797          	auipc	a5,0x11
    3bc0201e:	ae678793          	addi	a5,a5,-1306 # 3bc12b00 <cb1_bufArr>
    3bc02022:	00009717          	auipc	a4,0x9
    3bc02026:	4cf73723          	sd	a5,1230(a4) # 3bc0b4f0 <cb1_buf>
    3bc0202a:	00011797          	auipc	a5,0x11
    3bc0202e:	b5678793          	addi	a5,a5,-1194 # 3bc12b80 <cb2_bufArr>
    3bc02032:	00009717          	auipc	a4,0x9
    3bc02036:	4cf73323          	sd	a5,1222(a4) # 3bc0b4f8 <cb2_buf>
    3bc0203a:	00011797          	auipc	a5,0x11
    3bc0203e:	dc678793          	addi	a5,a5,-570 # 3bc12e00 <ep0BuffAllocArr>
    3bc02042:	00009717          	auipc	a4,0x9
    3bc02046:	5cf73723          	sd	a5,1486(a4) # 3bc0b610 <ep0BuffAlloc>
    3bc0204a:	00011797          	auipc	a5,0x11
    3bc0204e:	23678793          	addi	a5,a5,566 # 3bc13280 <rsp_bufArr>
    3bc02052:	00009717          	auipc	a4,0x9
    3bc02056:	62f73f23          	sd	a5,1598(a4) # 3bc0b690 <rsp_buf>
    3bc0205a:	00010797          	auipc	a5,0x10
    3bc0205e:	7a678793          	addi	a5,a5,1958 # 3bc12800 <acm_bufArr>
    3bc02062:	00009717          	auipc	a4,0x9
    3bc02066:	3ef73b23          	sd	a5,1014(a4) # 3bc0b458 <acm_buf>
    3bc0206a:	00011797          	auipc	a5,0x11
    3bc0206e:	25678793          	addi	a5,a5,598 # 3bc132c0 <setup_bufArr>
    3bc02072:	00009717          	auipc	a4,0x9
    3bc02076:	62f73323          	sd	a5,1574(a4) # 3bc0b698 <setup_buf>
    3bc0207a:	00011797          	auipc	a5,0x11
    3bc0207e:	e0678793          	addi	a5,a5,-506 # 3bc12e80 <handlerArr>
    3bc02082:	00009717          	auipc	a4,0x9
    3bc02086:	5ef73723          	sd	a5,1518(a4) # 3bc0b670 <handler>
    3bc0208a:	8082                	ret

000000003bc0208c <print_buf_addr>:
    3bc0208c:	1141                	addi	sp,sp,-16
    3bc0208e:	00009597          	auipc	a1,0x9
    3bc02092:	44a5b583          	ld	a1,1098(a1) # 3bc0b4d8 <bulkBufAlloc>
    3bc02096:	00009517          	auipc	a0,0x9
    3bc0209a:	8ca50513          	addi	a0,a0,-1846 # 3bc0a960 <__func__.1+0x1d0>
    3bc0209e:	e406                	sd	ra,8(sp)
    3bc020a0:	ab8fe0ef          	jal	ra,3bc00358 <tf_printf>
    3bc020a4:	00009597          	auipc	a1,0x9
    3bc020a8:	45c5b583          	ld	a1,1116(a1) # 3bc0b500 <cmdBufAlloc>
    3bc020ac:	00009517          	auipc	a0,0x9
    3bc020b0:	8cc50513          	addi	a0,a0,-1844 # 3bc0a978 <__func__.1+0x1e8>
    3bc020b4:	aa4fe0ef          	jal	ra,3bc00358 <tf_printf>
    3bc020b8:	00009597          	auipc	a1,0x9
    3bc020bc:	4305b583          	ld	a1,1072(a1) # 3bc0b4e8 <cb0_buf>
    3bc020c0:	00009517          	auipc	a0,0x9
    3bc020c4:	8d050513          	addi	a0,a0,-1840 # 3bc0a990 <__func__.1+0x200>
    3bc020c8:	a90fe0ef          	jal	ra,3bc00358 <tf_printf>
    3bc020cc:	00009597          	auipc	a1,0x9
    3bc020d0:	4245b583          	ld	a1,1060(a1) # 3bc0b4f0 <cb1_buf>
    3bc020d4:	00009517          	auipc	a0,0x9
    3bc020d8:	8d450513          	addi	a0,a0,-1836 # 3bc0a9a8 <__func__.1+0x218>
    3bc020dc:	a7cfe0ef          	jal	ra,3bc00358 <tf_printf>
    3bc020e0:	00009597          	auipc	a1,0x9
    3bc020e4:	4185b583          	ld	a1,1048(a1) # 3bc0b4f8 <cb2_buf>
    3bc020e8:	00009517          	auipc	a0,0x9
    3bc020ec:	8d850513          	addi	a0,a0,-1832 # 3bc0a9c0 <__func__.1+0x230>
    3bc020f0:	a68fe0ef          	jal	ra,3bc00358 <tf_printf>
    3bc020f4:	00009597          	auipc	a1,0x9
    3bc020f8:	51c5b583          	ld	a1,1308(a1) # 3bc0b610 <ep0BuffAlloc>
    3bc020fc:	00009517          	auipc	a0,0x9
    3bc02100:	8dc50513          	addi	a0,a0,-1828 # 3bc0a9d8 <__func__.1+0x248>
    3bc02104:	a54fe0ef          	jal	ra,3bc00358 <tf_printf>
    3bc02108:	00009597          	auipc	a1,0x9
    3bc0210c:	5885b583          	ld	a1,1416(a1) # 3bc0b690 <rsp_buf>
    3bc02110:	00009517          	auipc	a0,0x9
    3bc02114:	8e050513          	addi	a0,a0,-1824 # 3bc0a9f0 <__func__.1+0x260>
    3bc02118:	a40fe0ef          	jal	ra,3bc00358 <tf_printf>
    3bc0211c:	00009597          	auipc	a1,0x9
    3bc02120:	33c5b583          	ld	a1,828(a1) # 3bc0b458 <acm_buf>
    3bc02124:	00009517          	auipc	a0,0x9
    3bc02128:	8e450513          	addi	a0,a0,-1820 # 3bc0aa08 <__func__.1+0x278>
    3bc0212c:	a2cfe0ef          	jal	ra,3bc00358 <tf_printf>
    3bc02130:	00009597          	auipc	a1,0x9
    3bc02134:	5685b583          	ld	a1,1384(a1) # 3bc0b698 <setup_buf>
    3bc02138:	00009517          	auipc	a0,0x9
    3bc0213c:	8e850513          	addi	a0,a0,-1816 # 3bc0aa20 <__func__.1+0x290>
    3bc02140:	a18fe0ef          	jal	ra,3bc00358 <tf_printf>
    3bc02144:	60a2                	ld	ra,8(sp)
    3bc02146:	00009597          	auipc	a1,0x9
    3bc0214a:	52a5b583          	ld	a1,1322(a1) # 3bc0b670 <handler>
    3bc0214e:	00009517          	auipc	a0,0x9
    3bc02152:	8ea50513          	addi	a0,a0,-1814 # 3bc0aa38 <__func__.1+0x2a8>
    3bc02156:	0141                	addi	sp,sp,16
    3bc02158:	a00fe06f          	j	3bc00358 <tf_printf>

000000003bc0215c <AcmIsr>:
    3bc0215c:	4501                	li	a0,0
    3bc0215e:	3020106f          	j	3bc03460 <usb_gadget_handle_interrupts>

000000003bc02162 <acm_app_init>:
    3bc02162:	7179                	addi	sp,sp,-48
    3bc02164:	f022                	sd	s0,32(sp)
    3bc02166:	00009417          	auipc	s0,0x9
    3bc0216a:	45a40413          	addi	s0,s0,1114 # 3bc0b5c0 <drv_obj>
    3bc0216e:	601c                	ld	a5,0(s0)
    3bc02170:	00009597          	auipc	a1,0x9
    3bc02174:	8e058593          	addi	a1,a1,-1824 # 3bc0aa50 <__func__.1+0x2c0>
    3bc02178:	00011517          	auipc	a0,0x11
    3bc0217c:	23050513          	addi	a0,a0,560 # 3bc133a8 <vendorDesc>
    3bc02180:	f406                	sd	ra,40(sp)
    3bc02182:	ec26                	sd	s1,24(sp)
    3bc02184:	e84a                	sd	s2,16(sp)
    3bc02186:	6f84                	ld	s1,24(a5)
    3bc02188:	e44e                	sd	s3,8(sp)
    3bc0218a:	ec0ff0ef          	jal	ra,3bc0184a <get_unicode_string>
    3bc0218e:	00011517          	auipc	a0,0x11
    3bc02192:	1ca50513          	addi	a0,a0,458 # 3bc13358 <productDesc>
    3bc02196:	00009597          	auipc	a1,0x9
    3bc0219a:	8c258593          	addi	a1,a1,-1854 # 3bc0aa58 <__func__.1+0x2c8>
    3bc0219e:	eacff0ef          	jal	ra,3bc0184a <get_unicode_string>
    3bc021a2:	00009517          	auipc	a0,0x9
    3bc021a6:	46e53503          	ld	a0,1134(a0) # 3bc0b610 <ep0BuffAlloc>
    3bc021aa:	03f57713          	andi	a4,a0,63
    3bc021ae:	87aa                	mv	a5,a0
    3bc021b0:	c709                	beqz	a4,3bc021ba <acm_app_init+0x58>
    3bc021b2:	04000793          	li	a5,64
    3bc021b6:	9f99                	subw	a5,a5,a4
    3bc021b8:	97aa                	add	a5,a5,a0
    3bc021ba:	00009997          	auipc	s3,0x9
    3bc021be:	31e98993          	addi	s3,s3,798 # 3bc0b4d8 <bulkBufAlloc>
    3bc021c2:	00011717          	auipc	a4,0x11
    3bc021c6:	16f73723          	sd	a5,366(a4) # 3bc13330 <ep0Buff>
    3bc021ca:	0009b783          	ld	a5,0(s3)
    3bc021ce:	03f7f693          	andi	a3,a5,63
    3bc021d2:	c689                	beqz	a3,3bc021dc <acm_app_init+0x7a>
    3bc021d4:	04000713          	li	a4,64
    3bc021d8:	9f15                	subw	a4,a4,a3
    3bc021da:	97ba                	add	a5,a5,a4
    3bc021dc:	00009917          	auipc	s2,0x9
    3bc021e0:	32490913          	addi	s2,s2,804 # 3bc0b500 <cmdBufAlloc>
    3bc021e4:	00011717          	auipc	a4,0x11
    3bc021e8:	12f73623          	sd	a5,300(a4) # 3bc13310 <bulkBuf>
    3bc021ec:	00093783          	ld	a5,0(s2)
    3bc021f0:	03f7f693          	andi	a3,a5,63
    3bc021f4:	c689                	beqz	a3,3bc021fe <acm_app_init+0x9c>
    3bc021f6:	04000713          	li	a4,64
    3bc021fa:	9f15                	subw	a4,a4,a3
    3bc021fc:	97ba                	add	a5,a5,a4
    3bc021fe:	08000613          	li	a2,128
    3bc02202:	4581                	li	a1,0
    3bc02204:	00011717          	auipc	a4,0x11
    3bc02208:	12f73223          	sd	a5,292(a4) # 3bc13328 <cmdBuf>
    3bc0220c:	807fe0ef          	jal	ra,3bc00a12 <memset>
    3bc02210:	0009b503          	ld	a0,0(s3)
    3bc02214:	20000613          	li	a2,512
    3bc02218:	4581                	li	a1,0
    3bc0221a:	ff8fe0ef          	jal	ra,3bc00a12 <memset>
    3bc0221e:	00093503          	ld	a0,0(s2)
    3bc02222:	20000613          	li	a2,512
    3bc02226:	4581                	li	a1,0
    3bc02228:	feafe0ef          	jal	ra,3bc00a12 <memset>
    3bc0222c:	709c                	ld	a5,32(s1)
    3bc0222e:	8526                	mv	a0,s1
    3bc02230:	6b9c                	ld	a5,16(a5)
    3bc02232:	9782                	jalr	a5
    3bc02234:	00011797          	auipc	a5,0x11
    3bc02238:	10a7b223          	sd	a0,260(a5) # 3bc13338 <ep0Req>
    3bc0223c:	601c                	ld	a5,0(s0)
    3bc0223e:	53d8                	lw	a4,36(a5)
    3bc02240:	4791                	li	a5,4
    3bc02242:	02e7e263          	bltu	a5,a4,3bc02266 <acm_app_init+0x104>
    3bc02246:	00009797          	auipc	a5,0x9
    3bc0224a:	28a78793          	addi	a5,a5,650 # 3bc0b4d0 <bosDesc>
    3bc0224e:	4731                	li	a4,12
    3bc02250:	00e79123          	sh	a4,2(a5)
    3bc02254:	4705                	li	a4,1
    3bc02256:	00e78223          	sb	a4,4(a5)
    3bc0225a:	20100793          	li	a5,513
    3bc0225e:	00009717          	auipc	a4,0x9
    3bc02262:	34f71623          	sh	a5,844(a4) # 3bc0b5aa <devHsDesc+0x2>
    3bc02266:	00009797          	auipc	a5,0x9
    3bc0226a:	1f27b783          	ld	a5,498(a5) # 3bc0b458 <acm_buf>
    3bc0226e:	00011717          	auipc	a4,0x11
    3bc02272:	08f73d23          	sd	a5,154(a4) # 3bc13308 <acm>
    3bc02276:	000e1737          	lui	a4,0xe1
    3bc0227a:	c3d8                	sw	a4,4(a5)
    3bc0227c:	4721                	li	a4,8
    3bc0227e:	00079423          	sh	zero,8(a5)
    3bc02282:	00e78523          	sb	a4,10(a5)
    3bc02286:	70a2                	ld	ra,40(sp)
    3bc02288:	7402                	ld	s0,32(sp)
    3bc0228a:	00079623          	sh	zero,12(a5)
    3bc0228e:	64e2                	ld	s1,24(sp)
    3bc02290:	6942                	ld	s2,16(sp)
    3bc02292:	69a2                	ld	s3,8(sp)
    3bc02294:	4501                	li	a0,0
    3bc02296:	6145                	addi	sp,sp,48
    3bc02298:	8082                	ret

000000003bc0229a <usb_vbus_det>:
    3bc0229a:	030007b7          	lui	a5,0x3000
    3bc0229e:	43c8                	lw	a0,4(a5)
    3bc022a0:	2495350b          	extu	a0,a0,9,9
    3bc022a4:	8082                	ret

000000003bc022a6 <get_usb_polling_timeout_value>:
    3bc022a6:	1141                	addi	sp,sp,-16
    3bc022a8:	e406                	sd	ra,8(sp)
    3bc022aa:	93ffe0ef          	jal	ra,3bc00be8 <usb_id_det>
    3bc022ae:	3e800793          	li	a5,1000
    3bc022b2:	e911                	bnez	a0,3bc022c6 <get_usb_polling_timeout_value+0x20>
    3bc022b4:	0e0007b7          	lui	a5,0xe000
    3bc022b8:	639c                	ld	a5,0(a5)
    3bc022ba:	0417b78b          	extu	a5,a5,1,1
    3bc022be:	eb81                	bnez	a5,3bc022ce <get_usb_polling_timeout_value+0x28>
    3bc022c0:	6789                	lui	a5,0x2
    3bc022c2:	71078793          	addi	a5,a5,1808 # 2710 <__BSS_SIZE__-0x3500>
    3bc022c6:	60a2                	ld	ra,8(sp)
    3bc022c8:	853e                	mv	a0,a5
    3bc022ca:	0141                	addi	sp,sp,16
    3bc022cc:	8082                	ret
    3bc022ce:	67e1                	lui	a5,0x18
    3bc022d0:	69f78793          	addi	a5,a5,1695 # 1869f <__BSS_SIZE__+0x12a8f>
    3bc022d4:	bfcd                	j	3bc022c6 <get_usb_polling_timeout_value+0x20>

000000003bc022d6 <AcmApp>:
    3bc022d6:	7175                	addi	sp,sp,-144
    3bc022d8:	f0d2                	sd	s4,96(sp)
    3bc022da:	00011797          	auipc	a5,0x11
    3bc022de:	06a7bb23          	sd	a0,118(a5) # 3bc13350 <fip_buf>
    3bc022e2:	00011797          	auipc	a5,0x11
    3bc022e6:	0eb7af23          	sw	a1,254(a5) # 3bc133e0 <fip_tx_offset>
    3bc022ea:	00011a17          	auipc	s4,0x11
    3bc022ee:	0faa0a13          	addi	s4,s4,250 # 3bc133e4 <fip_tx_size>
    3bc022f2:	e506                	sd	ra,136(sp)
    3bc022f4:	e122                	sd	s0,128(sp)
    3bc022f6:	fca6                	sd	s1,120(sp)
    3bc022f8:	f8ca                	sd	s2,112(sp)
    3bc022fa:	f4ce                	sd	s3,104(sp)
    3bc022fc:	ecd6                	sd	s5,88(sp)
    3bc022fe:	e8da                	sd	s6,80(sp)
    3bc02300:	e4de                	sd	s7,72(sp)
    3bc02302:	e0e2                	sd	s8,64(sp)
    3bc02304:	fc66                	sd	s9,56(sp)
    3bc02306:	f86a                	sd	s10,48(sp)
    3bc02308:	f46e                	sd	s11,40(sp)
    3bc0230a:	00ca2023          	sw	a2,0(s4)
    3bc0230e:	0e0007b7          	lui	a5,0xe000
    3bc02312:	0007a223          	sw	zero,4(a5) # e000004 <p_rom_api_cryptodma_aes_decrypt+0x9bfff04>
    3bc02316:	f85ff0ef          	jal	ra,3bc0229a <usb_vbus_det>
    3bc0231a:	e909                	bnez	a0,3bc0232c <AcmApp+0x56>
    3bc0231c:	00008517          	auipc	a0,0x8
    3bc02320:	74c50513          	addi	a0,a0,1868 # 3bc0aa68 <__func__.1+0x2d8>
    3bc02324:	834fe0ef          	jal	ra,3bc00358 <tf_printf>
    3bc02328:	596d                	li	s2,-5
    3bc0232a:	a111                	j	3bc0272e <AcmApp+0x458>
    3bc0232c:	f7bff0ef          	jal	ra,3bc022a6 <get_usb_polling_timeout_value>
    3bc02330:	0005049b          	sext.w	s1,a0
    3bc02334:	85a6                	mv	a1,s1
    3bc02336:	00008517          	auipc	a0,0x8
    3bc0233a:	74a50513          	addi	a0,a0,1866 # 3bc0aa80 <__func__.1+0x2f0>
    3bc0233e:	81afe0ef          	jal	ra,3bc00358 <tf_printf>
    3bc02342:	67e1                	lui	a5,0x18
    3bc02344:	69e78793          	addi	a5,a5,1694 # 1869e <__BSS_SIZE__+0x12a8e>
    3bc02348:	0297f463          	bgeu	a5,s1,3bc02370 <AcmApp+0x9a>
    3bc0234c:	4785                	li	a5,1
    3bc0234e:	00008517          	auipc	a0,0x8
    3bc02352:	74a50513          	addi	a0,a0,1866 # 3bc0aa98 <__func__.1+0x308>
    3bc02356:	00011717          	auipc	a4,0x11
    3bc0235a:	0af70923          	sb	a5,178(a4) # 3bc13408 <flagEnterDL>
    3bc0235e:	ffbfd0ef          	jal	ra,3bc00358 <tf_printf>
    3bc02362:	c00037b7          	lui	a5,0xc0003
    3bc02366:	03000737          	lui	a4,0x3000
    3bc0236a:	078d                	addi	a5,a5,3
    3bc0236c:	08f72223          	sw	a5,132(a4) # 3000084 <__BSS_SIZE__+0x2ffa474>
    3bc02370:	85a6                	mv	a1,s1
    3bc02372:	00008517          	auipc	a0,0x8
    3bc02376:	72e50513          	addi	a0,a0,1838 # 3bc0aaa0 <__func__.1+0x310>
    3bc0237a:	fdffd0ef          	jal	ra,3bc00358 <tf_printf>
    3bc0237e:	3e800793          	li	a5,1000
    3bc02382:	029787bb          	mulw	a5,a5,s1
    3bc02386:	e43e                	sd	a5,8(sp)
    3bc02388:	c00037b7          	lui	a5,0xc0003
    3bc0238c:	10178793          	addi	a5,a5,257 # ffffffffc0003101 <__BL2_END__+0xffffffff843efcf1>
    3bc02390:	e83e                	sd	a5,16(sp)
    3bc02392:	c00017b7          	lui	a5,0xc0001
    3bc02396:	0791                	addi	a5,a5,4
    3bc02398:	ec3e                	sd	a5,24(sp)
    3bc0239a:	00011797          	auipc	a5,0x11
    3bc0239e:	f607bb23          	sd	zero,-138(a5) # 3bc13310 <bulkBuf>
    3bc023a2:	00011797          	auipc	a5,0x11
    3bc023a6:	f807b323          	sd	zero,-122(a5) # 3bc13328 <cmdBuf>
    3bc023aa:	00011797          	auipc	a5,0x11
    3bc023ae:	f807b323          	sd	zero,-122(a5) # 3bc13330 <ep0Buff>
    3bc023b2:	00011797          	auipc	a5,0x11
    3bc023b6:	f807b723          	sd	zero,-114(a5) # 3bc13340 <epIn>
    3bc023ba:	00011797          	auipc	a5,0x11
    3bc023be:	f807b723          	sd	zero,-114(a5) # 3bc13348 <epOut>
    3bc023c2:	00011797          	auipc	a5,0x11
    3bc023c6:	f407bb23          	sd	zero,-170(a5) # 3bc13318 <bulkInReq>
    3bc023ca:	00011797          	auipc	a5,0x11
    3bc023ce:	f407bb23          	sd	zero,-170(a5) # 3bc13320 <bulkOutReq>
    3bc023d2:	00011797          	auipc	a5,0x11
    3bc023d6:	f607b323          	sd	zero,-154(a5) # 3bc13338 <ep0Req>
    3bc023da:	00011797          	auipc	a5,0x11
    3bc023de:	020786a3          	sb	zero,45(a5) # 3bc13407 <configValue>
    3bc023e2:	00011797          	auipc	a5,0x11
    3bc023e6:	02078223          	sb	zero,36(a5) # 3bc13406 <configBreak>
    3bc023ea:	00011797          	auipc	a5,0x11
    3bc023ee:	00078da3          	sb	zero,27(a5) # 3bc13405 <acm_configValue>
    3bc023f2:	00011797          	auipc	a5,0x11
    3bc023f6:	00078ca3          	sb	zero,25(a5) # 3bc1340b <mem_alloc_cnt>
    3bc023fa:	00011797          	auipc	a5,0x11
    3bc023fe:	fe07a723          	sw	zero,-18(a5) # 3bc133e8 <transfer_size>
    3bc02402:	00011797          	auipc	a5,0x11
    3bc02406:	f007b323          	sd	zero,-250(a5) # 3bc13308 <acm>
    3bc0240a:	00011797          	auipc	a5,0x11
    3bc0240e:	fe078fa3          	sb	zero,-1(a5) # 3bc13409 <flagReboot>
    3bc02412:	bd9ff0ef          	jal	ra,3bc01fea <convert_buf_addr>
    3bc02416:	c77ff0ef          	jal	ra,3bc0208c <print_buf_addr>
    3bc0241a:	00009417          	auipc	s0,0x9
    3bc0241e:	1a640413          	addi	s0,s0,422 # 3bc0b5c0 <drv_obj>
    3bc02422:	00009797          	auipc	a5,0x9
    3bc02426:	24e7b783          	ld	a5,590(a5) # 3bc0b670 <handler>
    3bc0242a:	e41c                	sd	a5,8(s0)
    3bc0242c:	40000793          	li	a5,1024
    3bc02430:	c81c                	sw	a5,16(s0)
    3bc02432:	00009517          	auipc	a0,0x9
    3bc02436:	19650513          	addi	a0,a0,406 # 3bc0b5c8 <drv_obj+0x8>
    3bc0243a:	00009797          	auipc	a5,0x9
    3bc0243e:	25e7b783          	ld	a5,606(a5) # 3bc0b698 <setup_buf>
    3bc02442:	e43c                	sd	a5,72(s0)
    3bc02444:	6cd000ef          	jal	ra,3bc03310 <dwc2_udc_probe>
    3bc02448:	0005099b          	sext.w	s3,a0
    3bc0244c:	892a                	mv	s2,a0
    3bc0244e:	02099063          	bnez	s3,3bc0246e <AcmApp+0x198>
    3bc02452:	00009517          	auipc	a0,0x9
    3bc02456:	1c650513          	addi	a0,a0,454 # 3bc0b618 <g_driver>
    3bc0245a:	54f000ef          	jal	ra,3bc031a8 <usb_gadget_register_driver>
    3bc0245e:	02055763          	bgez	a0,3bc0248c <AcmApp+0x1b6>
    3bc02462:	00008517          	auipc	a0,0x8
    3bc02466:	66650513          	addi	a0,a0,1638 # 3bc0aac8 <__func__.1+0x338>
    3bc0246a:	eeffd0ef          	jal	ra,3bc00358 <tf_printf>
    3bc0246e:	85ce                	mv	a1,s3
    3bc02470:	00008517          	auipc	a0,0x8
    3bc02474:	6f050513          	addi	a0,a0,1776 # 3bc0ab60 <__func__.1+0x3d0>
    3bc02478:	ee1fd0ef          	jal	ra,3bc00358 <tf_printf>
    3bc0247c:	c00037b7          	lui	a5,0xc0003
    3bc02480:	03000737          	lui	a4,0x3000
    3bc02484:	079d                	addi	a5,a5,7
    3bc02486:	08f72223          	sw	a5,132(a4) # 3000084 <__BSS_SIZE__+0x2ffa474>
    3bc0248a:	a455                	j	3bc0272e <AcmApp+0x458>
    3bc0248c:	6000                	ld	s0,0(s0)
    3bc0248e:	e411                	bnez	s0,3bc0249a <AcmApp+0x1c4>
    3bc02490:	00008517          	auipc	a0,0x8
    3bc02494:	65850513          	addi	a0,a0,1624 # 3bc0aae8 <__func__.1+0x358>
    3bc02498:	bfc9                	j	3bc0246a <AcmApp+0x194>
    3bc0249a:	cc9ff0ef          	jal	ra,3bc02162 <acm_app_init>
    3bc0249e:	4501                	li	a0,0
    3bc024a0:	d1ffd0ef          	jal	ra,3bc001be <get_timer>
    3bc024a4:	6742                	ld	a4,16(sp)
    3bc024a6:	00011917          	auipc	s2,0x11
    3bc024aa:	f4690913          	addi	s2,s2,-186 # 3bc133ec <ts>
    3bc024ae:	00a92023          	sw	a0,0(s2)
    3bc024b2:	6522                	ld	a0,8(sp)
    3bc024b4:	030007b7          	lui	a5,0x3000
    3bc024b8:	08e7a223          	sw	a4,132(a5) # 3000084 <__BSS_SIZE__+0x2ffa474>
    3bc024bc:	cbffd0ef          	jal	ra,3bc0017a <trig_simulation_timer>
    3bc024c0:	681c                	ld	a5,16(s0)
    3bc024c2:	4585                	li	a1,1
    3bc024c4:	8522                	mv	a0,s0
    3bc024c6:	779c                	ld	a5,40(a5)
    3bc024c8:	00011997          	auipc	s3,0x11
    3bc024cc:	e5898993          	addi	s3,s3,-424 # 3bc13320 <bulkOutReq>
    3bc024d0:	00011b17          	auipc	s6,0x11
    3bc024d4:	f38b0b13          	addi	s6,s6,-200 # 3bc13408 <flagEnterDL>
    3bc024d8:	9782                	jalr	a5
    3bc024da:	00011a97          	auipc	s5,0x11
    3bc024de:	f2ba8a93          	addi	s5,s5,-213 # 3bc13405 <acm_configValue>
    3bc024e2:	000ac783          	lbu	a5,0(s5)
    3bc024e6:	18078663          	beqz	a5,3bc02672 <AcmApp+0x39c>
    3bc024ea:	6762                	ld	a4,24(sp)
    3bc024ec:	030007b7          	lui	a5,0x3000
    3bc024f0:	00043b83          	ld	s7,0(s0)
    3bc024f4:	08e7a223          	sw	a4,132(a5) # 3000084 <__BSS_SIZE__+0x2ffa474>
    3bc024f8:	4785                	li	a5,1
    3bc024fa:	00011717          	auipc	a4,0x11
    3bc024fe:	f0f708a3          	sb	a5,-239(a4) # 3bc1340b <mem_alloc_cnt>
    3bc02502:	08200c13          	li	s8,130
    3bc02506:	00011c97          	auipc	s9,0x11
    3bc0250a:	e42c8c93          	addi	s9,s9,-446 # 3bc13348 <epOut>
    3bc0250e:	00011d17          	auipc	s10,0x11
    3bc02512:	e0ad0d13          	addi	s10,s10,-502 # 3bc13318 <bulkInReq>
    3bc02516:	00011d97          	auipc	s11,0x11
    3bc0251a:	e2ad8d93          	addi	s11,s11,-470 # 3bc13340 <epIn>
    3bc0251e:	19741b63          	bne	s0,s7,3bc026b4 <AcmApp+0x3de>
    3bc02522:	02044783          	lbu	a5,32(s0)
    3bc02526:	470d                	li	a4,3
    3bc02528:	1ee78063          	beq	a5,a4,3bc02708 <AcmApp+0x432>
    3bc0252c:	4715                	li	a4,5
    3bc0252e:	1ee78063          	beq	a5,a4,3bc0270e <AcmApp+0x438>
    3bc02532:	4709                	li	a4,2
    3bc02534:	dee79ae3          	bne	a5,a4,3bc02328 <AcmApp+0x52>
    3bc02538:	04000793          	li	a5,64
    3bc0253c:	0009b503          	ld	a0,0(s3)
    3bc02540:	04000613          	li	a2,64
    3bc02544:	4581                	li	a1,0
    3bc02546:	00011717          	auipc	a4,0x11
    3bc0254a:	eaf72123          	sw	a5,-350(a4) # 3bc133e8 <transfer_size>
    3bc0254e:	cc4fe0ef          	jal	ra,3bc00a12 <memset>
    3bc02552:	0009b783          	ld	a5,0(s3)
    3bc02556:	00011717          	auipc	a4,0x11
    3bc0255a:	dd273703          	ld	a4,-558(a4) # 3bc13328 <cmdBuf>
    3bc0255e:	00011b97          	auipc	s7,0x11
    3bc02562:	e8ab8b93          	addi	s7,s7,-374 # 3bc133e8 <transfer_size>
    3bc02566:	eb98                	sd	a4,16(a5)
    3bc02568:	cfd8                	sw	a4,28(a5)
    3bc0256a:	fffff717          	auipc	a4,0xfffff
    3bc0256e:	33270713          	addi	a4,a4,818 # 3bc0189c <bulkOutCmpl>
    3bc02572:	f798                	sd	a4,40(a5)
    3bc02574:	00011c17          	auipc	s8,0x11
    3bc02578:	da4c0c13          	addi	s8,s8,-604 # 3bc13318 <bulkInReq>
    3bc0257c:	000ba703          	lw	a4,0(s7)
    3bc02580:	000c3503          	ld	a0,0(s8)
    3bc02584:	04000613          	li	a2,64
    3bc02588:	cf98                	sw	a4,24(a5)
    3bc0258a:	4581                	li	a1,0
    3bc0258c:	c86fe0ef          	jal	ra,3bc00a12 <memset>
    3bc02590:	000c3783          	ld	a5,0(s8)
    3bc02594:	00011717          	auipc	a4,0x11
    3bc02598:	d7c73703          	ld	a4,-644(a4) # 3bc13310 <bulkBuf>
    3bc0259c:	00011517          	auipc	a0,0x11
    3bc025a0:	dac53503          	ld	a0,-596(a0) # 3bc13348 <epOut>
    3bc025a4:	eb98                	sd	a4,16(a5)
    3bc025a6:	cfd8                	sw	a4,28(a5)
    3bc025a8:	fffff717          	auipc	a4,0xfffff
    3bc025ac:	5ae70713          	addi	a4,a4,1454 # 3bc01b56 <bulkInCmpl>
    3bc025b0:	f798                	sd	a4,40(a5)
    3bc025b2:	000ba703          	lw	a4,0(s7)
    3bc025b6:	0009b583          	ld	a1,0(s3)
    3bc025ba:	4b85                	li	s7,1
    3bc025bc:	cf98                	sw	a4,24(a5)
    3bc025be:	711c                	ld	a5,32(a0)
    3bc025c0:	739c                	ld	a5,32(a5)
    3bc025c2:	9782                	jalr	a5
    3bc025c4:	500c                	lw	a1,32(s0)
    3bc025c6:	00008517          	auipc	a0,0x8
    3bc025ca:	55a50513          	addi	a0,a0,1370 # 3bc0ab20 <__func__.1+0x390>
    3bc025ce:	d8bfd0ef          	jal	ra,3bc00358 <tf_printf>
    3bc025d2:	4501                	li	a0,0
    3bc025d4:	bebfd0ef          	jal	ra,3bc001be <get_timer>
    3bc025d8:	00a92023          	sw	a0,0(s2)
    3bc025dc:	b81ff0ef          	jal	ra,3bc0215c <AcmIsr>
    3bc025e0:	000ac783          	lbu	a5,0(s5)
    3bc025e4:	ee078be3          	beqz	a5,3bc024da <AcmApp+0x204>
    3bc025e8:	00011797          	auipc	a5,0x11
    3bc025ec:	e1e78793          	addi	a5,a5,-482 # 3bc13406 <configBreak>
    3bc025f0:	0007c783          	lbu	a5,0(a5)
    3bc025f4:	eb95                	bnez	a5,3bc02628 <AcmApp+0x352>
    3bc025f6:	000b4783          	lbu	a5,0(s6)
    3bc025fa:	10079d63          	bnez	a5,3bc02714 <AcmApp+0x43e>
    3bc025fe:	00092503          	lw	a0,0(s2)
    3bc02602:	bbdfd0ef          	jal	ra,3bc001be <get_timer>
    3bc02606:	2501                	sext.w	a0,a0
    3bc02608:	fca4fae3          	bgeu	s1,a0,3bc025dc <AcmApp+0x306>
    3bc0260c:	85a6                	mv	a1,s1
    3bc0260e:	00008517          	auipc	a0,0x8
    3bc02612:	53250513          	addi	a0,a0,1330 # 3bc0ab40 <__func__.1+0x3b0>
    3bc02616:	d43fd0ef          	jal	ra,3bc00358 <tf_printf>
    3bc0261a:	c00037b7          	lui	a5,0xc0003
    3bc0261e:	03000737          	lui	a4,0x3000
    3bc02622:	0795                	addi	a5,a5,5
    3bc02624:	08f72223          	sw	a5,132(a4) # 3000084 <__BSS_SIZE__+0x2ffa474>
    3bc02628:	00008517          	auipc	a0,0x8
    3bc0262c:	53050513          	addi	a0,a0,1328 # 3bc0ab58 <__func__.1+0x3c8>
    3bc02630:	d29fd0ef          	jal	ra,3bc00358 <tf_printf>
    3bc02634:	c00037b7          	lui	a5,0xc0003
    3bc02638:	03000737          	lui	a4,0x3000
    3bc0263c:	0799                	addi	a5,a5,6
    3bc0263e:	08f72223          	sw	a5,132(a4) # 3000084 <__BSS_SIZE__+0x2ffa474>
    3bc02642:	681c                	ld	a5,16(s0)
    3bc02644:	4581                	li	a1,0
    3bc02646:	8522                	mv	a0,s0
    3bc02648:	779c                	ld	a5,40(a5)
    3bc0264a:	9782                	jalr	a5
    3bc0264c:	00009517          	auipc	a0,0x9
    3bc02650:	fcc50513          	addi	a0,a0,-52 # 3bc0b618 <g_driver>
    3bc02654:	380000ef          	jal	ra,3bc029d4 <usb_gadget_unregister_driver>
    3bc02658:	0e0007b7          	lui	a5,0xe000
    3bc0265c:	0047a903          	lw	s2,4(a5) # e000004 <p_rom_api_cryptodma_aes_decrypt+0x9bfff04>
    3bc02660:	4d4757b7          	lui	a5,0x4d475
    3bc02664:	e3178793          	addi	a5,a5,-463 # 4d474e31 <__BL2_END__+0x11861a21>
    3bc02668:	40f90933          	sub	s2,s2,a5
    3bc0266c:	00193913          	seqz	s2,s2
    3bc02670:	a87d                	j	3bc0272e <AcmApp+0x458>
    3bc02672:	aebff0ef          	jal	ra,3bc0215c <AcmIsr>
    3bc02676:	00092503          	lw	a0,0(s2)
    3bc0267a:	b45fd0ef          	jal	ra,3bc001be <get_timer>
    3bc0267e:	2501                	sext.w	a0,a0
    3bc02680:	02a4f363          	bgeu	s1,a0,3bc026a6 <AcmApp+0x3d0>
    3bc02684:	000b4783          	lbu	a5,0(s6)
    3bc02688:	ef99                	bnez	a5,3bc026a6 <AcmApp+0x3d0>
    3bc0268a:	00008517          	auipc	a0,0x8
    3bc0268e:	48650513          	addi	a0,a0,1158 # 3bc0ab10 <__func__.1+0x380>
    3bc02692:	cc7fd0ef          	jal	ra,3bc00358 <tf_printf>
    3bc02696:	c00037b7          	lui	a5,0xc0003
    3bc0269a:	03000737          	lui	a4,0x3000
    3bc0269e:	0791                	addi	a5,a5,4
    3bc026a0:	08f72223          	sw	a5,132(a4) # 3000084 <__BSS_SIZE__+0x2ffa474>
    3bc026a4:	b151                	j	3bc02328 <AcmApp+0x52>
    3bc026a6:	00011797          	auipc	a5,0x11
    3bc026aa:	d637c783          	lbu	a5,-669(a5) # 3bc13409 <flagReboot>
    3bc026ae:	e20786e3          	beqz	a5,3bc024da <AcmApp+0x204>
    3bc026b2:	b1e5                	j	3bc0239a <AcmApp+0xc4>
    3bc026b4:	030bb703          	ld	a4,48(s7)
    3bc026b8:	c305                	beqz	a4,3bc026d8 <AcmApp+0x402>
    3bc026ba:	00274703          	lbu	a4,2(a4)
    3bc026be:	08100793          	li	a5,129
    3bc026c2:	00f71e63          	bne	a4,a5,3bc026de <AcmApp+0x408>
    3bc026c6:	020bb703          	ld	a4,32(s7)
    3bc026ca:	855e                	mv	a0,s7
    3bc026cc:	6b18                	ld	a4,16(a4)
    3bc026ce:	9702                	jalr	a4
    3bc026d0:	00ad3023          	sd	a0,0(s10)
    3bc026d4:	017db023          	sd	s7,0(s11)
    3bc026d8:	000bbb83          	ld	s7,0(s7)
    3bc026dc:	b589                	j	3bc0251e <AcmApp+0x248>
    3bc026de:	4785                	li	a5,1
    3bc026e0:	00f71c63          	bne	a4,a5,3bc026f8 <AcmApp+0x422>
    3bc026e4:	020bb703          	ld	a4,32(s7)
    3bc026e8:	855e                	mv	a0,s7
    3bc026ea:	6b18                	ld	a4,16(a4)
    3bc026ec:	9702                	jalr	a4
    3bc026ee:	00a9b023          	sd	a0,0(s3)
    3bc026f2:	017cb023          	sd	s7,0(s9)
    3bc026f6:	b7cd                	j	3bc026d8 <AcmApp+0x402>
    3bc026f8:	ff8710e3          	bne	a4,s8,3bc026d8 <AcmApp+0x402>
    3bc026fc:	020bb703          	ld	a4,32(s7)
    3bc02700:	855e                	mv	a0,s7
    3bc02702:	6b18                	ld	a4,16(a4)
    3bc02704:	9702                	jalr	a4
    3bc02706:	bfc9                	j	3bc026d8 <AcmApp+0x402>
    3bc02708:	20000793          	li	a5,512
    3bc0270c:	bd05                	j	3bc0253c <AcmApp+0x266>
    3bc0270e:	40000793          	li	a5,1024
    3bc02712:	b52d                	j	3bc0253c <AcmApp+0x266>
    3bc02714:	ed7794e3          	bne	a5,s7,3bc025dc <AcmApp+0x306>
    3bc02718:	000a2783          	lw	a5,0(s4)
    3bc0271c:	ec0790e3          	bnez	a5,3bc025dc <AcmApp+0x306>
    3bc02720:	00008517          	auipc	a0,0x8
    3bc02724:	43050513          	addi	a0,a0,1072 # 3bc0ab50 <__func__.1+0x3c0>
    3bc02728:	c31fd0ef          	jal	ra,3bc00358 <tf_printf>
    3bc0272c:	4905                	li	s2,1
    3bc0272e:	60aa                	ld	ra,136(sp)
    3bc02730:	640a                	ld	s0,128(sp)
    3bc02732:	74e6                	ld	s1,120(sp)
    3bc02734:	79a6                	ld	s3,104(sp)
    3bc02736:	7a06                	ld	s4,96(sp)
    3bc02738:	6ae6                	ld	s5,88(sp)
    3bc0273a:	6b46                	ld	s6,80(sp)
    3bc0273c:	6ba6                	ld	s7,72(sp)
    3bc0273e:	6c06                	ld	s8,64(sp)
    3bc02740:	7ce2                	ld	s9,56(sp)
    3bc02742:	7d42                	ld	s10,48(sp)
    3bc02744:	7da2                	ld	s11,40(sp)
    3bc02746:	854a                	mv	a0,s2
    3bc02748:	7946                	ld	s2,112(sp)
    3bc0274a:	6149                	addi	sp,sp,144
    3bc0274c:	8082                	ret

000000003bc0274e <dwc2_fifo_status>:
    3bc0274e:	c909                	beqz	a0,3bc02760 <dwc2_fifo_status+0x12>
    3bc02750:	07150783          	lb	a5,113(a0)
    3bc02754:	4501                	li	a0,0
    3bc02756:	0007d663          	bgez	a5,3bc02762 <dwc2_fifo_status+0x14>
    3bc0275a:	fd300513          	li	a0,-45
    3bc0275e:	8082                	ret
    3bc02760:	5535                	li	a0,-19
    3bc02762:	8082                	ret

000000003bc02764 <dwc2_free_request>:
    3bc02764:	61b8                	ld	a4,64(a1)
    3bc02766:	7179                	addi	sp,sp,-48
    3bc02768:	f022                	sd	s0,32(sp)
    3bc0276a:	ec26                	sd	s1,24(sp)
    3bc0276c:	00011417          	auipc	s0,0x11
    3bc02770:	c5443403          	ld	s0,-940(s0) # 3bc133c0 <the_controller>
    3bc02774:	f406                	sd	ra,40(sp)
    3bc02776:	04058793          	addi	a5,a1,64
    3bc0277a:	7c04                	ld	s1,56(s0)
    3bc0277c:	00f70a63          	beq	a4,a5,3bc02790 <dwc2_free_request+0x2c>
    3bc02780:	00008517          	auipc	a0,0x8
    3bc02784:	42850513          	addi	a0,a0,1064 # 3bc0aba8 <__func__.5+0x8>
    3bc02788:	e42e                	sd	a1,8(sp)
    3bc0278a:	bcffd0ef          	jal	ra,3bc00358 <tf_printf>
    3bc0278e:	65a2                	ld	a1,8(sp)
    3bc02790:	8522                	mv	a0,s0
    3bc02792:	7402                	ld	s0,32(sp)
    3bc02794:	68bc                	ld	a5,80(s1)
    3bc02796:	70a2                	ld	ra,40(sp)
    3bc02798:	64e2                	ld	s1,24(sp)
    3bc0279a:	6145                	addi	sp,sp,48
    3bc0279c:	8782                	jr	a5

000000003bc0279e <pullup>:
    3bc0279e:	7179                	addi	sp,sp,-48
    3bc027a0:	ec26                	sd	s1,24(sp)
    3bc027a2:	00011497          	auipc	s1,0x11
    3bc027a6:	c1648493          	addi	s1,s1,-1002 # 3bc133b8 <reg>
    3bc027aa:	6088                	ld	a0,0(s1)
    3bc027ac:	f022                	sd	s0,32(sp)
    3bc027ae:	6405                	lui	s0,0x1
    3bc027b0:	80440413          	addi	s0,s0,-2044 # 804 <__BSS_SIZE__-0x540c>
    3bc027b4:	9522                	add	a0,a0,s0
    3bc027b6:	e42e                	sd	a1,8(sp)
    3bc027b8:	f406                	sd	ra,40(sp)
    3bc027ba:	f85fe0ef          	jal	ra,3bc0173e <DWC2_UncachedRead32>
    3bc027be:	65a2                	ld	a1,8(sp)
    3bc027c0:	609c                	ld	a5,0(s1)
    3bc027c2:	2501                	sext.w	a0,a0
    3bc027c4:	ed89                	bnez	a1,3bc027de <pullup+0x40>
    3bc027c6:	008785b3          	add	a1,a5,s0
    3bc027ca:	00256513          	ori	a0,a0,2
    3bc027ce:	f77fe0ef          	jal	ra,3bc01744 <DWC2_UncachedWrite32>
    3bc027d2:	70a2                	ld	ra,40(sp)
    3bc027d4:	7402                	ld	s0,32(sp)
    3bc027d6:	64e2                	ld	s1,24(sp)
    3bc027d8:	4501                	li	a0,0
    3bc027da:	6145                	addi	sp,sp,48
    3bc027dc:	8082                	ret
    3bc027de:	008785b3          	add	a1,a5,s0
    3bc027e2:	9975                	andi	a0,a0,-3
    3bc027e4:	b7ed                	j	3bc027ce <pullup+0x30>

000000003bc027e6 <dwc2_alloc_request>:
    3bc027e6:	00011517          	auipc	a0,0x11
    3bc027ea:	bda53503          	ld	a0,-1062(a0) # 3bc133c0 <the_controller>
    3bc027ee:	7d1c                	ld	a5,56(a0)
    3bc027f0:	1141                	addi	sp,sp,-16
    3bc027f2:	e022                	sd	s0,0(sp)
    3bc027f4:	67bc                	ld	a5,72(a5)
    3bc027f6:	e406                	sd	ra,8(sp)
    3bc027f8:	05000593          	li	a1,80
    3bc027fc:	9782                	jalr	a5
    3bc027fe:	842a                	mv	s0,a0
    3bc02800:	c911                	beqz	a0,3bc02814 <dwc2_alloc_request+0x2e>
    3bc02802:	05000613          	li	a2,80
    3bc02806:	4581                	li	a1,0
    3bc02808:	a0afe0ef          	jal	ra,3bc00a12 <memset>
    3bc0280c:	04040793          	addi	a5,s0,64
    3bc02810:	e03c                	sd	a5,64(s0)
    3bc02812:	e43c                	sd	a5,72(s0)
    3bc02814:	60a2                	ld	ra,8(sp)
    3bc02816:	8522                	mv	a0,s0
    3bc02818:	6402                	ld	s0,0(sp)
    3bc0281a:	0141                	addi	sp,sp,16
    3bc0281c:	8082                	ret

000000003bc0281e <dwc2_ep_enable>:
    3bc0281e:	cd51                	beqz	a0,3bc028ba <dwc2_ep_enable+0x9c>
    3bc02820:	1141                	addi	sp,sp,-16
    3bc02822:	e022                	sd	s0,0(sp)
    3bc02824:	e406                	sd	ra,8(sp)
    3bc02826:	842a                	mv	s0,a0
    3bc02828:	5529                	li	a0,-22
    3bc0282a:	c5c1                	beqz	a1,3bc028b2 <dwc2_ep_enable+0x94>
    3bc0282c:	603c                	ld	a5,64(s0)
    3bc0282e:	e3d1                	bnez	a5,3bc028b2 <dwc2_ep_enable+0x94>
    3bc02830:	6c18                	ld	a4,24(s0)
    3bc02832:	00008797          	auipc	a5,0x8
    3bc02836:	62e78793          	addi	a5,a5,1582 # 3bc0ae60 <ep0name>
    3bc0283a:	06f70c63          	beq	a4,a5,3bc028b2 <dwc2_ep_enable+0x94>
    3bc0283e:	0015c703          	lbu	a4,1(a1)
    3bc02842:	4795                	li	a5,5
    3bc02844:	06f71763          	bne	a4,a5,3bc028b2 <dwc2_ep_enable+0x94>
    3bc02848:	07144703          	lbu	a4,113(s0)
    3bc0284c:	0025c783          	lbu	a5,2(a1)
    3bc02850:	06f71163          	bne	a4,a5,3bc028b2 <dwc2_ep_enable+0x94>
    3bc02854:	0045d783          	lhu	a5,4(a1)
    3bc02858:	02845703          	lhu	a4,40(s0)
    3bc0285c:	04f76b63          	bltu	a4,a5,3bc028b2 <dwc2_ep_enable+0x94>
    3bc02860:	07244683          	lbu	a3,114(s0)
    3bc02864:	0035c703          	lbu	a4,3(a1)
    3bc02868:	00e68863          	beq	a3,a4,3bc02878 <dwc2_ep_enable+0x5a>
    3bc0286c:	4609                	li	a2,2
    3bc0286e:	00c68563          	beq	a3,a2,3bc02878 <dwc2_ep_enable+0x5a>
    3bc02872:	468d                	li	a3,3
    3bc02874:	02d71f63          	bne	a4,a3,3bc028b2 <dwc2_ep_enable+0x94>
    3bc02878:	fde00513          	li	a0,-34
    3bc0287c:	cb9d                	beqz	a5,3bc028b2 <dwc2_ep_enable+0x94>
    3bc0287e:	7c18                	ld	a4,56(s0)
    3bc02880:	fc600513          	li	a0,-58
    3bc02884:	7f14                	ld	a3,56(a4)
    3bc02886:	c695                	beqz	a3,3bc028b2 <dwc2_ep_enable+0x94>
    3bc02888:	5318                	lw	a4,32(a4)
    3bc0288a:	c705                	beqz	a4,3bc028b2 <dwc2_ep_enable+0x94>
    3bc0288c:	02f41423          	sh	a5,40(s0)
    3bc02890:	f80c                	sd	a1,48(s0)
    3bc02892:	e02c                	sd	a1,64(s0)
    3bc02894:	8522                	mv	a0,s0
    3bc02896:	06040823          	sb	zero,112(s0)
    3bc0289a:	04043c23          	sd	zero,88(s0)
    3bc0289e:	35e010ef          	jal	ra,3bc03bfc <dwc2_udc_set_nak>
    3bc028a2:	4581                	li	a1,0
    3bc028a4:	8522                	mv	a0,s0
    3bc028a6:	396010ef          	jal	ra,3bc03c3c <dwc2_udc_set_halt>
    3bc028aa:	8522                	mv	a0,s0
    3bc028ac:	3f2010ef          	jal	ra,3bc03c9e <dwc2_udc_ep_activate>
    3bc028b0:	4501                	li	a0,0
    3bc028b2:	60a2                	ld	ra,8(sp)
    3bc028b4:	6402                	ld	s0,0(sp)
    3bc028b6:	0141                	addi	sp,sp,16
    3bc028b8:	8082                	ret
    3bc028ba:	5529                	li	a0,-22
    3bc028bc:	8082                	ret

000000003bc028be <dwc2_fifo_flush>:
    3bc028be:	8082                	ret

000000003bc028c0 <dwc2_log_write>:
    3bc028c0:	8082                	ret

000000003bc028c2 <dwc2_get_ep0_name>:
    3bc028c2:	00008517          	auipc	a0,0x8
    3bc028c6:	59e50513          	addi	a0,a0,1438 # 3bc0ae60 <ep0name>
    3bc028ca:	8082                	ret

000000003bc028cc <udc_reinit>:
    3bc028cc:	6d1c                	ld	a5,24(a0)
    3bc028ce:	f8a5550b          	sdd	a0,a0,(a0),0,4
    3bc028d2:	29850613          	addi	a2,a0,664
    3bc028d6:	f8f7d78b          	sdd	a5,a5,(a5),0,4
    3bc028da:	04052423          	sw	zero,72(a0)
    3bc028de:	09850793          	addi	a5,a0,152
    3bc028e2:	fe07bc23          	sd	zero,-8(a5)
    3bc028e6:	02078423          	sb	zero,40(a5)
    3bc028ea:	f8f7d78b          	sdd	a5,a5,(a5),0,4
    3bc028ee:	0007b823          	sd	zero,16(a5)
    3bc028f2:	08078713          	addi	a4,a5,128
    3bc028f6:	00c71363          	bne	a4,a2,3bc028fc <udc_reinit+0x30>
    3bc028fa:	8082                	ret
    3bc028fc:	6514                	ld	a3,8(a0)
    3bc028fe:	03878793          	addi	a5,a5,56
    3bc02902:	e51c                	sd	a5,8(a0)
    3bc02904:	faa73c23          	sd	a0,-72(a4)
    3bc02908:	fcd73023          	sd	a3,-64(a4)
    3bc0290c:	e29c                	sd	a5,0(a3)
    3bc0290e:	87ba                	mv	a5,a4
    3bc02910:	bfc9                	j	3bc028e2 <udc_reinit+0x16>

000000003bc02912 <dwc2_done>:
    3bc02912:	65b8                	ld	a4,72(a1)
    3bc02914:	61b4                	ld	a3,64(a1)
    3bc02916:	1101                	addi	sp,sp,-32
    3bc02918:	ec06                	sd	ra,24(sp)
    3bc0291a:	e822                	sd	s0,16(sp)
    3bc0291c:	07054403          	lbu	s0,112(a0)
    3bc02920:	e698                	sd	a4,8(a3)
    3bc02922:	e314                	sd	a3,0(a4)
    3bc02924:	5d98                	lw	a4,56(a1)
    3bc02926:	04058793          	addi	a5,a1,64
    3bc0292a:	e1bc                	sd	a5,64(a1)
    3bc0292c:	e5bc                	sd	a5,72(a1)
    3bc0292e:	fdc00793          	li	a5,-36
    3bc02932:	00f71363          	bne	a4,a5,3bc02938 <dwc2_done+0x26>
    3bc02936:	dd90                	sw	a2,56(a1)
    3bc02938:	4785                	li	a5,1
    3bc0293a:	06f50823          	sb	a5,112(a0)
    3bc0293e:	759c                	ld	a5,40(a1)
    3bc02940:	e42a                	sd	a0,8(sp)
    3bc02942:	9782                	jalr	a5
    3bc02944:	6522                	ld	a0,8(sp)
    3bc02946:	06850823          	sb	s0,112(a0)
    3bc0294a:	60e2                	ld	ra,24(sp)
    3bc0294c:	6442                	ld	s0,16(sp)
    3bc0294e:	6105                	addi	sp,sp,32
    3bc02950:	8082                	ret

000000003bc02952 <dwc2_dequeue>:
    3bc02952:	c539                	beqz	a0,3bc029a0 <dwc2_dequeue+0x4e>
    3bc02954:	6d14                	ld	a3,24(a0)
    3bc02956:	00008797          	auipc	a5,0x8
    3bc0295a:	50a78793          	addi	a5,a5,1290 # 3bc0ae60 <ep0name>
    3bc0295e:	5729                	li	a4,-22
    3bc02960:	04f68163          	beq	a3,a5,3bc029a2 <dwc2_dequeue+0x50>
    3bc02964:	872a                	mv	a4,a0
    3bc02966:	6e97478b          	ldib	a5,(a4),9,3
    3bc0296a:	fc078793          	addi	a5,a5,-64
    3bc0296e:	86be                	mv	a3,a5
    3bc02970:	6e86c60b          	ldib	a2,(a3),8,3
    3bc02974:	02e69163          	bne	a3,a4,3bc02996 <dwc2_dequeue+0x44>
    3bc02978:	5729                	li	a4,-22
    3bc0297a:	02f59463          	bne	a1,a5,3bc029a2 <dwc2_dequeue+0x50>
    3bc0297e:	1141                	addi	sp,sp,-16
    3bc02980:	fca00613          	li	a2,-54
    3bc02984:	85be                	mv	a1,a5
    3bc02986:	e406                	sd	ra,8(sp)
    3bc02988:	f8bff0ef          	jal	ra,3bc02912 <dwc2_done>
    3bc0298c:	60a2                	ld	ra,8(sp)
    3bc0298e:	4701                	li	a4,0
    3bc02990:	853a                	mv	a0,a4
    3bc02992:	0141                	addi	sp,sp,16
    3bc02994:	8082                	ret
    3bc02996:	fef584e3          	beq	a1,a5,3bc0297e <dwc2_dequeue+0x2c>
    3bc0299a:	fc060793          	addi	a5,a2,-64
    3bc0299e:	bfc1                	j	3bc0296e <dwc2_dequeue+0x1c>
    3bc029a0:	5729                	li	a4,-22
    3bc029a2:	853a                	mv	a0,a4
    3bc029a4:	8082                	ret

000000003bc029a6 <dwc2_nuke>:
    3bc029a6:	7179                	addi	sp,sp,-48
    3bc029a8:	f022                	sd	s0,32(sp)
    3bc029aa:	ec26                	sd	s1,24(sp)
    3bc029ac:	f406                	sd	ra,40(sp)
    3bc029ae:	84ae                	mv	s1,a1
    3bc029b0:	04850413          	addi	s0,a0,72
    3bc029b4:	652c                	ld	a1,72(a0)
    3bc029b6:	00859763          	bne	a1,s0,3bc029c4 <dwc2_nuke+0x1e>
    3bc029ba:	70a2                	ld	ra,40(sp)
    3bc029bc:	7402                	ld	s0,32(sp)
    3bc029be:	64e2                	ld	s1,24(sp)
    3bc029c0:	6145                	addi	sp,sp,48
    3bc029c2:	8082                	ret
    3bc029c4:	8626                	mv	a2,s1
    3bc029c6:	fc058593          	addi	a1,a1,-64
    3bc029ca:	e42a                	sd	a0,8(sp)
    3bc029cc:	f47ff0ef          	jal	ra,3bc02912 <dwc2_done>
    3bc029d0:	6522                	ld	a0,8(sp)
    3bc029d2:	b7cd                	j	3bc029b4 <dwc2_nuke+0xe>

000000003bc029d4 <usb_gadget_unregister_driver>:
    3bc029d4:	7139                	addi	sp,sp,-64
    3bc029d6:	f822                	sd	s0,48(sp)
    3bc029d8:	fc06                	sd	ra,56(sp)
    3bc029da:	f426                	sd	s1,40(sp)
    3bc029dc:	f04a                	sd	s2,32(sp)
    3bc029de:	ec4e                	sd	s3,24(sp)
    3bc029e0:	e852                	sd	s4,16(sp)
    3bc029e2:	e456                	sd	s5,8(sp)
    3bc029e4:	00011417          	auipc	s0,0x11
    3bc029e8:	9dc43403          	ld	s0,-1572(s0) # 3bc133c0 <the_controller>
    3bc029ec:	cc3d                	beqz	s0,3bc02a6a <usb_gadget_unregister_driver+0x96>
    3bc029ee:	84aa                	mv	s1,a0
    3bc029f0:	5529                	li	a0,-22
    3bc029f2:	c0bd                	beqz	s1,3bc02a58 <usb_gadget_unregister_driver+0x84>
    3bc029f4:	7c18                	ld	a4,56(s0)
    3bc029f6:	06971163          	bne	a4,s1,3bc02a58 <usb_gadget_unregister_driver+0x84>
    3bc029fa:	5018                	lw	a4,32(s0)
    3bc029fc:	02043c23          	sd	zero,56(s0)
    3bc02a00:	89a6                	mv	s3,s1
    3bc02a02:	e311                	bnez	a4,3bc02a06 <usb_gadget_unregister_driver+0x32>
    3bc02a04:	4981                	li	s3,0
    3bc02a06:	02042023          	sw	zero,32(s0)
    3bc02a0a:	05040913          	addi	s2,s0,80
    3bc02a0e:	25040a13          	addi	s4,s0,592
    3bc02a12:	4a85                	li	s5,1
    3bc02a14:	07590823          	sb	s5,112(s2)
    3bc02a18:	854a                	mv	a0,s2
    3bc02a1a:	fc600593          	li	a1,-58
    3bc02a1e:	08090913          	addi	s2,s2,128
    3bc02a22:	f85ff0ef          	jal	ra,3bc029a6 <dwc2_nuke>
    3bc02a26:	ff4917e3          	bne	s2,s4,3bc02a14 <usb_gadget_unregister_driver+0x40>
    3bc02a2a:	00098663          	beqz	s3,3bc02a36 <usb_gadget_unregister_driver+0x62>
    3bc02a2e:	0289b783          	ld	a5,40(s3)
    3bc02a32:	8522                	mv	a0,s0
    3bc02a34:	9782                	jalr	a5
    3bc02a36:	8522                	mv	a0,s0
    3bc02a38:	e95ff0ef          	jal	ra,3bc028cc <udc_reinit>
    3bc02a3c:	6c9c                	ld	a5,24(s1)
    3bc02a3e:	8522                	mv	a0,s0
    3bc02a40:	9782                	jalr	a5
    3bc02a42:	8522                	mv	a0,s0
    3bc02a44:	4581                	li	a1,0
    3bc02a46:	106010ef          	jal	ra,3bc03b4c <dwc2_set_address>
    3bc02a4a:	4501                	li	a0,0
    3bc02a4c:	04042423          	sw	zero,72(s0)
    3bc02a50:	02042023          	sw	zero,32(s0)
    3bc02a54:	24040823          	sb	zero,592(s0)
    3bc02a58:	70e2                	ld	ra,56(sp)
    3bc02a5a:	7442                	ld	s0,48(sp)
    3bc02a5c:	74a2                	ld	s1,40(sp)
    3bc02a5e:	7902                	ld	s2,32(sp)
    3bc02a60:	69e2                	ld	s3,24(sp)
    3bc02a62:	6a42                	ld	s4,16(sp)
    3bc02a64:	6aa2                	ld	s5,8(sp)
    3bc02a66:	6121                	addi	sp,sp,64
    3bc02a68:	8082                	ret
    3bc02a6a:	5535                	li	a0,-19
    3bc02a6c:	b7f5                	j	3bc02a58 <usb_gadget_unregister_driver+0x84>

000000003bc02a6e <dwc2_hsotg_set_bit>:
    3bc02a6e:	1101                	addi	sp,sp,-32
    3bc02a70:	e822                	sd	s0,16(sp)
    3bc02a72:	e426                	sd	s1,8(sp)
    3bc02a74:	ec06                	sd	ra,24(sp)
    3bc02a76:	842e                	mv	s0,a1
    3bc02a78:	84aa                	mv	s1,a0
    3bc02a7a:	cc5fe0ef          	jal	ra,3bc0173e <DWC2_UncachedRead32>
    3bc02a7e:	2501                	sext.w	a0,a0
    3bc02a80:	8d41                	or	a0,a0,s0
    3bc02a82:	6442                	ld	s0,16(sp)
    3bc02a84:	60e2                	ld	ra,24(sp)
    3bc02a86:	85a6                	mv	a1,s1
    3bc02a88:	64a2                	ld	s1,8(sp)
    3bc02a8a:	6105                	addi	sp,sp,32
    3bc02a8c:	cb9fe06f          	j	3bc01744 <DWC2_UncachedWrite32>

000000003bc02a90 <dwc2_hsotg_clear_bit>:
    3bc02a90:	1101                	addi	sp,sp,-32
    3bc02a92:	e822                	sd	s0,16(sp)
    3bc02a94:	ec06                	sd	ra,24(sp)
    3bc02a96:	842a                	mv	s0,a0
    3bc02a98:	e42e                	sd	a1,8(sp)
    3bc02a9a:	ca5fe0ef          	jal	ra,3bc0173e <DWC2_UncachedRead32>
    3bc02a9e:	65a2                	ld	a1,8(sp)
    3bc02aa0:	60e2                	ld	ra,24(sp)
    3bc02aa2:	2501                	sext.w	a0,a0
    3bc02aa4:	fff5c793          	not	a5,a1
    3bc02aa8:	85a2                	mv	a1,s0
    3bc02aaa:	6442                	ld	s0,16(sp)
    3bc02aac:	8d7d                	and	a0,a0,a5
    3bc02aae:	6105                	addi	sp,sp,32
    3bc02ab0:	c95fe06f          	j	3bc01744 <DWC2_UncachedWrite32>

000000003bc02ab4 <wakeup>:
    3bc02ab4:	1101                	addi	sp,sp,-32
    3bc02ab6:	e426                	sd	s1,8(sp)
    3bc02ab8:	00011497          	auipc	s1,0x11
    3bc02abc:	90048493          	addi	s1,s1,-1792 # 3bc133b8 <reg>
    3bc02ac0:	6088                	ld	a0,0(s1)
    3bc02ac2:	e822                	sd	s0,16(sp)
    3bc02ac4:	6405                	lui	s0,0x1
    3bc02ac6:	80440413          	addi	s0,s0,-2044 # 804 <__BSS_SIZE__-0x540c>
    3bc02aca:	4585                	li	a1,1
    3bc02acc:	9522                	add	a0,a0,s0
    3bc02ace:	ec06                	sd	ra,24(sp)
    3bc02ad0:	f9fff0ef          	jal	ra,3bc02a6e <dwc2_hsotg_set_bit>
    3bc02ad4:	4529                	li	a0,10
    3bc02ad6:	edefd0ef          	jal	ra,3bc001b4 <mdelay>
    3bc02ada:	6088                	ld	a0,0(s1)
    3bc02adc:	4585                	li	a1,1
    3bc02ade:	9522                	add	a0,a0,s0
    3bc02ae0:	fb1ff0ef          	jal	ra,3bc02a90 <dwc2_hsotg_clear_bit>
    3bc02ae4:	60e2                	ld	ra,24(sp)
    3bc02ae6:	6442                	ld	s0,16(sp)
    3bc02ae8:	64a2                	ld	s1,8(sp)
    3bc02aea:	4501                	li	a0,0
    3bc02aec:	6105                	addi	sp,sp,32
    3bc02aee:	8082                	ret

000000003bc02af0 <dwc2_hsotg_wait_bit_set>:
    3bc02af0:	7179                	addi	sp,sp,-48
    3bc02af2:	f022                	sd	s0,32(sp)
    3bc02af4:	ec26                	sd	s1,24(sp)
    3bc02af6:	e84a                	sd	s2,16(sp)
    3bc02af8:	e44e                	sd	s3,8(sp)
    3bc02afa:	f406                	sd	ra,40(sp)
    3bc02afc:	892a                	mv	s2,a0
    3bc02afe:	89ae                	mv	s3,a1
    3bc02b00:	84b2                	mv	s1,a2
    3bc02b02:	4401                	li	s0,0
    3bc02b04:	00941b63          	bne	s0,s1,3bc02b1a <dwc2_hsotg_wait_bit_set+0x2a>
    3bc02b08:	fc400513          	li	a0,-60
    3bc02b0c:	70a2                	ld	ra,40(sp)
    3bc02b0e:	7402                	ld	s0,32(sp)
    3bc02b10:	64e2                	ld	s1,24(sp)
    3bc02b12:	6942                	ld	s2,16(sp)
    3bc02b14:	69a2                	ld	s3,8(sp)
    3bc02b16:	6145                	addi	sp,sp,48
    3bc02b18:	8082                	ret
    3bc02b1a:	854a                	mv	a0,s2
    3bc02b1c:	c23fe0ef          	jal	ra,3bc0173e <DWC2_UncachedRead32>
    3bc02b20:	2501                	sext.w	a0,a0
    3bc02b22:	01357533          	and	a0,a0,s3
    3bc02b26:	e511                	bnez	a0,3bc02b32 <dwc2_hsotg_wait_bit_set+0x42>
    3bc02b28:	4505                	li	a0,1
    3bc02b2a:	e60fd0ef          	jal	ra,3bc0018a <udelay>
    3bc02b2e:	2405                	addiw	s0,s0,1
    3bc02b30:	bfd1                	j	3bc02b04 <dwc2_hsotg_wait_bit_set+0x14>
    3bc02b32:	4501                	li	a0,0
    3bc02b34:	bfe1                	j	3bc02b0c <dwc2_hsotg_wait_bit_set+0x1c>

000000003bc02b36 <dwc2_hsotg_txfifo_flush.constprop.0>:
    3bc02b36:	1101                	addi	sp,sp,-32
    3bc02b38:	e426                	sd	s1,8(sp)
    3bc02b3a:	00011497          	auipc	s1,0x11
    3bc02b3e:	87e48493          	addi	s1,s1,-1922 # 3bc133b8 <reg>
    3bc02b42:	e822                	sd	s0,16(sp)
    3bc02b44:	842a                	mv	s0,a0
    3bc02b46:	6088                	ld	a0,0(s1)
    3bc02b48:	6609                	lui	a2,0x2
    3bc02b4a:	71060613          	addi	a2,a2,1808 # 2710 <__BSS_SIZE__-0x3500>
    3bc02b4e:	800005b7          	lui	a1,0x80000
    3bc02b52:	0541                	addi	a0,a0,16
    3bc02b54:	ec06                	sd	ra,24(sp)
    3bc02b56:	f9bff0ef          	jal	ra,3bc02af0 <dwc2_hsotg_wait_bit_set>
    3bc02b5a:	c919                	beqz	a0,3bc02b70 <dwc2_hsotg_txfifo_flush.constprop.0+0x3a>
    3bc02b5c:	00008597          	auipc	a1,0x8
    3bc02b60:	27c58593          	addi	a1,a1,636 # 3bc0add8 <__func__.3>
    3bc02b64:	00008517          	auipc	a0,0x8
    3bc02b68:	06c50513          	addi	a0,a0,108 # 3bc0abd0 <__func__.5+0x30>
    3bc02b6c:	fecfd0ef          	jal	ra,3bc00358 <tf_printf>
    3bc02b70:	608c                	ld	a1,0(s1)
    3bc02b72:	0064151b          	slliw	a0,s0,0x6
    3bc02b76:	02056513          	ori	a0,a0,32
    3bc02b7a:	05c1                	addi	a1,a1,16
    3bc02b7c:	2501                	sext.w	a0,a0
    3bc02b7e:	bc7fe0ef          	jal	ra,3bc01744 <DWC2_UncachedWrite32>
    3bc02b82:	06400413          	li	s0,100
    3bc02b86:	6088                	ld	a0,0(s1)
    3bc02b88:	0541                	addi	a0,a0,16
    3bc02b8a:	bb5fe0ef          	jal	ra,3bc0173e <DWC2_UncachedRead32>
    3bc02b8e:	0005061b          	sext.w	a2,a0
    3bc02b92:	02057513          	andi	a0,a0,32
    3bc02b96:	cd09                	beqz	a0,3bc02bb0 <dwc2_hsotg_txfifo_flush.constprop.0+0x7a>
    3bc02b98:	347d                	addiw	s0,s0,-1
    3bc02b9a:	e015                	bnez	s0,3bc02bbe <dwc2_hsotg_txfifo_flush.constprop.0+0x88>
    3bc02b9c:	00008597          	auipc	a1,0x8
    3bc02ba0:	23c58593          	addi	a1,a1,572 # 3bc0add8 <__func__.3>
    3bc02ba4:	00008517          	auipc	a0,0x8
    3bc02ba8:	04c50513          	addi	a0,a0,76 # 3bc0abf0 <__func__.5+0x50>
    3bc02bac:	facfd0ef          	jal	ra,3bc00358 <tf_printf>
    3bc02bb0:	6442                	ld	s0,16(sp)
    3bc02bb2:	60e2                	ld	ra,24(sp)
    3bc02bb4:	64a2                	ld	s1,8(sp)
    3bc02bb6:	4505                	li	a0,1
    3bc02bb8:	6105                	addi	sp,sp,32
    3bc02bba:	dd0fd06f          	j	3bc0018a <udelay>
    3bc02bbe:	4505                	li	a0,1
    3bc02bc0:	dcafd0ef          	jal	ra,3bc0018a <udelay>
    3bc02bc4:	b7c9                	j	3bc02b86 <dwc2_hsotg_txfifo_flush.constprop.0+0x50>

000000003bc02bc6 <kill_all_requests.isra.0>:
    3bc02bc6:	1101                	addi	sp,sp,-32
    3bc02bc8:	e426                	sd	s1,8(sp)
    3bc02bca:	e04a                	sd	s2,0(sp)
    3bc02bcc:	ec06                	sd	ra,24(sp)
    3bc02bce:	e822                	sd	s0,16(sp)
    3bc02bd0:	07154403          	lbu	s0,113(a0)
    3bc02bd4:	84aa                	mv	s1,a0
    3bc02bd6:	60000913          	li	s2,1536
    3bc02bda:	883d                	andi	s0,s0,15
    3bc02bdc:	e019                	bnez	s0,3bc02be2 <kill_all_requests.isra.0+0x1c>
    3bc02bde:	10000913          	li	s2,256
    3bc02be2:	8526                	mv	a0,s1
    3bc02be4:	dc3ff0ef          	jal	ra,3bc029a6 <dwc2_nuke>
    3bc02be8:	6505                	lui	a0,0x1
    3bc02bea:	91850513          	addi	a0,a0,-1768 # 918 <__BSS_SIZE__-0x52f8>
    3bc02bee:	0416                	slli	s0,s0,0x5
    3bc02bf0:	942a                	add	s0,s0,a0
    3bc02bf2:	00010517          	auipc	a0,0x10
    3bc02bf6:	7c653503          	ld	a0,1990(a0) # 3bc133b8 <reg>
    3bc02bfa:	9522                	add	a0,a0,s0
    3bc02bfc:	b43fe0ef          	jal	ra,3bc0173e <DWC2_UncachedRead32>
    3bc02c00:	3c05350b          	extu	a0,a0,15,0
    3bc02c04:	050a                	slli	a0,a0,0x2
    3bc02c06:	01257963          	bgeu	a0,s2,3bc02c18 <kill_all_requests.isra.0+0x52>
    3bc02c0a:	6442                	ld	s0,16(sp)
    3bc02c0c:	5ca8                	lw	a0,120(s1)
    3bc02c0e:	60e2                	ld	ra,24(sp)
    3bc02c10:	64a2                	ld	s1,8(sp)
    3bc02c12:	6902                	ld	s2,0(sp)
    3bc02c14:	6105                	addi	sp,sp,32
    3bc02c16:	b705                	j	3bc02b36 <dwc2_hsotg_txfifo_flush.constprop.0>
    3bc02c18:	60e2                	ld	ra,24(sp)
    3bc02c1a:	6442                	ld	s0,16(sp)
    3bc02c1c:	64a2                	ld	s1,8(sp)
    3bc02c1e:	6902                	ld	s2,0(sp)
    3bc02c20:	6105                	addi	sp,sp,32
    3bc02c22:	8082                	ret

000000003bc02c24 <dwc2_disconnect>:
    3bc02c24:	27052783          	lw	a5,624(a0)
    3bc02c28:	cba1                	beqz	a5,3bc02c78 <dwc2_disconnect+0x54>
    3bc02c2a:	1101                	addi	sp,sp,-32
    3bc02c2c:	e822                	sd	s0,16(sp)
    3bc02c2e:	e426                	sd	s1,8(sp)
    3bc02c30:	e04a                	sd	s2,0(sp)
    3bc02c32:	ec06                	sd	ra,24(sp)
    3bc02c34:	842a                	mv	s0,a0
    3bc02c36:	26052823          	sw	zero,624(a0)
    3bc02c3a:	0d050493          	addi	s1,a0,208
    3bc02c3e:	25050913          	addi	s2,a0,592
    3bc02c42:	6c9c                	ld	a5,24(s1)
    3bc02c44:	c791                	beqz	a5,3bc02c50 <dwc2_disconnect+0x2c>
    3bc02c46:	fc600593          	li	a1,-58
    3bc02c4a:	8526                	mv	a0,s1
    3bc02c4c:	f7bff0ef          	jal	ra,3bc02bc6 <kill_all_requests.isra.0>
    3bc02c50:	08048493          	addi	s1,s1,128
    3bc02c54:	ff2497e3          	bne	s1,s2,3bc02c42 <dwc2_disconnect+0x1e>
    3bc02c58:	7c1c                	ld	a5,56(s0)
    3bc02c5a:	779c                	ld	a5,40(a5)
    3bc02c5c:	cb81                	beqz	a5,3bc02c6c <dwc2_disconnect+0x48>
    3bc02c5e:	8522                	mv	a0,s0
    3bc02c60:	6442                	ld	s0,16(sp)
    3bc02c62:	60e2                	ld	ra,24(sp)
    3bc02c64:	64a2                	ld	s1,8(sp)
    3bc02c66:	6902                	ld	s2,0(sp)
    3bc02c68:	6105                	addi	sp,sp,32
    3bc02c6a:	8782                	jr	a5
    3bc02c6c:	60e2                	ld	ra,24(sp)
    3bc02c6e:	6442                	ld	s0,16(sp)
    3bc02c70:	64a2                	ld	s1,8(sp)
    3bc02c72:	6902                	ld	s2,0(sp)
    3bc02c74:	6105                	addi	sp,sp,32
    3bc02c76:	8082                	ret
    3bc02c78:	8082                	ret

000000003bc02c7a <dwc2_hsotg_init_fifo.constprop.0>:
    3bc02c7a:	1101                	addi	sp,sp,-32
    3bc02c7c:	e822                	sd	s0,16(sp)
    3bc02c7e:	00010417          	auipc	s0,0x10
    3bc02c82:	73a40413          	addi	s0,s0,1850 # 3bc133b8 <reg>
    3bc02c86:	6008                	ld	a0,0(s0)
    3bc02c88:	6609                	lui	a2,0x2
    3bc02c8a:	71060613          	addi	a2,a2,1808 # 2710 <__BSS_SIZE__-0x3500>
    3bc02c8e:	800005b7          	lui	a1,0x80000
    3bc02c92:	0541                	addi	a0,a0,16
    3bc02c94:	ec06                	sd	ra,24(sp)
    3bc02c96:	e426                	sd	s1,8(sp)
    3bc02c98:	e59ff0ef          	jal	ra,3bc02af0 <dwc2_hsotg_wait_bit_set>
    3bc02c9c:	c919                	beqz	a0,3bc02cb2 <dwc2_hsotg_init_fifo.constprop.0+0x38>
    3bc02c9e:	00008597          	auipc	a1,0x8
    3bc02ca2:	15258593          	addi	a1,a1,338 # 3bc0adf0 <__func__.4>
    3bc02ca6:	00008517          	auipc	a0,0x8
    3bc02caa:	f2a50513          	addi	a0,a0,-214 # 3bc0abd0 <__func__.5+0x30>
    3bc02cae:	eaafd0ef          	jal	ra,3bc00358 <tf_printf>
    3bc02cb2:	600c                	ld	a1,0(s0)
    3bc02cb4:	40000513          	li	a0,1024
    3bc02cb8:	018004b7          	lui	s1,0x1800
    3bc02cbc:	02458593          	addi	a1,a1,36
    3bc02cc0:	a85fe0ef          	jal	ra,3bc01744 <DWC2_UncachedWrite32>
    3bc02cc4:	600c                	ld	a1,0(s0)
    3bc02cc6:	00400537          	lui	a0,0x400
    3bc02cca:	40050513          	addi	a0,a0,1024 # 400400 <__BSS_SIZE__+0x3fa7f0>
    3bc02cce:	02858593          	addi	a1,a1,40
    3bc02cd2:	a73fe0ef          	jal	ra,3bc01744 <DWC2_UncachedWrite32>
    3bc02cd6:	600c                	ld	a1,0(s0)
    3bc02cd8:	44048513          	addi	a0,s1,1088 # 1800440 <__BSS_SIZE__+0x17fa830>
    3bc02cdc:	10458593          	addi	a1,a1,260
    3bc02ce0:	a65fe0ef          	jal	ra,3bc01744 <DWC2_UncachedWrite32>
    3bc02ce4:	600c                	ld	a1,0(s0)
    3bc02ce6:	5c048513          	addi	a0,s1,1472
    3bc02cea:	10858593          	addi	a1,a1,264
    3bc02cee:	a57fe0ef          	jal	ra,3bc01744 <DWC2_UncachedWrite32>
    3bc02cf2:	600c                	ld	a1,0(s0)
    3bc02cf4:	74048513          	addi	a0,s1,1856
    3bc02cf8:	06400493          	li	s1,100
    3bc02cfc:	10c58593          	addi	a1,a1,268
    3bc02d00:	a45fe0ef          	jal	ra,3bc01744 <DWC2_UncachedWrite32>
    3bc02d04:	600c                	ld	a1,0(s0)
    3bc02d06:	43000513          	li	a0,1072
    3bc02d0a:	05c1                	addi	a1,a1,16
    3bc02d0c:	a39fe0ef          	jal	ra,3bc01744 <DWC2_UncachedWrite32>
    3bc02d10:	6008                	ld	a0,0(s0)
    3bc02d12:	0541                	addi	a0,a0,16
    3bc02d14:	a2bfe0ef          	jal	ra,3bc0173e <DWC2_UncachedRead32>
    3bc02d18:	0005061b          	sext.w	a2,a0
    3bc02d1c:	03057513          	andi	a0,a0,48
    3bc02d20:	c50d                	beqz	a0,3bc02d4a <dwc2_hsotg_init_fifo.constprop.0+0xd0>
    3bc02d22:	34fd                	addiw	s1,s1,-1
    3bc02d24:	ec99                	bnez	s1,3bc02d42 <dwc2_hsotg_init_fifo.constprop.0+0xc8>
    3bc02d26:	6442                	ld	s0,16(sp)
    3bc02d28:	60e2                	ld	ra,24(sp)
    3bc02d2a:	64a2                	ld	s1,8(sp)
    3bc02d2c:	00008597          	auipc	a1,0x8
    3bc02d30:	0c458593          	addi	a1,a1,196 # 3bc0adf0 <__func__.4>
    3bc02d34:	00008517          	auipc	a0,0x8
    3bc02d38:	eec50513          	addi	a0,a0,-276 # 3bc0ac20 <__func__.5+0x80>
    3bc02d3c:	6105                	addi	sp,sp,32
    3bc02d3e:	e1afd06f          	j	3bc00358 <tf_printf>
    3bc02d42:	4505                	li	a0,1
    3bc02d44:	c46fd0ef          	jal	ra,3bc0018a <udelay>
    3bc02d48:	b7e1                	j	3bc02d10 <dwc2_hsotg_init_fifo.constprop.0+0x96>
    3bc02d4a:	60e2                	ld	ra,24(sp)
    3bc02d4c:	6442                	ld	s0,16(sp)
    3bc02d4e:	64a2                	ld	s1,8(sp)
    3bc02d50:	6105                	addi	sp,sp,32
    3bc02d52:	8082                	ret

000000003bc02d54 <_dwc2_ep_disable.isra.0>:
    3bc02d54:	00010717          	auipc	a4,0x10
    3bc02d58:	66c73703          	ld	a4,1644(a4) # 3bc133c0 <the_controller>
    3bc02d5c:	05070713          	addi	a4,a4,80
    3bc02d60:	07154683          	lbu	a3,113(a0)
    3bc02d64:	00e51c63          	bne	a0,a4,3bc02d7c <_dwc2_ep_disable.isra.0+0x28>
    3bc02d68:	00008597          	auipc	a1,0x8
    3bc02d6c:	04058593          	addi	a1,a1,64 # 3bc0ada8 <__func__.1>
    3bc02d70:	00008517          	auipc	a0,0x8
    3bc02d74:	ee050513          	addi	a0,a0,-288 # 3bc0ac50 <__func__.5+0xb0>
    3bc02d78:	de0fd06f          	j	3bc00358 <tf_printf>
    3bc02d7c:	7139                	addi	sp,sp,-64
    3bc02d7e:	f04a                	sd	s2,32(sp)
    3bc02d80:	ec4e                	sd	s3,24(sp)
    3bc02d82:	00010917          	auipc	s2,0x10
    3bc02d86:	63690913          	addi	s2,s2,1590 # 3bc133b8 <reg>
    3bc02d8a:	fc06                	sd	ra,56(sp)
    3bc02d8c:	f822                	sd	s0,48(sp)
    3bc02d8e:	f426                	sd	s1,40(sp)
    3bc02d90:	e852                	sd	s4,16(sp)
    3bc02d92:	e456                	sd	s5,8(sp)
    3bc02d94:	fc76b70b          	extu	a4,a3,63,7
    3bc02d98:	00093983          	ld	s3,0(s2)
    3bc02d9c:	00f6f793          	andi	a5,a3,15
    3bc02da0:	0e070563          	beqz	a4,3bc02e8a <_dwc2_ep_disable.isra.0+0x136>
    3bc02da4:	04878793          	addi	a5,a5,72
    3bc02da8:	0796                	slli	a5,a5,0x5
    3bc02daa:	99be                	add	s3,s3,a5
    3bc02dac:	84aa                	mv	s1,a0
    3bc02dae:	854e                	mv	a0,s3
    3bc02db0:	98ffe0ef          	jal	ra,3bc0173e <DWC2_UncachedRead32>
    3bc02db4:	00050a1b          	sext.w	s4,a0
    3bc02db8:	080a5a63          	bgez	s4,3bc02e4c <_dwc2_ep_disable.isra.0+0xf8>
    3bc02dbc:	0714c783          	lbu	a5,113(s1)
    3bc02dc0:	00093503          	ld	a0,0(s2)
    3bc02dc4:	fc77b70b          	extu	a4,a5,63,7
    3bc02dc8:	00f7f413          	andi	s0,a5,15
    3bc02dcc:	c371                	beqz	a4,3bc02e90 <_dwc2_ep_disable.isra.0+0x13c>
    3bc02dce:	04840413          	addi	s0,s0,72
    3bc02dd2:	0416                	slli	s0,s0,0x5
    3bc02dd4:	00850ab3          	add	s5,a0,s0
    3bc02dd8:	0421                	addi	s0,s0,8
    3bc02dda:	942a                	add	s0,s0,a0
    3bc02ddc:	080005b7          	lui	a1,0x8000
    3bc02de0:	8556                	mv	a0,s5
    3bc02de2:	c8dff0ef          	jal	ra,3bc02a6e <dwc2_hsotg_set_bit>
    3bc02de6:	06400613          	li	a2,100
    3bc02dea:	04000593          	li	a1,64
    3bc02dee:	8522                	mv	a0,s0
    3bc02df0:	d01ff0ef          	jal	ra,3bc02af0 <dwc2_hsotg_wait_bit_set>
    3bc02df4:	c919                	beqz	a0,3bc02e0a <_dwc2_ep_disable.isra.0+0xb6>
    3bc02df6:	00008597          	auipc	a1,0x8
    3bc02dfa:	f9a58593          	addi	a1,a1,-102 # 3bc0ad90 <__func__.0>
    3bc02dfe:	00008517          	auipc	a0,0x8
    3bc02e02:	e6a50513          	addi	a0,a0,-406 # 3bc0ac68 <__func__.5+0xc8>
    3bc02e06:	d52fd0ef          	jal	ra,3bc00358 <tf_printf>
    3bc02e0a:	480005b7          	lui	a1,0x48000
    3bc02e0e:	8556                	mv	a0,s5
    3bc02e10:	c5fff0ef          	jal	ra,3bc02a6e <dwc2_hsotg_set_bit>
    3bc02e14:	06400613          	li	a2,100
    3bc02e18:	4589                	li	a1,2
    3bc02e1a:	8522                	mv	a0,s0
    3bc02e1c:	cd5ff0ef          	jal	ra,3bc02af0 <dwc2_hsotg_wait_bit_set>
    3bc02e20:	c919                	beqz	a0,3bc02e36 <_dwc2_ep_disable.isra.0+0xe2>
    3bc02e22:	00008597          	auipc	a1,0x8
    3bc02e26:	f6e58593          	addi	a1,a1,-146 # 3bc0ad90 <__func__.0>
    3bc02e2a:	00008517          	auipc	a0,0x8
    3bc02e2e:	e7e50513          	addi	a0,a0,-386 # 3bc0aca8 <__func__.5+0x108>
    3bc02e32:	d26fd0ef          	jal	ra,3bc00358 <tf_printf>
    3bc02e36:	4589                	li	a1,2
    3bc02e38:	8522                	mv	a0,s0
    3bc02e3a:	c35ff0ef          	jal	ra,3bc02a6e <dwc2_hsotg_set_bit>
    3bc02e3e:	07148783          	lb	a5,113(s1)
    3bc02e42:	0a07d163          	bgez	a5,3bc02ee4 <_dwc2_ep_disable.isra.0+0x190>
    3bc02e46:	5ca8                	lw	a0,120(s1)
    3bc02e48:	cefff0ef          	jal	ra,3bc02b36 <dwc2_hsotg_txfifo_flush.constprop.0>
    3bc02e4c:	7fff8537          	lui	a0,0x7fff8
    3bc02e50:	157d                	addi	a0,a0,-1
    3bc02e52:	00aa7a33          	and	s4,s4,a0
    3bc02e56:	08000537          	lui	a0,0x8000
    3bc02e5a:	85ce                	mv	a1,s3
    3bc02e5c:	00aa6533          	or	a0,s4,a0
    3bc02e60:	8e5fe0ef          	jal	ra,3bc01744 <DWC2_UncachedWrite32>
    3bc02e64:	8526                	mv	a0,s1
    3bc02e66:	fc600593          	li	a1,-58
    3bc02e6a:	d5dff0ef          	jal	ra,3bc02bc6 <kill_all_requests.isra.0>
    3bc02e6e:	4785                	li	a5,1
    3bc02e70:	06f48823          	sb	a5,112(s1)
    3bc02e74:	70e2                	ld	ra,56(sp)
    3bc02e76:	7442                	ld	s0,48(sp)
    3bc02e78:	0404b023          	sd	zero,64(s1)
    3bc02e7c:	7902                	ld	s2,32(sp)
    3bc02e7e:	74a2                	ld	s1,40(sp)
    3bc02e80:	69e2                	ld	s3,24(sp)
    3bc02e82:	6a42                	ld	s4,16(sp)
    3bc02e84:	6aa2                	ld	s5,8(sp)
    3bc02e86:	6121                	addi	sp,sp,64
    3bc02e88:	8082                	ret
    3bc02e8a:	05878793          	addi	a5,a5,88
    3bc02e8e:	bf29                	j	3bc02da8 <_dwc2_ep_disable.isra.0+0x54>
    3bc02e90:	05840413          	addi	s0,s0,88
    3bc02e94:	0416                	slli	s0,s0,0x5
    3bc02e96:	00850ab3          	add	s5,a0,s0
    3bc02e9a:	0421                	addi	s0,s0,8
    3bc02e9c:	942a                	add	s0,s0,a0
    3bc02e9e:	0551                	addi	a0,a0,20
    3bc02ea0:	89ffe0ef          	jal	ra,3bc0173e <DWC2_UncachedRead32>
    3bc02ea4:	08057513          	andi	a0,a0,128
    3bc02ea8:	e919                	bnez	a0,3bc02ebe <_dwc2_ep_disable.isra.0+0x16a>
    3bc02eaa:	00093503          	ld	a0,0(s2)
    3bc02eae:	6785                	lui	a5,0x1
    3bc02eb0:	80478793          	addi	a5,a5,-2044 # 804 <__BSS_SIZE__-0x540c>
    3bc02eb4:	20000593          	li	a1,512
    3bc02eb8:	953e                	add	a0,a0,a5
    3bc02eba:	bb5ff0ef          	jal	ra,3bc02a6e <dwc2_hsotg_set_bit>
    3bc02ebe:	00093503          	ld	a0,0(s2)
    3bc02ec2:	06400613          	li	a2,100
    3bc02ec6:	08000593          	li	a1,128
    3bc02eca:	0551                	addi	a0,a0,20
    3bc02ecc:	c25ff0ef          	jal	ra,3bc02af0 <dwc2_hsotg_wait_bit_set>
    3bc02ed0:	dd0d                	beqz	a0,3bc02e0a <_dwc2_ep_disable.isra.0+0xb6>
    3bc02ed2:	00008597          	auipc	a1,0x8
    3bc02ed6:	ebe58593          	addi	a1,a1,-322 # 3bc0ad90 <__func__.0>
    3bc02eda:	00008517          	auipc	a0,0x8
    3bc02ede:	dae50513          	addi	a0,a0,-594 # 3bc0ac88 <__func__.5+0xe8>
    3bc02ee2:	b715                	j	3bc02e06 <_dwc2_ep_disable.isra.0+0xb2>
    3bc02ee4:	00093503          	ld	a0,0(s2)
    3bc02ee8:	6785                	lui	a5,0x1
    3bc02eea:	80478793          	addi	a5,a5,-2044 # 804 <__BSS_SIZE__-0x540c>
    3bc02eee:	40000593          	li	a1,1024
    3bc02ef2:	953e                	add	a0,a0,a5
    3bc02ef4:	b7bff0ef          	jal	ra,3bc02a6e <dwc2_hsotg_set_bit>
    3bc02ef8:	bf91                	j	3bc02e4c <_dwc2_ep_disable.isra.0+0xf8>

000000003bc02efa <dwc2_ep_disable>:
    3bc02efa:	cd09                	beqz	a0,3bc02f14 <dwc2_ep_disable+0x1a>
    3bc02efc:	6138                	ld	a4,64(a0)
    3bc02efe:	57a9                	li	a5,-22
    3bc02f00:	cb19                	beqz	a4,3bc02f16 <dwc2_ep_disable+0x1c>
    3bc02f02:	1141                	addi	sp,sp,-16
    3bc02f04:	e406                	sd	ra,8(sp)
    3bc02f06:	e4fff0ef          	jal	ra,3bc02d54 <_dwc2_ep_disable.isra.0>
    3bc02f0a:	60a2                	ld	ra,8(sp)
    3bc02f0c:	4781                	li	a5,0
    3bc02f0e:	853e                	mv	a0,a5
    3bc02f10:	0141                	addi	sp,sp,16
    3bc02f12:	8082                	ret
    3bc02f14:	57a9                	li	a5,-22
    3bc02f16:	853e                	mv	a0,a5
    3bc02f18:	8082                	ret

000000003bc02f1a <dwc2_reconfig_usbd>:
    3bc02f1a:	7139                	addi	sp,sp,-64
    3bc02f1c:	f426                	sd	s1,40(sp)
    3bc02f1e:	f04a                	sd	s2,32(sp)
    3bc02f20:	ec4e                	sd	s3,24(sp)
    3bc02f22:	84aa                	mv	s1,a0
    3bc02f24:	04053983          	ld	s3,64(a0)
    3bc02f28:	892e                	mv	s2,a1
    3bc02f2a:	05050513          	addi	a0,a0,80
    3bc02f2e:	fca00593          	li	a1,-54
    3bc02f32:	fc06                	sd	ra,56(sp)
    3bc02f34:	f822                	sd	s0,48(sp)
    3bc02f36:	e852                	sd	s4,16(sp)
    3bc02f38:	e456                	sd	s5,8(sp)
    3bc02f3a:	c8dff0ef          	jal	ra,3bc02bc6 <kill_all_requests.isra.0>
    3bc02f3e:	8526                	mv	a0,s1
    3bc02f40:	98dff0ef          	jal	ra,3bc028cc <udc_reinit>
    3bc02f44:	00010417          	auipc	s0,0x10
    3bc02f48:	47440413          	addi	s0,s0,1140 # 3bc133b8 <reg>
    3bc02f4c:	22091863          	bnez	s2,3bc0317c <dwc2_reconfig_usbd+0x262>
    3bc02f50:	6008                	ld	a0,0(s0)
    3bc02f52:	04050513          	addi	a0,a0,64
    3bc02f56:	fe8fe0ef          	jal	ra,3bc0173e <DWC2_UncachedRead32>
    3bc02f5a:	600c                	ld	a1,0(s0)
    3bc02f5c:	6791                	lui	a5,0x4
    3bc02f5e:	3c05350b          	extu	a0,a0,15,0
    3bc02f62:	20978793          	addi	a5,a5,521 # 4209 <__BSS_SIZE__-0x1a07>
    3bc02f66:	05c1                	addi	a1,a1,16
    3bc02f68:	06a7ee63          	bltu	a5,a0,3bc02fe4 <dwc2_reconfig_usbd+0xca>
    3bc02f6c:	4505                	li	a0,1
    3bc02f6e:	fd6fe0ef          	jal	ra,3bc01744 <DWC2_UncachedWrite32>
    3bc02f72:	03300a13          	li	s4,51
    3bc02f76:	4505                	li	a0,1
    3bc02f78:	a12fd0ef          	jal	ra,3bc0018a <udelay>
    3bc02f7c:	6008                	ld	a0,0(s0)
    3bc02f7e:	3a7d                	addiw	s4,s4,-1
    3bc02f80:	0541                	addi	a0,a0,16
    3bc02f82:	fbcfe0ef          	jal	ra,3bc0173e <DWC2_UncachedRead32>
    3bc02f86:	0005061b          	sext.w	a2,a0
    3bc02f8a:	020a1463          	bnez	s4,3bc02fb2 <dwc2_reconfig_usbd+0x98>
    3bc02f8e:	00008597          	auipc	a1,0x8
    3bc02f92:	e3258593          	addi	a1,a1,-462 # 3bc0adc0 <__func__.2>
    3bc02f96:	00008517          	auipc	a0,0x8
    3bc02f9a:	d3250513          	addi	a0,a0,-718 # 3bc0acc8 <__func__.5+0x128>
    3bc02f9e:	7442                	ld	s0,48(sp)
    3bc02fa0:	70e2                	ld	ra,56(sp)
    3bc02fa2:	74a2                	ld	s1,40(sp)
    3bc02fa4:	7902                	ld	s2,32(sp)
    3bc02fa6:	69e2                	ld	s3,24(sp)
    3bc02fa8:	6a42                	ld	s4,16(sp)
    3bc02faa:	6aa2                	ld	s5,8(sp)
    3bc02fac:	6121                	addi	sp,sp,64
    3bc02fae:	baafd06f          	j	3bc00358 <tf_printf>
    3bc02fb2:	8a05                	andi	a2,a2,1
    3bc02fb4:	f269                	bnez	a2,3bc02f76 <dwc2_reconfig_usbd+0x5c>
    3bc02fb6:	03300a13          	li	s4,51
    3bc02fba:	4505                	li	a0,1
    3bc02fbc:	9cefd0ef          	jal	ra,3bc0018a <udelay>
    3bc02fc0:	6008                	ld	a0,0(s0)
    3bc02fc2:	3a7d                	addiw	s4,s4,-1
    3bc02fc4:	0541                	addi	a0,a0,16
    3bc02fc6:	f78fe0ef          	jal	ra,3bc0173e <DWC2_UncachedRead32>
    3bc02fca:	0005061b          	sext.w	a2,a0
    3bc02fce:	060a1963          	bnez	s4,3bc03040 <dwc2_reconfig_usbd+0x126>
    3bc02fd2:	00008597          	auipc	a1,0x8
    3bc02fd6:	dee58593          	addi	a1,a1,-530 # 3bc0adc0 <__func__.2>
    3bc02fda:	00008517          	auipc	a0,0x8
    3bc02fde:	d3e50513          	addi	a0,a0,-706 # 3bc0ad18 <__func__.5+0x178>
    3bc02fe2:	bf75                	j	3bc02f9e <dwc2_reconfig_usbd+0x84>
    3bc02fe4:	4505                	li	a0,1
    3bc02fe6:	f5efe0ef          	jal	ra,3bc01744 <DWC2_UncachedWrite32>
    3bc02fea:	03300a93          	li	s5,51
    3bc02fee:	20000a37          	lui	s4,0x20000
    3bc02ff2:	4505                	li	a0,1
    3bc02ff4:	996fd0ef          	jal	ra,3bc0018a <udelay>
    3bc02ff8:	6008                	ld	a0,0(s0)
    3bc02ffa:	3afd                	addiw	s5,s5,-1
    3bc02ffc:	0541                	addi	a0,a0,16
    3bc02ffe:	f40fe0ef          	jal	ra,3bc0173e <DWC2_UncachedRead32>
    3bc03002:	0005061b          	sext.w	a2,a0
    3bc03006:	000a9b63          	bnez	s5,3bc0301c <dwc2_reconfig_usbd+0x102>
    3bc0300a:	00008597          	auipc	a1,0x8
    3bc0300e:	db658593          	addi	a1,a1,-586 # 3bc0adc0 <__func__.2>
    3bc03012:	00008517          	auipc	a0,0x8
    3bc03016:	cde50513          	addi	a0,a0,-802 # 3bc0acf0 <__func__.5+0x150>
    3bc0301a:	b751                	j	3bc02f9e <dwc2_reconfig_usbd+0x84>
    3bc0301c:	01467633          	and	a2,a2,s4
    3bc03020:	2601                	sext.w	a2,a2
    3bc03022:	da61                	beqz	a2,3bc02ff2 <dwc2_reconfig_usbd+0xd8>
    3bc03024:	6008                	ld	a0,0(s0)
    3bc03026:	0541                	addi	a0,a0,16
    3bc03028:	f16fe0ef          	jal	ra,3bc0173e <DWC2_UncachedRead32>
    3bc0302c:	600c                	ld	a1,0(s0)
    3bc0302e:	2501                	sext.w	a0,a0
    3bc03030:	9979                	andi	a0,a0,-2
    3bc03032:	01456533          	or	a0,a0,s4
    3bc03036:	05c1                	addi	a1,a1,16
    3bc03038:	2501                	sext.w	a0,a0
    3bc0303a:	f0afe0ef          	jal	ra,3bc01744 <DWC2_UncachedWrite32>
    3bc0303e:	bfa5                	j	3bc02fb6 <dwc2_reconfig_usbd+0x9c>
    3bc03040:	f6065de3          	bgez	a2,3bc02fba <dwc2_reconfig_usbd+0xa0>
    3bc03044:	0309a503          	lw	a0,48(s3)
    3bc03048:	e509                	bnez	a0,3bc03052 <dwc2_reconfig_usbd+0x138>
    3bc0304a:	40081537          	lui	a0,0x40081
    3bc0304e:	40f50513          	addi	a0,a0,1039 # 4008140f <__BL2_END__+0x446dfff>
    3bc03052:	600c                	ld	a1,0(s0)
    3bc03054:	05b1                	addi	a1,a1,12
    3bc03056:	eeefe0ef          	jal	ra,3bc01744 <DWC2_UncachedWrite32>
    3bc0305a:	c21ff0ef          	jal	ra,3bc02c7a <dwc2_hsotg_init_fifo.constprop.0>
    3bc0305e:	02091063          	bnez	s2,3bc0307e <dwc2_reconfig_usbd+0x164>
    3bc03062:	6008                	ld	a0,0(s0)
    3bc03064:	6985                	lui	s3,0x1
    3bc03066:	80498993          	addi	s3,s3,-2044 # 804 <__BSS_SIZE__-0x540c>
    3bc0306a:	954e                	add	a0,a0,s3
    3bc0306c:	ed2fe0ef          	jal	ra,3bc0173e <DWC2_UncachedRead32>
    3bc03070:	600c                	ld	a1,0(s0)
    3bc03072:	2501                	sext.w	a0,a0
